LX51 LINKER/LOCATER V4.66.100.0                                                         10/12/2023  14:31:55  PAGE 1


LX51 LINKER/LOCATER V4.66.100.0, INVOKED BY:
C:\KEIL_V5\C51\BIN\LX51.EXE .\Output\main.obj, .\Output\Interrupt.obj, .\Output\AddFunction.obj, .\Output\UserMain.obj, 
>> .\Output\UserInterrupt.obj, .\Output\UserAddFunc.obj, .\Output\UserFrame.obj, .\Output\UserDryer.obj, .\Output\UserCa
>> lculate.obj, .\Output\UserSignal.obj, .\Output\UserFlash.obj, .\Output\UserUART.obj, .\Output\FocControl.obj, .\Outpu
>> t\FocControlFunction.obj, .\Output\BEMFDetect.obj, .\Output\FOCTailDect.obj, .\Output\RPD.obj, .\Output\RSDDetect.obj
>> , .\Output\KeyScan.obj, .\Output\LED.obj, .\Output\Flash.obj, .\Output\AMPInit.obj, .\Output\DriverInit.obj, .\Output
>> \EXTIInit.obj, .\Output\SPIInit.obj, .\Output\TimerInit.obj, .\Output\ADCInit.obj, .\Output\CMPInit.obj, .\Output\GPI
>> OInit.obj, .\Output\MDUInit.obj, .\Output\PIInit.obj, .\Output\UARTInit.obj, .\Output\FU68xx_2_System.obj, .\Output\F
>> U68xx_2_DMA.obj, ..\Library\FU68xx_Hardware_Driver\Source\Fu68xx_2_MotorContorl.LIB TO .\Output\FOC_Fortior PRINT (.\
>> Listing\FOC_Fortior.map) REMOVEUNUSED


CPU MODE:     8051 MODE
MEMORY MODEL: LARGE WITH FLOATING POINT ARITHMETIC


INPUT MODULES INCLUDED:
  .\Output\main.obj (MAIN)
         COMMENT TYPE 0: C51 V9.60.7.0
  .\Output\Interrupt.obj (INTERRUPT)
         COMMENT TYPE 0: C51 V9.60.7.0
  .\Output\AddFunction.obj (ADDFUNCTION)
         COMMENT TYPE 0: C51 V9.60.7.0
  .\Output\UserMain.obj (USERMAIN)
         COMMENT TYPE 0: C51 V9.60.7.0
  .\Output\UserInterrupt.obj (USERINTERRUPT)
         COMMENT TYPE 0: C51 V9.60.7.0
  .\Output\UserAddFunc.obj (USERADDFUNC)
         COMMENT TYPE 0: C51 V9.60.7.0
  .\Output\UserFrame.obj (USERFRAME)
         COMMENT TYPE 0: C51 V9.60.7.0
  .\Output\UserDryer.obj (USERDRYER)
         COMMENT TYPE 0: C51 V9.60.7.0
  .\Output\UserCalculate.obj (USERCALCULATE)
         COMMENT TYPE 0: C51 V9.60.7.0
  .\Output\UserSignal.obj (USERSIGNAL)
         COMMENT TYPE 0: C51 V9.60.7.0
  .\Output\UserFlash.obj (USERFLASH)
         COMMENT TYPE 0: C51 V9.60.7.0
  .\Output\UserUART.obj (USERUART)
         COMMENT TYPE 0: C51 V9.60.7.0
  .\Output\FocControl.obj (FOCCONTROL)
         COMMENT TYPE 0: C51 V9.60.7.0
  .\Output\FocControlFunction.obj (FOCCONTROLFUNCTION)
         COMMENT TYPE 0: C51 V9.60.7.0
  .\Output\BEMFDetect.obj (BEMFDETECT)
         COMMENT TYPE 0: C51 V9.60.7.0
  .\Output\FOCTailDect.obj (FOCTAILDECT)
         COMMENT TYPE 0: C51 V9.60.7.0
  .\Output\RPD.obj (RPD)
         COMMENT TYPE 0: C51 V9.60.7.0
  .\Output\RSDDetect.obj (RSDDETECT)
         COMMENT TYPE 0: C51 V9.60.7.0
  .\Output\KeyScan.obj (KEYSCAN)
         COMMENT TYPE 0: C51 V9.60.7.0
  .\Output\LED.obj (LED)
         COMMENT TYPE 0: C51 V9.60.7.0
  .\Output\Flash.obj (FLASH)
         COMMENT TYPE 0: C51 V9.60.7.0
  .\Output\AMPInit.obj (AMPINIT)
         COMMENT TYPE 0: C51 V9.60.7.0
  .\Output\DriverInit.obj (DRIVERINIT)
         COMMENT TYPE 0: C51 V9.60.7.0
  .\Output\EXTIInit.obj (EXTIINIT)
         COMMENT TYPE 0: C51 V9.60.7.0
  .\Output\SPIInit.obj (SPIINIT)
LX51 LINKER/LOCATER V4.66.100.0                                                       10/12/2023  14:31:55  PAGE 2


         COMMENT TYPE 0: C51 V9.60.7.0
  .\Output\TimerInit.obj (TIMERINIT)
         COMMENT TYPE 0: C51 V9.60.7.0
  .\Output\ADCInit.obj (ADCINIT)
         COMMENT TYPE 0: C51 V9.60.7.0
  .\Output\CMPInit.obj (CMPINIT)
         COMMENT TYPE 0: C51 V9.60.7.0
  .\Output\GPIOInit.obj (GPIOINIT)
         COMMENT TYPE 0: C51 V9.60.7.0
  .\Output\MDUInit.obj (MDUINIT)
         COMMENT TYPE 0: C51 V9.60.7.0
  .\Output\PIInit.obj (PIINIT)
         COMMENT TYPE 0: C51 V9.60.7.0
  .\Output\UARTInit.obj (UARTINIT)
         COMMENT TYPE 0: C51 V9.60.7.0
  .\Output\FU68xx_2_System.obj (FU68XX_2_SYSTEM)
         COMMENT TYPE 0: C51 V9.60.7.0
  .\Output\FU68xx_2_DMA.obj (FU68XX_2_DMA)
         COMMENT TYPE 0: C51 V9.56.0.0
  ..\Library\FU68xx_Hardware_Driver\Source\Fu68xx_2_MotorContorl.LIB (FU68XX_2_OTHER)
         COMMENT TYPE 0: C51 V9.52.0.0
  C:\KEIL_V5\C51\LIB\C51FPL.LIB (?C?FPADD)
         COMMENT TYPE 1: A51 / ASM51 Assembler
  C:\KEIL_V5\C51\LIB\C51FPL.LIB (?C?FPMUL)
         COMMENT TYPE 1: A51 / ASM51 Assembler
  C:\KEIL_V5\C51\LIB\C51FPL.LIB (?C?FPDIV)
         COMMENT TYPE 1: A51 / ASM51 Assembler
  C:\KEIL_V5\C51\LIB\C51FPL.LIB (?C?FPCMP)
         COMMENT TYPE 1: A51 / ASM51 Assembler
  C:\KEIL_V5\C51\LIB\C51FPL.LIB (?C?FCAST)
         COMMENT TYPE 1: A51 / ASM51 Assembler
  C:\KEIL_V5\C51\LIB\C51FPL.LIB (?C?CASTF)
         COMMENT TYPE 1: A51 / ASM51 Assembler
  C:\KEIL_V5\C51\LIB\C51FPL.LIB (?C?FPGETOPN)
         COMMENT TYPE 1: A51 / ASM51 Assembler
  C:\KEIL_V5\C51\LIB\C51L.LIB (?C_STARTUP)
         COMMENT TYPE 1: A51 / ASM51 Assembler
  C:\KEIL_V5\C51\LIB\C51L.LIB (?C?CLDPTR)
         COMMENT TYPE 1: A51 / ASM51 Assembler
  C:\KEIL_V5\C51\LIB\C51L.LIB (?C?CLDOPTR)
         COMMENT TYPE 1: A51 / ASM51 Assembler
  C:\KEIL_V5\C51\LIB\C51L.LIB (?C?CILDPTR)
         COMMENT TYPE 1: A51 / ASM51 Assembler
  C:\KEIL_V5\C51\LIB\C51L.LIB (?C?CILDOPTR)
         COMMENT TYPE 1: A51 / ASM51 Assembler
  C:\KEIL_V5\C51\LIB\C51L.LIB (?C?CSTPTR)
         COMMENT TYPE 1: A51 / ASM51 Assembler
  C:\KEIL_V5\C51\LIB\C51L.LIB (?C?CSTOPTR)
         COMMENT TYPE 1: A51 / ASM51 Assembler
  C:\KEIL_V5\C51\LIB\C51L.LIB (?C?IMUL)
         COMMENT TYPE 1: A51 / ASM51 Assembler
  C:\KEIL_V5\C51\LIB\C51L.LIB (?C?UIDIV)
         COMMENT TYPE 1: A51 / ASM51 Assembler
  C:\KEIL_V5\C51\LIB\C51L.LIB (?C?IILDX)
         COMMENT TYPE 1: A51 / ASM51 Assembler
  C:\KEIL_V5\C51\LIB\C51L.LIB (?C?ILDIX)
         COMMENT TYPE 1: A51 / ASM51 Assembler
  C:\KEIL_V5\C51\LIB\C51L.LIB (?C?ILDPTR)
         COMMENT TYPE 1: A51 / ASM51 Assembler
  C:\KEIL_V5\C51\LIB\C51L.LIB (?C?ILDOPTR)
         COMMENT TYPE 1: A51 / ASM51 Assembler
  C:\KEIL_V5\C51\LIB\C51L.LIB (?C?IILDPTR)
         COMMENT TYPE 1: A51 / ASM51 Assembler
  C:\KEIL_V5\C51\LIB\C51L.LIB (?C?IILDOPTR)
         COMMENT TYPE 1: A51 / ASM51 Assembler
LX51 LINKER/LOCATER V4.66.100.0                                                       10/12/2023  14:31:55  PAGE 3


  C:\KEIL_V5\C51\LIB\C51L.LIB (?C?ISTPTR)
         COMMENT TYPE 1: A51 / ASM51 Assembler
  C:\KEIL_V5\C51\LIB\C51L.LIB (?C?ISTOPTR)
         COMMENT TYPE 1: A51 / ASM51 Assembler
  C:\KEIL_V5\C51\LIB\C51L.LIB (?C?LMUL)
         COMMENT TYPE 1: A51 / ASM51 Assembler
  C:\KEIL_V5\C51\LIB\C51L.LIB (?C?ULDIV)
         COMMENT TYPE 1: A51 / ASM51 Assembler
  C:\KEIL_V5\C51\LIB\C51L.LIB (?C?LNEG)
         COMMENT TYPE 1: A51 / ASM51 Assembler
  C:\KEIL_V5\C51\LIB\C51L.LIB (?C?SLCMP)
         COMMENT TYPE 1: A51 / ASM51 Assembler
  C:\KEIL_V5\C51\LIB\C51L.LIB (?C?ULCMP)
         COMMENT TYPE 1: A51 / ASM51 Assembler
  C:\KEIL_V5\C51\LIB\C51L.LIB (?C?ULSHR)
         COMMENT TYPE 1: A51 / ASM51 Assembler
  C:\KEIL_V5\C51\LIB\C51L.LIB (?C?SLSHR)
         COMMENT TYPE 1: A51 / ASM51 Assembler
  C:\KEIL_V5\C51\LIB\C51L.LIB (?C?LLDOPTR)
         COMMENT TYPE 1: A51 / ASM51 Assembler
  C:\KEIL_V5\C51\LIB\C51L.LIB (?C?LSTOPTR)
         COMMENT TYPE 1: A51 / ASM51 Assembler
  C:\KEIL_V5\C51\LIB\C51L.LIB (?C?LLDIDATA)
         COMMENT TYPE 1: A51 / ASM51 Assembler
  C:\KEIL_V5\C51\LIB\C51L.LIB (?C?LLDIDATA0)
         COMMENT TYPE 1: A51 / ASM51 Assembler
  C:\KEIL_V5\C51\LIB\C51L.LIB (?C?LSTIDATA)
         COMMENT TYPE 1: A51 / ASM51 Assembler
  C:\KEIL_V5\C51\LIB\C51L.LIB (?C?LSTXDATA)
         COMMENT TYPE 1: A51 / ASM51 Assembler
  C:\KEIL_V5\C51\LIB\C51L.LIB (?C?LSTKIDATA)
         COMMENT TYPE 1: A51 / ASM51 Assembler
  C:\KEIL_V5\C51\LIB\C51L.LIB (?C?LSTKXDATA)
         COMMENT TYPE 1: A51 / ASM51 Assembler
  C:\KEIL_V5\C51\LIB\C51L.LIB (?C?LIMUL)
         COMMENT TYPE 1: A51 / ASM51 Assembler
  C:\KEIL_V5\C51\LIB\C51L.LIB (?C?MEMSET)
         COMMENT TYPE 1: A51 / ASM51 Assembler
  C:\KEIL_V5\C51\LIB\C51L.LIB (?C_INIT)
         COMMENT TYPE 1: A51 / ASM51 Assembler
  C:\KEIL_V5\C51\LIB\C51L.LIB (?C?LLDXDATA)
         COMMENT TYPE 1: A51 / ASM51 Assembler
  C:\KEIL_V5\C51\LIB\C51L.LIB (?C?LLDPDATA)
         COMMENT TYPE 1: A51 / ASM51 Assembler
  C:\KEIL_V5\C51\LIB\C51L.LIB (?C?LLDCODE)
         COMMENT TYPE 1: A51 / ASM51 Assembler
  C:\KEIL_V5\C51\LIB\C51L.LIB (?C?LSTPDATA)
         COMMENT TYPE 1: A51 / ASM51 Assembler


ACTIVE MEMORY CLASSES OF MODULE:  .\Output\FOC_Fortior (MAIN)

BASE        START       END         USED      MEMORY CLASS
==========================================================
C:000000H   C:000000H   C:00FFFFH   00390FH   CODE
X:000000H   X:000000H   X:00FFFFH   0002CAH   XDATA
I:000000H   I:000000H   I:0000FFH   0000BEH   IDATA
I:000020H.0 I:000020H.0 I:00002FH.7 000002H.0 BIT
C:000000H   C:000000H   C:00FFFFH             CONST
I:000000H   I:000000H   I:00007FH   000008H   DATA


MEMORY MAP OF MODULE:  .\Output\FOC_Fortior (MAIN)


LX51 LINKER/LOCATER V4.66.100.0                                                       10/12/2023  14:31:55  PAGE 4


START     STOP      LENGTH    ALIGN  RELOC    MEMORY CLASS   SEGMENT NAME
=========================================================================

* * * * * * * * * * *   D A T A   M E M O R Y   * * * * * * * * * * * * *
000000H   000007H   000008H   ---    AT..     DATA           "REG BANK 0"
000008H   000009H   000002H   BYTE   UNIT     IDATA          ?ID?USERSIGNAL
00000AH   00000AH   000001H   BYTE   UNIT     IDATA          ?ID?FLASH
00000BH.0 00001FH.7 000015H.0 ---    ---      **GAP**
000020H.0 000021H.2 000001H.3 BIT    UNIT     BIT            ?BI?USERDRYER
000021H.3 000021H.3 000000H.1 BIT    UNIT     BIT            ?BI?USERMAIN
000021H.4 000021H.4 000000H.1 BIT    UNIT     BIT            ?BI?USERFRAME
000021H.5 000021H.5 000000H.1 BIT    UNIT     BIT            ?BI?USERSIGNAL
000021H.6 000021H.6 000000H.1 BIT    UNIT     BIT            ?BI?LED
000021H.7 000021H.7 000000H.1 BIT    UNIT     BIT            _BIT_GROUP_
000022H   000062H   000041H   BYTE   UNIT     IDATA          ?ID?USERFRAME
000063H   000099H   000037H   BYTE   UNIT     IDATA          ?ID?ADDFUNCTION
00009AH   0000BEH   000025H   BYTE   UNIT     IDATA          ?ID?USERDRYER
0000BFH   0000DBH   00001DH   BYTE   UNIT     IDATA          ?ID?USERUART
0000DCH   0000DCH   000001H   BYTE   UNIT     IDATA          ?STACK

* * * * * * * * * * *   C O D E   M E M O R Y   * * * * * * * * * * * * *
000000H   000002H   000003H   ---    OFFS..   CODE           ?CO??C_STARTUP?0
000003H   000005H   000003H   BYTE   OFFS..   CODE           ?INTERRUPT?00003
000006H   000006H   000001H   BYTE   UNIT     CODE           ?PR?INT0?INTERRUPT
000007H   000007H   000001H   BYTE   UNIT     CODE           ?PR?INT5?INTERRUPT
000008H   000008H   000001H   BYTE   UNIT     CODE           ?PR?INT6?INTERRUPT
000009H   000009H   000001H   BYTE   UNIT     CODE           ?PR?INT8?INTERRUPT
00000AH   00000AH   000001H   BYTE   UNIT     CODE           ?PR?INT11?INTERRUPT
00000BH   00000DH   000003H   BYTE   OFFS..   CODE           ?USERINTERRUPT?0000B
00000EH   00000EH   000001H   BYTE   UNIT     CODE           ?PR?INT13?INTERRUPT
00000FH   00000FH   000001H   BYTE   UNIT     CODE           ?PR?INT14?INTERRUPT
000010H   000010H   000001H   BYTE   UNIT     CODE           ?PR?INT15?INTERRUPT
000011H   000012H   000002H   ---    ---      **GAP**
000013H   000015H   000003H   BYTE   OFFS..   CODE           ?USERINTERRUPT?00013
000016H   00001AH   000005H   ---    ---      **GAP**
00001BH   00001DH   000003H   BYTE   OFFS..   CODE           ?USERINTERRUPT?0001B
00001EH   000022H   000005H   ---    ---      **GAP**
000023H   000025H   000003H   BYTE   OFFS..   CODE           ?INTERRUPT?00023
000026H   00002AH   000005H   ---    ---      **GAP**
00002BH   00002DH   000003H   BYTE   OFFS..   CODE           ?INTERRUPT?0002B
00002EH   000032H   000005H   ---    ---      **GAP**
000033H   000035H   000003H   BYTE   OFFS..   CODE           ?INTERRUPT?00033
000036H   00003AH   000005H   ---    ---      **GAP**
00003BH   00003DH   000003H   BYTE   OFFS..   CODE           ?USERINTERRUPT?0003B
00003EH   000042H   000005H   ---    ---      **GAP**
000043H   000045H   000003H   BYTE   OFFS..   CODE           ?INTERRUPT?00043
000046H   00004AH   000005H   ---    ---      **GAP**
00004BH   00004DH   000003H   BYTE   OFFS..   CODE           ?INTERRUPT?0004B
00004EH   000052H   000005H   ---    ---      **GAP**
000053H   000055H   000003H   BYTE   OFFS..   CODE           ?USERINTERRUPT?00053
000056H   00005AH   000005H   ---    ---      **GAP**
00005BH   00005DH   000003H   BYTE   OFFS..   CODE           ?INTERRUPT?0005B
00005EH   000062H   000005H   ---    ---      **GAP**
000063H   000065H   000003H   BYTE   OFFS..   CODE           ?USERINTERRUPT?00063
000066H   00006AH   000005H   ---    ---      **GAP**
00006BH   00006DH   000003H   BYTE   OFFS..   CODE           ?INTERRUPT?0006B
00006EH   000072H   000005H   ---    ---      **GAP**
000073H   000075H   000003H   BYTE   OFFS..   CODE           ?INTERRUPT?00073
000076H   00007AH   000005H   ---    ---      **GAP**
00007BH   00007DH   000003H   BYTE   OFFS..   CODE           ?INTERRUPT?0007B
00007EH   0009BEH   000941H   BYTE   UNIT     CODE           ?C?LIB_CODE
0009BFH   001044H   000686H   BYTE   UNIT     CODE           ?PR?DRYERPER1MS?USERDRYER
001045H   0014DFH   00049BH   BYTE   UNIT     CODE           ?PR?LOOPPROPER1MS?USERFRAME
0014E0H   0018B4H   0003D5H   BYTE   UNIT     CODE           ?PR?COMMANDPER10MS?USERFRAME
0018B5H   001B0DH   000259H   BYTE   UNIT     CODE           ?PR?TIM_1MS_INT?USERINTERRUPT
LX51 LINKER/LOCATER V4.66.100.0                                                       10/12/2023  14:31:55  PAGE 5


001B0EH   001D0DH   000200H   BYTE   UNIT     CODE           ?PR?REGULATION?USERADDFUNC
001D0EH   001EADH   0001A0H   BYTE   UNIT     CODE           ?PR?MC_CONTROL?FOCCONTROL
001EAEH   002010H   000163H   BYTE   UNIT     CODE           ?PR?SPEEDRESTRICTION?USERCALCULATE
002011H   002172H   000162H   BYTE   UNIT     CODE           ?PR?CHECKSTARTFAULT?USERADDFUNC
002173H   0022C0H   00014EH   BYTE   UNIT     CODE           ?PR?CHECKCURRENT?USERCALCULATE
0022C1H   0023EBH   00012BH   BYTE   UNIT     CODE           ?PR?FOC_INIT?FOCCONTROLFUNCTION
0023ECH   002512H   000127H   BYTE   UNIT     CODE           ?PR?CHECKSTALLFAULT?USERADDFUNC
002513H   002636H   000124H   BYTE   UNIT     CODE           ?PR?MAIN?USERMAIN
002637H   002753H   00011DH   BYTE   UNIT     CODE           ?PR?DRYERFLASHINIT?USERFLASH
002754H   00284EH   0000FBH   BYTE   UNIT     CODE           ?PR?MOTORCONTROLINIT?FOCCONTROLFUNCTION
00284FH   002934H   0000E6H   BYTE   UNIT     CODE           ?PR?MOTOR_CHARGE?FOCCONTROLFUNCTION
002935H   002A08H   0000D4H   BYTE   UNIT     CODE           ?PR?GETCURRENTOFFSET?FOCCONTROLFUNCTION
002A09H   002AD9H   0000D1H   BYTE   UNIT     CODE           ?PR?CHECKTEMPER?USERCALCULATE
002ADAH   002BAAH   0000D1H   BYTE   UNIT     CODE           ?PR?CHECKHEATTEMPER?USERCALCULATE
002BABH   002C59H   0000AFH   BYTE   UNIT     CODE           ?PR?MOTOR_OPEN?FOCCONTROLFUNCTION
002C5AH   002CF6H   00009DH   BYTE   UNIT     CODE           ?PR?CMP_ISR?USERINTERRUPT
002CF7H   002D8AH   000094H   BYTE   UNIT     CODE           ?PR?KEYINIT?KEYSCAN
002D8BH   002E16H   00008CH   BYTE   UNIT     CODE           ?PR?STARRAMPDEALWITH?ADDFUNCTION
002E17H   002EA2H   00008CH   BYTE   UNIT     CODE           ?C_C51STARTUP
002EA3H   002F28H   000086H   BYTE   UNIT     CODE           ?PR?FLASHLOOPPRO?USERFLASH
002F29H   002FA4H   00007CH   BYTE   UNIT     CODE           ?PR?MOTOR_ALIGN?FOCCONTROLFUNCTION
002FA5H   00301FH   00007BH   BYTE   UNIT     CODE           ?PR?EK_DEAL?USERADDFUNC
003020H   003097H   000078H   BYTE   UNIT     CODE           ?PR?VSPIBUSRAMP?USERFRAME
003098H   00310CH   000075H   BYTE   UNIT     CODE           ?PR?ADC_INIT?ADCINIT
00310DH   00317BH   00006FH   BYTE   UNIT     CODE           ?PR?_MDU_DIV_XDATA_U32?MDUINIT
00317CH   0031E0H   000065H   BYTE   UNIT     CODE           ?PR?VARIABLESPREINIT?FOCCONTROLFUNCTION
0031E1H   003244H   000064H   BYTE   UNIT     CODE           ?PR?VSPSPEEDRAMP?USERFRAME
003245H   0032A2H   00005EH   BYTE   UNIT     CODE           ?PR?FLASHEARSEANDWRITE?USERFLASH
0032A3H   003300H   00005EH   BYTE   UNIT     CODE           ?PR?_MDU_DIV_IDATA_U32?MDUINIT
003301H   00335CH   00005CH   BYTE   UNIT     CODE           ?PR?DRIVER_INIT?DRIVERINIT
00335DH   0033B4H   000058H   BYTE   UNIT     CODE           ?PR?CALALARMFLAG?USERFRAME
0033B5H   003406H   000052H   BYTE   UNIT     CODE           ?PR?GPIO_INIT?GPIOINIT
003407H   003452H   00004CH   BYTE   UNIT     CODE           ?PR?FOC_INT?USERINTERRUPT
003453H   00349DH   00004BH   BYTE   UNIT     CODE           ?PR?FLASHWRITEDATA?USERFLASH
00349EH   0034E8H   00004BH   BYTE   UNIT     CODE           ?PR?_VREFCONFIG?FU68XX_2_SYSTEM
0034E9H   00352AH   000042H   BYTE   UNIT     CODE           ?PR?FO_INT?USERINTERRUPT
00352BH   00356CH   000042H   BYTE   UNIT     CODE           ?PR?_GET1BYTEFROMFLASH?FLASH
00356DH   0035ABH   00003FH   BYTE   UNIT     CODE           ?PR?CMP3_INIT?CMPINIT
0035ACH   0035E6H   00003BH   BYTE   UNIT     CODE           ?PR?APP_DIV?ADDFUNCTION
0035E7H   00361DH   000037H   BYTE   UNIT     CODE           ?PR?SETFAULTRESATRT?USERADDFUNC
00361EH   003653H   000036H   BYTE   UNIT     CODE           ?PR?MOTOR_READY?FOCCONTROLFUNCTION
003654H   003689H   000036H   BYTE   UNIT     CODE           ?PR?FOCTAILWINDTIMELIMIT?FOCTAILDECT
00368AH   0036BDH   000034H   BYTE   UNIT     CODE           ?PR?_CALTEMPEROFFSET?USERCALCULATE
0036BEH   0036EFH   000032H   BYTE   UNIT     CODE           ?PR?_FLASH_SECTOR_ERASE?FU68XX_2_SYSTEM
0036F0H   003720H   000031H   BYTE   UNIT     CODE           ?PR?_FLASH_SECTOR_WRITE?FU68XX_2_SYSTEM
003721H   00374FH   00002FH   BYTE   UNIT     CODE           ?PR?USERPARAS?USERFRAME
003750H   00377CH   00002DH   BYTE   UNIT     CODE           ?PR?_LPFFUNCTION?ADDFUNCTION
00377DH   0037A9H   00002DH   BYTE   UNIT     CODE           ?PR?PI_INIT?PIINIT
0037AAH   0037D3H   00002AH   BYTE   UNIT     CODE           ?C_INITSEG
0037D4H   0037F8H   000025H   BYTE   UNIT     CODE           ?PR?CALSPEEDSTEPTOCMD?USERDRYER
0037F9H   00381CH   000024H   BYTE   UNIT     CODE           ?PR?ZEROCROSSING_INIT?EXTIINIT
00381DH   00383DH   000021H   BYTE   UNIT     CODE           ?PR?EXTERN_INT?USERINTERRUPT
00383EH   00385DH   000020H   BYTE   UNIT     CODE           ?PR?TIM3_INT?INTERRUPT
00385EH   00387DH   000020H   BYTE   UNIT     CODE           ?PR?CALHEATSTEPTOCMD?USERDRYER
00387EH   00389AH   00001DH   BYTE   UNIT     CODE           ?PR?TIM2_INT?INTERRUPT
00389BH   0038B7H   00001DH   BYTE   UNIT     CODE           ?PR?MOTOR_INIT?FOCCONTROLFUNCTION
0038B8H   0038D3H   00001CH   BYTE   UNIT     CODE           ?PR?SHUTPERFORM?USERADDFUNC
0038D4H   0038EEH   00001BH   BYTE   UNIT     CODE           ?PR?AMP_INIT?AMPINIT
0038EFH   003906H   000018H   BYTE   UNIT     CODE           ?PR?_IBUSPI?USERADDFUNC
003907H   003918H   000012H   BYTE   UNIT     CODE           ?PR?CMP3_INTER_INIT?CMPINIT
003919H   003926H   00000EH   BYTE   UNIT     CODE           ?PR?TIM1MS_INIT?TIMERINIT
003927H   003933H   00000DH   BYTE   UNIT     CODE           ?PR?DRYERKEYSDEFAULT?USERDRYER
003934H   00393FH   00000CH   BYTE   UNIT     CODE           ?PR?CANCLERESATRT?USERADDFUNC
003940H   00394AH   00000BH   BYTE   UNIT     CODE           ?PR?USART_INT?USERINTERRUPT
00394BH   003951H   000007H   BYTE   UNIT     CODE           ?PR?CALCOOLLVTOCMD?USERDRYER
LX51 LINKER/LOCATER V4.66.100.0                                                       10/12/2023  14:31:55  PAGE 6



* * * * * * * * * * *  X D A T A   M E M O R Y  * * * * * * * * * * * * *
000000H   0000E7H   0000E8H   BYTE   UNIT     XDATA          ?XD?ADDFUNCTION
0000E8H   000143H   00005CH   BYTE   UNIT     XDATA          ?XD?USERFRAME
000144H   00017CH   000039H   BYTE   UNIT     XDATA          ?XD?UARTINIT
00017DH   0001A8H   00002CH   BYTE   UNIT     XDATA          ?XD?RPD
0001A9H   0001CDH   000025H   BYTE   UNIT     XDATA          ?XD?EXTIINIT
0001CEH   0001EFH   000022H   BYTE   UNIT     XDATA          ?XD?USERCALCULATE
0001F0H   000211H   000022H   BYTE   UNIT     XDATA          ?XD?BEMFDETECT
000212H   00022AH   000019H   BYTE   UNIT     XDATA          ?XD?FOCTAILDECT
00022BH   000243H   000019H   BYTE   UNIT     XDATA          ?XD?KEYSCAN
000244H   00025AH   000017H   BYTE   UNIT     XDATA          ?XD?FOCCONTROLFUNCTION
00025BH   00026DH   000013H   BYTE   UNIT     XDATA          ?XD?USERUART
00026EH   00027FH   000012H   BYTE   UNIT     XDATA          ?XD?USERADDFUNC
000280H   00028DH   00000EH   BYTE   UNIT     XDATA          _XDATA_GROUP_
00028EH   000299H   00000CH   BYTE   UNIT     XDATA          ?XD?USERDRYER
00029AH   0002A4H   00000BH   BYTE   UNIT     XDATA          ?XD?USERSIGNAL
0002A5H   0002AFH   00000BH   BYTE   UNIT     XDATA          ?XD?USERFLASH
0002B0H   0002B9H   00000AH   BYTE   UNIT     XDATA          ?XD?INTERRUPT
0002BAH   0002C1H   000008H   BYTE   UNIT     XDATA          ?XD?LED
0002C2H   0002C5H   000004H   BYTE   UNIT     XDATA          ?XD?FOCCONTROL
0002C6H   0002C7H   000002H   BYTE   UNIT     XDATA          ?XD?USERMAIN
0002C8H   0002C9H   000002H   BYTE   UNIT     XDATA          ?XD?FLASH

* * * * * * * * *   R E M O V E D     S E G M E N T S   * * * * * * * *
   *DEL*:           000001H   BYTE   UNIT     CODE           ?PR?DEBUGSET?MAIN
   *DEL*:           000016H   BYTE   UNIT     CODE           ?PR?SOFTWAREINIT?MAIN
   *DEL*:           000019H   BYTE   UNIT     CODE           ?PR?HARDWAREINIT?MAIN
   *DEL*:           000052H   BYTE   UNIT     CODE           ?PR?OUTLOOPPARAMETERSET?ADDFUNCTION
   *DEL*:           000040H   BYTE   UNIT     CODE           ?PR?_KLPF_VALUE?ADDFUNCTION
   *DEL*:           000004H   BYTE   UNIT     XDATA          ?XD?_KLPF_VALUE?ADDFUNCTION
   *DEL*:           000014H   BYTE   UNIT     CODE           ?PR?FAULTPROCESS?ADDFUNCTION
   *DEL*:           000019H   BYTE   UNIT     CODE           ?PR?_ABS_F16?ADDFUNCTION
   *DEL*:           000040H   BYTE   UNIT     CODE           ?PR?_ABS_F32?ADDFUNCTION
   *DEL*:           000004H   BYTE   UNIT     XDATA          ?XD?_ABS_F32?ADDFUNCTION
   *DEL*:           0001EEH   BYTE   UNIT     CODE           ?PR?PWMINPUTCAPTURE?ADDFUNCTION
   *DEL*:           000002H   BYTE   UNIT     XDATA          ?XD?PWMINPUTCAPTURE?ADDFUNCTION
   *DEL*:           000308H   BYTE   UNIT     CODE           ?PR?_FAULT_OVERUNDERVOLTAGE?ADDFUNCTION
   *DEL*:           000003H   BYTE   UNIT     XDATA          ?XD?_FAULT_OVERUNDERVOLTAGE?ADDFUNCTION
   *DEL*:           00005DH   BYTE   UNIT     CODE           ?PR?_FAULT_POWER?ADDFUNCTION
   *DEL*:           0001D3H   BYTE   UNIT     CODE           ?PR?_FAULT_TEMPERATURE?ADDFUNCTION
   *DEL*:           000003H   BYTE   UNIT     XDATA          ?XD?_FAULT_TEMPERATURE?ADDFUNCTION
   *DEL*:           000121H   BYTE   UNIT     CODE           ?PR?_FAULT_OVERCURRENT?ADDFUNCTION
   *DEL*:           000056H   BYTE   UNIT     CODE           ?PR?_FAULT_OVERCURRENTRECOVER?ADDFUNCTION
   *DEL*:           000050H   BYTE   UNIT     CODE           ?PR?_FAULT_OVERPOWERRECOVER?ADDFUNCTION
   *DEL*:           000130H   BYTE   UNIT     CODE           ?PR?_FAULT_START?ADDFUNCTION
   *DEL*:           0000FEH   BYTE   UNIT     CODE           ?PR?_FAULT_STALL?ADDFUNCTION
   *DEL*:           000006H   BYTE   UNIT     XDATA          ?XD?_FAULT_STALL?ADDFUNCTION
   *DEL*:           0001EEH   BYTE   UNIT     CODE           ?PR?_FAULT_PHASELOSS?ADDFUNCTION
   *DEL*:           000087H   BYTE   UNIT     CODE           ?PR?FAULT_DETECTION?ADDFUNCTION
   *DEL*:           0000DCH   BYTE   UNIT     CODE           ?PR?_ONOFF_STARTTEST?ADDFUNCTION
   *DEL*:           000003H   BYTE   UNIT     XDATA          ?XD?_ONOFF_STARTTEST?ADDFUNCTION
   *DEL*:           000133H   BYTE   UNIT     CODE           ?PR?SPEED_RESPONSE?ADDFUNCTION
   *DEL*:           000076H   BYTE   UNIT     CODE           ?PR?FGOUTPUT?ADDFUNCTION
   *DEL*:           000089H   BYTE   UNIT     CODE           ?PR?_SOFTLPF?ADDFUNCTION
   *DEL*:           00000CH   BYTE   UNIT     XDATA          ?XD?_SOFTLPF?ADDFUNCTION
   *DEL*:           000085H   BYTE   UNIT     CODE           ?PR?LED_DISPLAY?ADDFUNCTION
   *DEL*:           0000B4H   BYTE   UNIT     CODE           ?PR?_LED_ONOFF?ADDFUNCTION
   *DEL*:           000001H   BYTE   UNIT     XDATA          ?XD?_LED_ONOFF?ADDFUNCTION
   *DEL*:           000117H   BYTE   UNIT     CODE           ?PR?_MC_RAMP?ADDFUNCTION
   *DEL*:           000003H   BYTE   UNIT     XDATA          ?XD?_MC_RAMP?ADDFUNCTION
   *DEL*:           000019H   BYTE   UNIT     CODE           ?PR?_HW_ONE_PI?ADDFUNCTION
   *DEL*:           000078H   BYTE   UNIT     CODE           ?PR?_HW_PI_CONTROL?ADDFUNCTION
   *DEL*:           00006BH   BYTE   UNIT     CODE           ?PR?SLEEPMODE?ADDFUNCTION
   *DEL*:           000001H   BYTE   UNIT     CODE           ?PR?CALMAXRPM?USERCALCULATE
LX51 LINKER/LOCATER V4.66.100.0                                                       10/12/2023  14:31:55  PAGE 7


   *DEL*:           000001H   BYTE   UNIT     CODE           ?PR?CALCVSPREF?USERCALCULATE
   *DEL*:           000001H   BYTE   UNIT     CODE           ?PR?LEDFAULTSPARK?USERSIGNAL
   *DEL*:           000012H   BYTE   UNIT     CODE           ?PR?UARTDATAINIT?USERUART
   *DEL*:           000061H   BYTE   UNIT     CODE           ?PR?UARTGETDATA?USERUART
   *DEL*:           000041H   BYTE   UNIT     CODE           ?PR?UARTSETDATA?USERUART
   *DEL*:           000100H   BYTE   UNIT     CODE           ?PR?UARTPER1MS?USERUART
   *DEL*:           00013FH   BYTE   UNIT     CODE           ?PR?MOTOR_PLLSTART?FOCCONTROLFUNCTION
   *DEL*:           00001CH   BYTE   UNIT     CODE           ?PR?MOTOR_TAILWIND?FOCCONTROLFUNCTION
   *DEL*:           000010H   BYTE   UNIT     CODE           ?PR?MC_STOP?FOCCONTROLFUNCTION
   *DEL*:           000035H   BYTE   UNIT     CODE           ?PR?BEMFDETECTINIT?BEMFDETECT
   *DEL*:           00003EH   BYTE   UNIT     CODE           ?PR?CMP_BMEF_INIT?BEMFDETECT
   *DEL*:           00002EH   BYTE   UNIT     CODE           ?PR?TIME2_BMEF_INIT?BEMFDETECT
   *DEL*:           000019H   BYTE   UNIT     CODE           ?PR?GETBEMFSTATUS?BEMFDETECT
   *DEL*:           0000B6H   BYTE   UNIT     CODE           ?PR?_CWCCWDETECT?BEMFDETECT
   *DEL*:           000106H   BYTE   UNIT     CODE           ?PR?BEMFSPEEDDETECT?BEMFDETECT
   *DEL*:           00001FH   BYTE   UNIT     CODE           ?PR?BEMFSPEEDCAL?BEMFDETECT
   *DEL*:           000057H   BYTE   UNIT     CODE           ?PR?BEMFDETECTFUNC?BEMFDETECT
   *DEL*:           00010FH   BYTE   UNIT     CODE           ?PR?BEMFDEALWITH?BEMFDETECT
   *DEL*:           000117H   BYTE   UNIT     CODE           ?PR?BEMFFOCCLOSELOOPSTART?BEMFDETECT
   *DEL*:           000068H   BYTE   UNIT     CODE           ?PR?TAILWINDDETECTINIT?FOCTAILDECT
   *DEL*:           00011AH   BYTE   UNIT     CODE           ?PR?TAILWINDSPEEDDETECT?FOCTAILDECT
   *DEL*:           000114H   BYTE   UNIT     CODE           ?PR?FOCCLOSELOOPSTART?FOCTAILDECT
   *DEL*:           000004H   BYTE   UNIT     CODE           ?PR?FOCTAILWINDDEALWITH?FOCTAILDECT
   *DEL*:           00014AH   BYTE   UNIT     CODE           ?PR?SMO_TAILWINDDEALWITH?FOCTAILDECT
   *DEL*:           000116H   BYTE   UNIT     CODE           ?PR?PLL_TAILWINDDEALWITH?FOCTAILDECT
   *DEL*:           0000BCH   BYTE   UNIT     CODE           ?PR?RPD_INIT?RPD
   *DEL*:           000026H   BYTE   UNIT     CODE           ?PR?TIME2_RPD_INIT?RPD
   *DEL*:           0000D2H   BYTE   UNIT     CODE           ?PR?RPD?RPD
   *DEL*:           000040H   BYTE   UNIT     CODE           ?PR?RSDDETECTINIT?RSDDETECT
   *DEL*:           00002FH   BYTE   UNIT     CODE           ?PR?CMP_RSD_INIT?RSDDETECT
   *DEL*:           00002EH   BYTE   UNIT     CODE           ?PR?TIME2_RSD_INIT?RSDDETECT
   *DEL*:           0000F3H   BYTE   UNIT     CODE           ?PR?RSDFRDETECT?RSDDETECT
   *DEL*:           00019BH   BYTE   UNIT     CODE           ?PR?RSDDEALWITH?RSDDETECT
   *DEL*:           000170H   BYTE   UNIT     CODE           ?PR?RSDFOCCLOSELOOPSTART?RSDDETECT
   *DEL*:           00014CH   BYTE   UNIT     CODE           ?PR?KEYVALUE?KEYSCAN
   *DEL*:           000018H   BYTE   UNIT     CODE           ?PR?KEYSCAN?KEYSCAN
   *DEL*:           000001H   BYTE   UNIT     CODE           ?PR?LEDCONTROL?LED
   *DEL*:           000073H   BYTE   UNIT     CODE           ?PR?MOTOR_EN?LED
   *DEL*:           00001CH   BYTE   UNIT     CODE           ?PR?KEYCONTROL?LED
   *DEL*:           000106H   BYTE   UNIT     CODE           ?PR?_WRITE2BYTE2FLASH?FLASH
   *DEL*:           000007H   BYTE   UNIT     XDATA          ?XD?_WRITE2BYTE2FLASH?FLASH
   *DEL*:           00006FH   BYTE   UNIT     CODE           ?PR?_WRITE1BYTE2FLASH?FLASH
   *DEL*:           000004H   BYTE   UNIT     XDATA          ?XD?_WRITE1BYTE2FLASH?FLASH
   *DEL*:           000019H   BYTE   UNIT     CODE           ?PR?EXTI_INIT?EXTIINIT
   *DEL*:           00001DH   BYTE   UNIT     CODE           ?PR?SLEEPMODE_INIT?EXTIINIT
   *DEL*:           00007CH   BYTE   UNIT     CODE           ?PR?TEMPERATUREPID?EXTIINIT
   *DEL*:           0000A9H   BYTE   UNIT     CODE           ?PR?TEMPAVERAGE?EXTIINIT
   *DEL*:           000001H   BYTE   UNIT     XDATA          ?XD?TEMPAVERAGE?EXTIINIT
   *DEL*:           000014H   BYTE   UNIT     CODE           ?PR?_GET_GCD?EXTIINIT
   *DEL*:           000042H   BYTE   UNIT     CONST          ?CO?EXTIINIT
   *DEL*:           000037H   BYTE   UNIT     CODE           ?PR?SPI_INIT?SPIINIT
   *DEL*:           000059H   BYTE   UNIT     CODE           ?PR?_SPI_SENDDATA?SPIINIT
   *DEL*:           000001H   BYTE   UNIT     CODE           ?PR?TIM0_INIT?TIMERINIT
   *DEL*:           000001H   BYTE   UNIT     CODE           ?PR?TIM1_INIT?TIMERINIT
   *DEL*:           000030H   BYTE   UNIT     CODE           ?PR?TIM2_INIT?TIMERINIT
   *DEL*:           000044H   BYTE   UNIT     CODE           ?PR?TIM3_INIT?TIMERINIT
   *DEL*:           000040H   BYTE   UNIT     CODE           ?PR?TIM4_INIT?TIMERINIT
   *DEL*:           00002AH   BYTE   UNIT     CODE           ?PR?GPIO_DEFAULT_INIT?GPIOINIT
   *DEL*:           000048H   BYTE   UNIT     CODE           ?PR?_MDU_DIV_XDATA_U16?MDUINIT
   *DEL*:           000002H   BYTE   UNIT     XDATA          ?XD?_MDU_DIV_XDATA_U16?MDUINIT
   *DEL*:           00003CH   BYTE   UNIT     CODE           ?PR?_MDU_DIV_IDATA_U16?MDUINIT
   *DEL*:           000002H   BYTE   UNIT     XDATA          ?XD?_MDU_DIV_IDATA_U16?MDUINIT
   *DEL*:           000030H   BYTE   UNIT     CODE           ?PR?_MDU_16MUL16_INT?MDUINIT
   *DEL*:           000032H   BYTE   UNIT     CODE           ?PR?_MDU_MUL_XDATA_U32?MDUINIT
   *DEL*:           000064H   BYTE   UNIT     CODE           ?PR?_MDU_MUL_XDATA_RIGHT_U32?MDUINIT
LX51 LINKER/LOCATER V4.66.100.0                                                       10/12/2023  14:31:55  PAGE 8


   *DEL*:           000007H   BYTE   UNIT     XDATA          ?XD?_MDU_MUL_XDATA_RIGHT_U32?MDUINIT
   *DEL*:           000022H   BYTE   UNIT     CODE           ?PR?_MDU_MUL_XDATA_U16?MDUINIT
   *DEL*:           000025H   BYTE   UNIT     CODE           ?PR?_MDU_MUL_IDATA_U32?MDUINIT
   *DEL*:           000022H   BYTE   UNIT     CODE           ?PR?UART_INIT?UARTINIT
   *DEL*:           000063H   BYTE   UNIT     CODE           ?PR?_UARTTXDATE?UARTINIT
   *DEL*:           000009H   BYTE   UNIT     XDATA          ?XD?_UARTTXDATE?UARTINIT
   *DEL*:           00000EH   BYTE   UNIT     CODE           ?PR?_UART_SENDDATA?UARTINIT
   *DEL*:           000001H   BYTE   UNIT     CODE           ?PR?UARTDEALRESPONSE?UARTINIT
   *DEL*:           000103H   BYTE   UNIT     CODE           ?PR?UARTDEALCOMM?UARTINIT
   *DEL*:           000004H   BYTE   UNIT     XDATA          ?XD?UARTDEALCOMM?UARTINIT
   *DEL*:           000017H   BYTE   UNIT     CODE           ?PR?VHALFCONFIG?FU68XX_2_SYSTEM
   *DEL*:           000000H.1 BIT    UNIT     BIT            ?BI?VHALFCONFIG?FU68XX_2_SYSTEM
   *DEL*:           00003EH   BYTE   UNIT     CODE           ?PR?_WATCHDOGCONFIG?FU68XX_2_SYSTEM
   *DEL*:           000000H.1 BIT    UNIT     BIT            ?BI?_WATCHDOGCONFIG?FU68XX_2_SYSTEM
   *DEL*:           000008H   BYTE   UNIT     CODE           ?PR?WATCHDOGREFRESH?FU68XX_2_SYSTEM
   *DEL*:           000007H   BYTE   UNIT     CODE           ?PR?_INIT_DMA?FU68XX_2_DMA
   *DEL*:           000072H   BYTE   UNIT     CODE           ?PR?_SET_DMA?FU68XX_2_DMA
   *DEL*:           000006H   BYTE   UNIT     XDATA          ?XD?_SET_DMA?FU68XX_2_DMA
   *DEL*:           000033H   BYTE   UNIT     CODE           ?PR?_SET_DBG_DMA?FU68XX_2_DMA
   *DEL*:           00001EH   BYTE   UNIT     CODE           ?PR?RPD_0_VWINIT?FU68XX_2_OTHER
   *DEL*:           00001EH   BYTE   UNIT     CODE           ?PR?RPD_1_WVINIT?FU68XX_2_OTHER
   *DEL*:           00001EH   BYTE   UNIT     CODE           ?PR?RPD_2_UVINIT?FU68XX_2_OTHER
   *DEL*:           00001EH   BYTE   UNIT     CODE           ?PR?RPD_3_VUINIT?FU68XX_2_OTHER
   *DEL*:           00001EH   BYTE   UNIT     CODE           ?PR?RPD_4_WUINIT?FU68XX_2_OTHER
   *DEL*:           00001EH   BYTE   UNIT     CODE           ?PR?RPD_5_UWINIT?FU68XX_2_OTHER
   *DEL*:           00007DH   BYTE   UNIT     CODE           ?PR?RPD_INJECT?FU68XX_2_OTHER
   *DEL*:           000174H   BYTE   UNIT     CODE           ?PR?RPD_DETECT?FU68XX_2_OTHER
   *DEL*:           000084H   BYTE   UNIT     CODE           ?PR?RSDCLOSEDEAL?FU68XX_2_OTHER



OVERLAY MAP OF MODULE:   .\Output\FOC_Fortior (MAIN)


FUNCTION/MODULE                             BIT_GROUP   XDATA_GROUP
--> CALLED FUNCTION/MODULE                 START  STOP  START  STOP
===================================================================
TIM2_INT/INTERRUPT                         ----- -----  ----- -----

*** NEW ROOT *****************************

TIM3_INT/INTERRUPT                         ----- -----  ----- -----

*** NEW ROOT *****************************

INT0/INTERRUPT                             ----- -----  ----- -----

*** NEW ROOT *****************************

INT5/INTERRUPT                             ----- -----  ----- -----

*** NEW ROOT *****************************

INT6/INTERRUPT                             ----- -----  ----- -----

*** NEW ROOT *****************************

INT8/INTERRUPT                             ----- -----  ----- -----

*** NEW ROOT *****************************

INT11/INTERRUPT                            ----- -----  ----- -----

*** NEW ROOT *****************************

LX51 LINKER/LOCATER V4.66.100.0                                                       10/12/2023  14:31:55  PAGE 9


INT13/INTERRUPT                            ----- -----  ----- -----

*** NEW ROOT *****************************

INT14/INTERRUPT                            ----- -----  ----- -----

*** NEW ROOT *****************************

INT15/INTERRUPT                            ----- -----  ----- -----

*** NEW ROOT *****************************

FO_INT/USERINTERRUPT                       ----- -----  ----- -----
  +--> SHUTPERFORM/USERADDFUNC
  +--> SETFAULTRESATRT/USERADDFUNC

SHUTPERFORM/USERADDFUNC                    ----- -----  ----- -----

SETFAULTRESATRT/USERADDFUNC                ----- -----  ----- -----
  +--> CANCLERESATRT/USERADDFUNC

CANCLERESATRT/USERADDFUNC                  ----- -----  ----- -----

*** NEW ROOT *****************************

EXTERN_INT/USERINTERRUPT                   ----- -----  ----- -----

*** NEW ROOT *****************************

FOC_INT/USERINTERRUPT                      ----- -----  ----- -----
  +--> APP_DIV/ADDFUNCTION
  +--> CHECKCURRENT/USERCALCULATE

APP_DIV/ADDFUNCTION                        ----- -----  ----- -----
  +--> _MDU_DIV_IDATA_U32/MDUINIT
  +--> _MDU_DIV_XDATA_U32/MDUINIT

_MDU_DIV_IDATA_U32/MDUINIT                 ----- -----  0280H 0283H

_MDU_DIV_XDATA_U32/MDUINIT                 ----- -----  0280H 0283H

CHECKCURRENT/USERCALCULATE                 ----- -----  ----- -----
  +--> SHUTPERFORM/USERADDFUNC
  +--> SETFAULTRESATRT/USERADDFUNC

*** NEW ROOT *****************************

CMP_ISR/USERINTERRUPT                      ----- -----  ----- -----
  +--> SHUTPERFORM/USERADDFUNC
  +--> SETFAULTRESATRT/USERADDFUNC

*** NEW ROOT *****************************

TIM_1MS_INT/USERINTERRUPT                  ----- -----  ----- -----
  +--> _LPFFUNCTION/ADDFUNCTION
  +--> STARRAMPDEALWITH/ADDFUNCTION
  +--> FOCTAILWINDTIMELIMIT/FOCTAILDECT

_LPFFUNCTION/ADDFUNCTION                   ----- -----  0284H 0285H

STARRAMPDEALWITH/ADDFUNCTION               ----- -----  ----- -----

FOCTAILWINDTIMELIMIT/FOCTAILDECT           ----- -----  ----- -----

*** NEW ROOT *****************************
LX51 LINKER/LOCATER V4.66.100.0                                                       10/12/2023  14:31:55  PAGE 10



USART_INT/USERINTERRUPT                    ----- -----  ----- -----

*** NEW ROOT *****************************

?C_C51STARTUP                              ----- -----  ----- -----
  +--> MAIN/USERMAIN
  +--> ?C_INITSEG

MAIN/USERMAIN                              ----- -----  ----- -----
  +--> MOTORCONTROLINIT/FOCCONTROLFUNCTION
  +--> KEYINIT/KEYSCAN
  +--> DRYERFLASHINIT/USERFLASH
  +--> CALSPEEDSTEPTOCMD/USERDRYER
  +--> CALHEATSTEPTOCMD/USERDRYER
  +--> CALCOOLLVTOCMD/USERDRYER
  +--> CMP3_INIT/CMPINIT
  +--> GPIO_INIT/GPIOINIT
  +--> AMP_INIT/AMPINIT
  +--> ADC_INIT/ADCINIT
  +--> CMP3_INTER_INIT/CMPINIT
  +--> DRIVER_INIT/DRIVERINIT
  +--> ZEROCROSSING_INIT/EXTIINIT
  +--> USERPARAS/USERFRAME
  +--> TIM1MS_INIT/TIMERINIT
  +--> GETCURRENTOFFSET/FOCCONTROLFUNCTION
  +--> LOOPPROPER1MS/USERFRAME
  +--> DRYERPER1MS/USERDRYER
  +--> COMMANDPER10MS/USERFRAME
  +--> MC_CONTROL/FOCCONTROL
  +--> REGULATION/USERADDFUNC
  +--> FLASHLOOPPRO/USERFLASH

MOTORCONTROLINIT/FOCCONTROLFUNCTION        ----- -----  ----- -----

KEYINIT/KEYSCAN                            ----- -----  ----- -----
  +--> _GET1BYTEFROMFLASH/FLASH

_GET1BYTEFROMFLASH/FLASH                   ----- -----  ----- -----

DRYERFLASHINIT/USERFLASH                   ----- -----  0286H 0286H
  +--> DRYERKEYSDEFAULT/USERDRYER
  +--> FLASHEARSEANDWRITE/USERFLASH

DRYERKEYSDEFAULT/USERDRYER                 ----- -----  ----- -----

FLASHEARSEANDWRITE/USERFLASH               ----- -----  ----- -----
  +--> _FLASH_SECTOR_ERASE/FU68XX_2_SYSTEM
  +--> _FLASH_SECTOR_WRITE/FU68XX_2_SYSTEM

_FLASH_SECTOR_ERASE/FU68XX_2_SYSTEM        21H.7 21H.7  ----- -----

_FLASH_SECTOR_WRITE/FU68XX_2_SYSTEM        21H.7 21H.7  ----- -----

CALSPEEDSTEPTOCMD/USERDRYER                ----- -----  ----- -----

CALHEATSTEPTOCMD/USERDRYER                 ----- -----  ----- -----

CALCOOLLVTOCMD/USERDRYER                   ----- -----  ----- -----

CMP3_INIT/CMPINIT                          ----- -----  ----- -----

GPIO_INIT/GPIOINIT                         ----- -----  ----- -----

AMP_INIT/AMPINIT                           ----- -----  ----- -----
LX51 LINKER/LOCATER V4.66.100.0                                                       10/12/2023  14:31:55  PAGE 11



ADC_INIT/ADCINIT                           ----- -----  ----- -----
  +--> _VREFCONFIG/FU68XX_2_SYSTEM

_VREFCONFIG/FU68XX_2_SYSTEM                21H.7 21H.7  ----- -----

CMP3_INTER_INIT/CMPINIT                    ----- -----  ----- -----

DRIVER_INIT/DRIVERINIT                     ----- -----  ----- -----

ZEROCROSSING_INIT/EXTIINIT                 ----- -----  ----- -----

USERPARAS/USERFRAME                        ----- -----  ----- -----

TIM1MS_INIT/TIMERINIT                      ----- -----  ----- -----

GETCURRENTOFFSET/FOCCONTROLFUNCTION        ----- -----  ----- -----

LOOPPROPER1MS/USERFRAME                    ----- -----  ----- -----
  +--> SHUTPERFORM/USERADDFUNC
  +--> SETFAULTRESATRT/USERADDFUNC
  +--> CHECKCURRENT/USERCALCULATE
  +--> CHECKSTARTFAULT/USERADDFUNC
  +--> CHECKSTALLFAULT/USERADDFUNC
  +--> VSPIBUSRAMP/USERFRAME
  +--> VSPSPEEDRAMP/USERFRAME
  +--> CANCLERESATRT/USERADDFUNC
  +--> CHECKTEMPER/USERCALCULATE
  +--> CHECKHEATTEMPER/USERCALCULATE
  +--> SPEEDRESTRICTION/USERCALCULATE

CHECKSTARTFAULT/USERADDFUNC                ----- -----  ----- -----
  +--> SHUTPERFORM/USERADDFUNC
  +--> SETFAULTRESATRT/USERADDFUNC

CHECKSTALLFAULT/USERADDFUNC                ----- -----  ----- -----
  +--> SHUTPERFORM/USERADDFUNC
  +--> SETFAULTRESATRT/USERADDFUNC

VSPIBUSRAMP/USERFRAME                      ----- -----  ----- -----

VSPSPEEDRAMP/USERFRAME                     ----- -----  ----- -----

CHECKTEMPER/USERCALCULATE                  ----- -----  ----- -----
  +--> _CALTEMPEROFFSET/USERCALCULATE

_CALTEMPEROFFSET/USERCALCULATE             ----- -----  0286H 028DH

CHECKHEATTEMPER/USERCALCULATE              ----- -----  ----- -----
  +--> _CALTEMPEROFFSET/USERCALCULATE

SPEEDRESTRICTION/USERCALCULATE             ----- -----  ----- -----
  +--> SHUTPERFORM/USERADDFUNC
  +--> SETFAULTRESATRT/USERADDFUNC

DRYERPER1MS/USERDRYER                      ----- -----  ----- -----
  +--> CALSPEEDSTEPTOCMD/USERDRYER
  +--> CALHEATSTEPTOCMD/USERDRYER

COMMANDPER10MS/USERFRAME                   ----- -----  ----- -----
  +--> CALALARMFLAG/USERFRAME

CALALARMFLAG/USERFRAME                     ----- -----  ----- -----

MC_CONTROL/FOCCONTROL                      ----- -----  ----- -----
LX51 LINKER/LOCATER V4.66.100.0                                                       10/12/2023  14:31:55  PAGE 12


  +--> MOTOR_READY/FOCCONTROLFUNCTION
  +--> MOTOR_INIT/FOCCONTROLFUNCTION
  +--> MOTOR_CHARGE/FOCCONTROLFUNCTION
  +--> MOTOR_ALIGN/FOCCONTROLFUNCTION
  +--> MOTOR_OPEN/FOCCONTROLFUNCTION

MOTOR_READY/FOCCONTROLFUNCTION             ----- -----  ----- -----

MOTOR_INIT/FOCCONTROLFUNCTION              ----- -----  ----- -----
  +--> VARIABLESPREINIT/FOCCONTROLFUNCTION
  +--> PI_INIT/PIINIT

VARIABLESPREINIT/FOCCONTROLFUNCTION        ----- -----  ----- -----

PI_INIT/PIINIT                             ----- -----  ----- -----

MOTOR_CHARGE/FOCCONTROLFUNCTION            ----- -----  ----- -----

MOTOR_ALIGN/FOCCONTROLFUNCTION             ----- -----  ----- -----
  +--> FOC_INIT/FOCCONTROLFUNCTION

FOC_INIT/FOCCONTROLFUNCTION                ----- -----  ----- -----

MOTOR_OPEN/FOCCONTROLFUNCTION              ----- -----  ----- -----

REGULATION/USERADDFUNC                     ----- -----  ----- -----
  +--> _IBUSPI/USERADDFUNC
  +--> EK_DEAL/USERADDFUNC

_IBUSPI/USERADDFUNC                        ----- -----  ----- -----

EK_DEAL/USERADDFUNC                        ----- -----  ----- -----

FLASHLOOPPRO/USERFLASH                     ----- -----  ----- -----
  +--> FLASHEARSEANDWRITE/USERFLASH
  +--> FLASHWRITEDATA/USERFLASH

FLASHWRITEDATA/USERFLASH                   ----- -----  ----- -----
  +--> _FLASH_SECTOR_WRITE/FU68XX_2_SYSTEM

?C_INITSEG                                 ----- -----  ----- -----



PUBLIC SYMBOLS OF MODULE:  .\Output\FOC_Fortior (MAIN)


      VALUE       CLASS    TYPE      PUBLIC SYMBOL NAME
      =================================================
      02000286H   XDATA    BYTE      ?_CalTemperOffset?BYTE
*DEL*:00000000H   XDATA    BYTE      ?_Fault_Stall?BYTE
*DEL*:00000000H   XDATA    BYTE      ?_MDU_MUL_XDATA_RIGHT_U32?BYTE
*DEL*:00000000H   XDATA    BYTE      ?_Set_DMA?BYTE
      00000021H.7 BIT      BIT       ?_VREFConfig?BIT
*DEL*:00000000H.0 BIT      BIT       ?_WatchDogConfig?BIT
      010003D3H   CODE     ---       ?C?CASTF
      010004BCH   CODE     ---       ?C?CILDOPTR
      0100049AH   CODE     ---       ?C?CILDPTR
      0100046DH   CODE     ---       ?C?CLDOPTR
      01000454H   CODE     ---       ?C?CLDPTR
      00000000H   NUMBER   ---       ?C?CODESEG
      01000501H   CODE     ---       ?C?CSTOPTR
      010004EFH   CODE     ---       ?C?CSTPTR
      0100039FH   CODE     ---       ?C?FCASTC
      0100039AH   CODE     ---       ?C?FCASTI
LX51 LINKER/LOCATER V4.66.100.0                                                       10/12/2023  14:31:55  PAGE 13


      01000395H   CODE     ---       ?C?FCASTL
      01000085H   CODE     ---       ?C?FPADD
      0100031EH   CODE     ---       ?C?FPCMP
      0100031CH   CODE     ---       ?C?FPCMP3
      0100027FH   CODE     ---       ?C?FPDIV
      0100040AH   CODE     ---       ?C?FPGETOPN2
      01000176H   CODE     ---       ?C?FPMUL
      0100043FH   CODE     ---       ?C?FPNANRESULT
      01000449H   CODE     ---       ?C?FPOVERFLOW
      01000421H   CODE     ---       ?C?FPRESULT
      01000435H   CODE     ---       ?C?FPRESULT2
      01000081H   CODE     ---       ?C?FPSUB
      01000446H   CODE     ---       ?C?FPUNDERFLOW
      01000651H   CODE     ---       ?C?IILDOPTR
      01000619H   CODE     ---       ?C?IILDPTR
      0100058AH   CODE     ---       ?C?IILDX
      010005A0H   CODE     ---       ?C?ILDIX
      010005E1H   CODE     ---       ?C?ILDOPTR
      010005B6H   CODE     ---       ?C?ILDPTR
      01000523H   CODE     ---       ?C?IMUL
      010006BDH   CODE     ---       ?C?ISTOPTR
      0100069EH   CODE     ---       ?C?ISTPTR
      01000932H   CODE     ---       ?C?LIMUL
      010009A3H   CODE     ---       ?C?LLDCODE
      010008B7H   CODE     ---       ?C?LLDIDATA
      010008C3H   CODE     ---       ?C?LLDIDATA0
      01000863H   CODE     ---       ?C?LLDOPTR
      01000997H   CODE     ---       ?C?LLDPDATA
      0100098BH   CODE     ---       ?C?LLDXDATA
      010006EAH   CODE     ---       ?C?LMUL
      01000807H   CODE     ---       ?C?LNEG
      010008D0H   CODE     ---       ?C?LSTIDATA
      010008E8H   CODE     ---       ?C?LSTKIDATA
      01000901H   CODE     ---       ?C?LSTKXDATA
      01000893H   CODE     ---       ?C?LSTOPTR
      010009B3H   CODE     ---       ?C?LSTPDATA
      010008DCH   CODE     ---       ?C?LSTXDATA
      0100095FH   CODE     ---       ?C?MEMSET
      01000815H   CODE     ---       ?C?SLCMP
      0100084FH   CODE     ---       ?C?SLSHR
      01000535H   CODE     ---       ?C?UIDIV
      0100082BH   CODE     ---       ?C?ULCMP
      01000775H   CODE     ---       ?C?ULDIV
      0100083CH   CODE     ---       ?C?ULSHR
      00000000H   NUMBER   ---       ?C?XDATASEG
      01002E5EH   CODE     ---       ?C_START
      01000000H   CODE     ---       ?C_STARTUP
*DEL*:00000000H.0 BIT      BIT       ?VHALFConfig?BIT
*DEL*:00000000H   CODE     ---       _Abs_F16
*DEL*:00000000H   CODE     ---       _Abs_F32
      0100368AH   CODE     ---       _CalTemperOffset
*DEL*:00000000H   CODE     ---       _CWCCWDetect
*DEL*:00000000H   CODE     ---       _Fault_Overcurrent
*DEL*:00000000H   CODE     ---       _Fault_OverCurrentRecover
*DEL*:00000000H   CODE     ---       _Fault_OverPowerRecover
*DEL*:00000000H   CODE     ---       _Fault_OverUnderVoltage
*DEL*:00000000H   CODE     ---       _Fault_phaseloss
*DEL*:00000000H   CODE     ---       _Fault_Power
*DEL*:00000000H   CODE     ---       _Fault_Stall
*DEL*:00000000H   CODE     ---       _Fault_Start
*DEL*:00000000H   CODE     ---       _Fault_Temperature
      010036BEH   CODE     ---       _Flash_Sector_Erase
      010036F0H   CODE     ---       _Flash_Sector_Write
      0100352BH   CODE     ---       _Get1ByteFromFlash
*DEL*:00000000H   CODE     ---       _Get_Gcd
LX51 LINKER/LOCATER V4.66.100.0                                                       10/12/2023  14:31:55  PAGE 14


*DEL*:00000000H   CODE     ---       _HW_One_PI
*DEL*:00000000H   CODE     ---       _HW_PI_Control
      010038EFH   CODE     ---       _IBusPI
*DEL*:00000000H   CODE     ---       _Init_DMA
*DEL*:00000000H   CODE     ---       _KLPF_VALUE
*DEL*:00000000H   CODE     ---       _Led_OnOff
      01003750H   CODE     ---       _LPFFunction
*DEL*:00000000H   CODE     ---       _mc_ramp
*DEL*:00000000H   CODE     ---       _MDU_16MUL16_INT
*DEL*:00000000H   CODE     ---       _MDU_DIV_IDATA_U16
      010032A3H   CODE     ---       _MDU_DIV_IDATA_U32
*DEL*:00000000H   CODE     ---       _MDU_DIV_XDATA_U16
      0100310DH   CODE     ---       _MDU_DIV_XDATA_U32
*DEL*:00000000H   CODE     ---       _MDU_MUL_IDATA_U32
*DEL*:00000000H   CODE     ---       _MDU_MUL_XDATA_RIGHT_U32
*DEL*:00000000H   CODE     ---       _MDU_MUL_XDATA_U16
*DEL*:00000000H   CODE     ---       _MDU_MUL_XDATA_U32
*DEL*:00000000H   CODE     ---       _ONOFF_Starttest
*DEL*:00000000H   CODE     ---       _Set_DBG_DMA
*DEL*:00000000H   CODE     ---       _Set_DMA
*DEL*:00000000H   CODE     ---       _SoftLPF
*DEL*:00000000H   CODE     ---       _SPI_SendData
*DEL*:00000000H   CODE     ---       _UART_SendData
*DEL*:00000000H   CODE     ---       _UartTxdate
      0100349EH   CODE     ---       _VREFConfig
*DEL*:00000000H   CODE     ---       _WatchDogConfig
*DEL*:00000000H   CODE     ---       _Write1Byte2Flash
*DEL*:00000000H   CODE     ---       _Write2Byte2Flash
*SFR* 000000D0H.6 DATA     BIT       AC
      000000A4H   IDATA    BYTE      ACCrossForThryrist
      01003098H   CODE     ---       ADC_Init
      020000DEH   XDATA    ---       AdcSampleValue
      00000052H   IDATA    BYTE      AlarmFlag
      00000035H   IDATA    BYTE      AlarmFlag2
      0000004EH   IDATA    BYTE      AlarmHardBeark
      00000051H   IDATA    BYTE      AlarmHighSpeed
      0000004FH   IDATA    BYTE      AlarmHighTemper
      00000033H   IDATA    BYTE      AlarmHighVolt
      0000004AH   IDATA    BYTE      AlarmLowVolt
      00000059H   IDATA    BYTE      AlarmOverCurrent
      00000039H   IDATA    BYTE      AlarmOverWind
      00000029H   IDATA    BYTE      AlarmPhaseLoss
      00000032H   IDATA    BYTE      AlarmStartLose
      00000062H   IDATA    BYTE      AlarmStuck
      02000112H   XDATA    WORD      AlarmX10msCnt
      010038D4H   CODE     ---       AMP_Init
      010035ACH   CODE     ---       APP_DIV
      0200013FH   XDATA    WORD      AutostartCnt
*DEL*:00000000H   CODE     ---       BEMFDealwith
      020001F2H   XDATA    ---       BEMFDetect
*DEL*:00000000H   CODE     ---       BEMFDetectFunc
*DEL*:00000000H   CODE     ---       BEMFDetectInit
*DEL*:00000000H   CODE     ---       BEMFFOCCloseLoopStart
*DEL*:00000000H   CODE     ---       BEMFSpeedCal
*DEL*:00000000H   CODE     ---       BEMFSpeedDetect
      0200008CH   XDATA    FLOAT     brakeduty
      0100335DH   CODE     ---       CalAlarmFlag
      0100394BH   CODE     ---       CalCoolLvToCmd
*DEL*:00000000H   CODE     ---       CalcVSPRef
      0100385EH   CODE     ---       CalHeatStepToCmd
*DEL*:00000000H   CODE     ---       CalMaxRPM
      010037D4H   CODE     ---       CalSpeedStepToCmd
      01003934H   CODE     ---       CancleResatrt
      01002173H   CODE     ---       CheckCurrent
      01002ADAH   CODE     ---       CheckHeatTemper
LX51 LINKER/LOCATER V4.66.100.0                                                       10/12/2023  14:31:55  PAGE 15


      010023ECH   CODE     ---       CheckStallFault
      01002011H   CODE     ---       CheckStartFault
      01002A09H   CODE     ---       CheckTemper
      00000021H.4 BIT      BIT       CheckTemperTurn
      0100356DH   CODE     ---       CMP3_Init
      01003907H   CODE     ---       CMP3_Inter_Init
*DEL*:00000000H   CODE     ---       CMP_BMEF_Init
*SFR* 000000D5H   DATA     BYTE      CMP_CR0
*SFR* 000000D6H   DATA     BYTE      CMP_CR1
*SFR* 000000DAH   DATA     BYTE      CMP_CR2
*SFR* 000000DCH   DATA     BYTE      CMP_CR3
      01002C5AH   CODE     ---       CMP_ISR
*DEL*:00000000H   CODE     ---       CMP_RSD_Init
*SFR* 000000D7H   DATA     BYTE      CMP_SR
      010014E0H   CODE     ---       CommandPer10ms
      000000BBH   IDATA    BYTE      CoolCmdLv
      000000B0H   IDATA    BYTE      CoolShiftLv
*SFR* 000000D0H.7 DATA     BIT       CY
*DEL*:00000000H   CODE     ---       DebugSet
*SFR* 00000082H   DATA     WORD      DPTR
      01003301H   CODE     ---       Driver_Init
*SFR* 000000F8H   DATA     BYTE      DRV_OUT
      02000135H   XDATA    BYTE      DrvEnFlag
      02000143H   XDATA    BYTE      DrvEnTrig
      0200011CH   XDATA    BYTE      DrvHystericLv
      0200013AH   XDATA    BYTE      DrvRefTrig
      0200012DH   XDATA    WORD      DrvTempADCSmpFilt
      0000002FH   IDATA    WORD      DrvTemperADCVal
      00000060H   IDATA    INT       DrvTemperCelsius
      01002637H   CODE     ---       DryerFlashInit
      01003927H   CODE     ---       DryerKeysDefault
      010009BFH   CODE     ---       DryerPer1ms
*SFR* 000000A8H.7 DATA     BIT       EA
      01002FA5H   CODE     ---       EK_deal
*SFR* 000000A8H.4 DATA     BIT       ES0
*SFR* 000000D9H   DATA     BYTE      EVT_FILT
*SFR* 000000A8H.0 DATA     BIT       EX0
*SFR* 000000A8H.2 DATA     BIT       EX1
      020000ECH   XDATA    WORD      ExpectedDrvRef
      0100381DH   CODE     ---       EXTERN_INT
*DEL*:00000000H   CODE     ---       EXTI_Init
*SFR* 000000D0H.5 DATA     BIT       F0
*SFR* 000000D0H.1 DATA     BIT       F1
*DEL*:00000000H   CODE     ---       Fault_Detection
      020002ABH   XDATA    BYTE      FaultOffset
*DEL*:00000000H   CODE     ---       FaultProcess
*DEL*:00000000H   CODE     ---       FGOutput
*SFR* 00000085H   DATA     BYTE      FLA_CR
*SFR* 00000084H   DATA     BYTE      FLA_KEY
      00000050H   IDATA    BYTE      FlagHardBeark
      00000058H   IDATA    BYTE      FlagHighSpeed
      00000057H   IDATA    BYTE      FlagHighTemper
      0000003CH   IDATA    BYTE      FlagHighVolt
      0000004DH   IDATA    BYTE      FlagLowVolt
      00000022H   IDATA    BYTE      FlagOverCurrent
      0000003EH   IDATA    BYTE      FlagOverWind
      00000031H   IDATA    BYTE      FlagPhaseLoss
      0000003AH   IDATA    BYTE      FlagStartLose
      0000002AH   IDATA    BYTE      FlagStuck
      020002AAH   XDATA    BYTE      FlashAddrOffset
      01003245H   CODE     ---       FlashEarseAndWrite
      020002A6H   XDATA    BYTE      FlashInitFlag
      01002EA3H   CODE     ---       FlashLoopPro
      020002A9H   XDATA    BYTE      FlashPieceNum
      020002ACH   XDATA    ---       FlashReadLine
LX51 LINKER/LOCATER V4.66.100.0                                                       10/12/2023  14:31:55  PAGE 16


      020002A5H   XDATA    BYTE      FlashSaveFlag
      0000000AH   IDATA    BYTE      FLASHUsingStatus
      01003453H   CODE     ---       FlashWriteData
      020002A7H   XDATA    WORD      FlashWriteTimes
      020000F1H   XDATA    BYTE      FltReStartTrig
      010034E9H   CODE     ---       FO_INT
      010022C1H   CODE     ---       FOC_Init
      01003407H   CODE     ---       FOC_INT
*DEL*:00000000H   CODE     ---       FOCCloseLoopStart
      02000272H   XDATA    WORD      focek2
      020001D3H   XDATA    INT       FocIA
      020001D5H   XDATA    INT       FocIB
      020001D7H   XDATA    INT       FocIC
      020001EAH   XDATA    INT       FocIXMax
      020001ECH   XDATA    INT       FocIXMax_Max
*DEL*:00000000H   CODE     ---       FOCTailWindDealwith
      01003654H   CODE     ---       FOCTailWindTimeLimit
*DEL*:00000000H   CODE     ---       GetBEMFStatus
      01002935H   CODE     ---       GetCurrentOffset
      02000118H   XDATA    WORD      GivenDuty_Q12
      0200011DH   XDATA    BYTE      GivenDutyDisFlag
*SFR* 00000080H.0 DATA     BIT       GP00
*SFR* 00000080H.1 DATA     BIT       GP01
*SFR* 00000080H.2 DATA     BIT       GP02
*SFR* 00000080H.3 DATA     BIT       GP03
*SFR* 00000080H.4 DATA     BIT       GP04
*SFR* 00000080H.5 DATA     BIT       GP05
*SFR* 00000080H.6 DATA     BIT       GP06
*SFR* 00000080H.7 DATA     BIT       GP07
*SFR* 00000090H.0 DATA     BIT       GP10
*SFR* 00000090H.1 DATA     BIT       GP11
*SFR* 00000090H.2 DATA     BIT       GP12
*SFR* 00000090H.3 DATA     BIT       GP13
*SFR* 00000090H.4 DATA     BIT       GP14
*SFR* 00000090H.5 DATA     BIT       GP15
*SFR* 00000090H.6 DATA     BIT       GP16
*SFR* 00000090H.7 DATA     BIT       GP17
*SFR* 000000A0H.0 DATA     BIT       GP20
*SFR* 000000A0H.1 DATA     BIT       GP21
*SFR* 000000A0H.2 DATA     BIT       GP22
*SFR* 000000A0H.3 DATA     BIT       GP23
*SFR* 000000A0H.4 DATA     BIT       GP24
*SFR* 000000A0H.5 DATA     BIT       GP25
*SFR* 000000A0H.6 DATA     BIT       GP26
*SFR* 000000A0H.7 DATA     BIT       GP27
*SFR* 000000B0H.0 DATA     BIT       GP30
*SFR* 000000B0H.1 DATA     BIT       GP31
*SFR* 000000B0H.2 DATA     BIT       GP32
*SFR* 000000B0H.3 DATA     BIT       GP33
*SFR* 000000B0H.4 DATA     BIT       GP34
*SFR* 000000B0H.5 DATA     BIT       GP35
*SFR* 000000B0H.6 DATA     BIT       GP36
*SFR* 000000B0H.7 DATA     BIT       GP37
*SFR* 000000E8H.0 DATA     BIT       GP40
*SFR* 000000E8H.1 DATA     BIT       GP41
*SFR* 000000E8H.2 DATA     BIT       GP42
*DEL*:00000000H   CODE     ---       GPIO_Default_Init
      010033B5H   CODE     ---       GPIO_Init
*DEL*:00000000H   CODE     ---       HardwareInit
      020000EFH   XDATA    BYTE      HearterPMWDutyDowm
      020000EBH   XDATA    BYTE      HearterPMWDutyRise
      00000020H.1 BIT      BIT       Heat_wire_H
      00000020H.2 BIT      BIT       Heat_wire_L
      000000ABH   IDATA    INT       HeatAdcValRef
      000000B5H   IDATA    BYTE      HeatCmdLv
LX51 LINKER/LOCATER V4.66.100.0                                                       10/12/2023  14:31:55  PAGE 17


      02000293H   XDATA    BYTE      HeatDisableFlag
      000000AAH   IDATA    BYTE      HeatDutyAlt
      0000009AH   IDATA    BYTE      HeatDutyAltTop
      000000BDH   IDATA    BYTE      HeatDutyH
      000000BEH   IDATA    BYTE      HeatDutyL
      000000B4H   IDATA    BYTE      HeatDutyMax
      0000009BH   IDATA    BYTE      HeatDutyOnCnt
      000000A7H   IDATA    BYTE      HeatDutyOnCnt2
      0000009CH   IDATA    BYTE      HeatDutyPeriod
      0000009EH   IDATA    WORD      HeatLv4X10ms
      0200010FH   XDATA    BYTE      HeatProtectLv
      02000295H   XDATA    BYTE      HeatRegulTmr
      000000A3H   IDATA    BYTE      HeatShiftStep
      000000B9H   IDATA    WORD      HeatTemperADCVal
      000000AEH   IDATA    INT       HeatTemperCelsius
      020001DBH   XDATA    BYTE      HighSpdInhibitLv
      020001D1H   XDATA    WORD      HighSpdInhibitX10ms
      020001DCH   XDATA    BYTE      HighSpdRestartCnt
      02000103H   XDATA    BYTE      HiSpdLv
      02000120H   XDATA    BYTE      HiTemperCnt
*DEL*:00000000H   CONST    ---       HW_Gear
      02000123H   XDATA    WORD      IbusADCOffset
      020000E9H   XDATA    WORD      IBusADCSmpFilt
      0200011EH   XDATA    WORD      IBusCommand_mA
      02000131H   XDATA    WORD      IBusCommandAlt
      0200013DH   XDATA    WORD      IBusCommandX10
      0200026EH   XDATA    INT       IBusError
      020000FEH   XDATA    WORD      IBusFilt_mA
      02000110H   XDATA    WORD      IBusOCCnt
      02000270H   XDATA    INT       IBusPIErr
      02000107H   XDATA    WORD      IBusSmp
      02000141H   XDATA    WORD      IBusWarningCnt
*SFR* 000000A8H   DATA     BYTE      IE
*SFR* 00000088H.2 DATA     BIT       IF0
      01000006H   CODE     ---       INT0
      0100000AH   CODE     ---       INT11
      0100000EH   CODE     ---       INT13
      0100000FH   CODE     ---       INT14
      01000010H   CODE     ---       INT15
      01000007H   CODE     ---       INT5
      01000008H   CODE     ---       INT6
      01000009H   CODE     ---       INT8
*SFR* 000000B8H   DATA     BYTE      IP0
*SFR* 000000C0H   DATA     BYTE      IP1
*SFR* 000000C8H   DATA     BYTE      IP2
*SFR* 000000D8H   DATA     BYTE      IP3
*SFR* 00000088H.0 DATA     BIT       IT00
*SFR* 00000088H.1 DATA     BIT       IT01
*SFR* 00000088H.3 DATA     BIT       IT10
*SFR* 00000088H.4 DATA     BIT       IT11
      020001CEH   XDATA    INT       IXMaxOCCnt
*DEL*:00000000H   CODE     ---       KEYControl
      02000294H   XDATA    ---       KeyCool
      020002BCH   XDATA    WORD      KeyCount_Dd
      020002C0H   XDATA    WORD      KeyCount_Dd1
      020002BAH   XDATA    WORD      KeyCount_Long
      020002BEH   XDATA    WORD      KeyCount_Up
      020000F2H   XDATA    WORD      KeyGoDuty
      02000114H   XDATA    WORD      KeyGoDutyMax
      02000292H   XDATA    ---       KeyHeat
      01002CF7H   CODE     ---       KeyInit
      0200013BH   XDATA    ---       KeyOn
      000000A1H   IDATA    BYTE      KeyOnLockKeepCnt
      000000A6H   IDATA    BYTE      KeyOnLockLv
      000000B6H   IDATA    BYTE      KeyOnLockLvPre
LX51 LINKER/LOCATER V4.66.100.0                                                       10/12/2023  14:31:55  PAGE 18


      000000ADH   IDATA    BYTE      KeyOnLockSmpNew
      000000A8H   IDATA    BYTE      KeyOnLockSmpOld
      0200028EH   XDATA    ---       KeyOnOff
      02000100H   XDATA    BYTE      KeyOnOffCmd
      02000104H   XDATA    BYTE      KeyOnOffTrig
      02000291H   XDATA    BYTE      KeyPro1msTmr
*DEL*:00000000H   CODE     ---       KeyScan
      0200028FH   XDATA    ---       KeySpeed
      000000B1H   IDATA    BYTE      KeySpeedActX10ms
*DEL*:00000000H   CODE     ---       KeyValue
      0200022BH   XDATA    ---       KS
*DEL*:00000000H   CODE     ---       LED_Display
      02000290H   XDATA    BYTE      LedAlarmFlashCnt
      000000B2H   IDATA    WORD      LedAltX10ms
*DEL*:00000000H   CODE     ---       LEDControl
*DEL*:00000000H   CODE     ---       LEDFaultSpark
      00000020H.3 BIT      BIT       LedHeat1
      00000020H.4 BIT      BIT       LedHeat2
      00000020H.5 BIT      BIT       LedHeat3
      00000021H.0 BIT      BIT       LedSpd1
      00000021H.1 BIT      BIT       LedSpd2
      00000021H.2 BIT      BIT       LedSpd3
      00000021H.6 BIT      BIT       LH_Gear
      00000021H.5 BIT      BIT       LightTurn
      020000EEH   XDATA    BYTE      Loop10msCnt
      02000134H   XDATA    BYTE      Loop10msFlag
      02000130H   XDATA    BYTE      Loop1msCnt
      0200010EH   XDATA    BYTE      Loop1msFlag
      01001045H   CODE     ---       LoopProPer1ms
      02000105H   XDATA    BYTE      LowVoltLv
*SFR* 000000DDH   DATA     BYTE      LPF_K
*SFR* 000000DEH   DATA     WORD      LPF_X
*SFR* 000000E6H   DATA     WORD      LPF_Y
*SFR* 000000DBH   DATA     BYTE      LVSR
      01002513H   CODE     ---       main
      00000044H   IDATA    WORD      MaxPower
      0000005AH   IDATA    DWORD     MaxRPMOfStop
      020001D0H   XDATA    BYTE      MaxSpdFiltCnt
      0000003FH   IDATA    WORD      MaxSpdOfStop
      020001EEH   XDATA    WORD      MaxSpdX10ms
      01001D0EH   CODE     ---       MC_Control
*DEL*:00000000H   CODE     ---       MC_Stop
      02000246H   XDATA    ---       mcCurOffset
      00000081H   IDATA    ---       mcCurVarible
      02000090H   XDATA    ---       mcFaultDect
      0200008BH   XDATA    BYTE      mcFaultSource
      02000000H   XDATA    ---       mcFocCtrl
      020000DAH   XDATA    ---       mcFRState
      02000101H   XDATA    WORD      McIdleX1ms
      02000084H   XDATA    ---       mcLedDisplay
      0000008EH   IDATA    ---       mcProtectTime
      02000045H   XDATA    ---       mcPwmInput
      020000C9H   XDATA    ---       mcSpeedRamp
      020002C2H   XDATA    ---       McStaSet
      020002C5H   XDATA    BYTE      mcState
*SFR* 000000C1H   DATA     BYTE      MDU_CR
*SFR* 000000C4H   DATA     BYTE      MDU_DA0
*SFR* 000000C4H   DATA     WORD      MDU_DA01
*SFR* 000000C5H   DATA     BYTE      MDU_DA1
*SFR* 000000C6H   DATA     BYTE      MDU_DA2
*SFR* 000000C6H   DATA     WORD      MDU_DA23
*SFR* 000000C7H   DATA     BYTE      MDU_DA3
*SFR* 000000CCH   DATA     BYTE      MDU_DB0
*SFR* 000000CCH   DATA     WORD      MDU_DB01
*SFR* 000000CDH   DATA     BYTE      MDU_DB1
LX51 LINKER/LOCATER V4.66.100.0                                                       10/12/2023  14:31:55  PAGE 19


*SFR* 000000C2H   DATA     WORD      MDU_MA
*SFR* 000000CAH   DATA     WORD      MDU_MB
      00000042H   IDATA    WORD      MinPower
*SFR* 000000F8H.7 DATA     BIT       MOE
      01002F29H   CODE     ---       Motor_Align
      0100284FH   CODE     ---       Motor_Charge
*DEL*:00000000H   CODE     ---       Motor_EN
      0100389BH   CODE     ---       Motor_Init
      01002BABH   CODE     ---       Motor_Open
*DEL*:00000000H   CODE     ---       Motor_PllStart
      0100361EH   CODE     ---       Motor_Ready
*DEL*:00000000H   CODE     ---       Motor_TailWind
      01002754H   CODE     ---       MotorcontrolInit
      00000023H   IDATA    DWORD     MotorRPM
      020001E5H   XDATA    BYTE      NormalSpdFiltCnt
      020001D9H   XDATA    WORD      NormalSpdX10ms
      00000041H   IDATA    BYTE      NoVZeroCrossX1ms
      0200012FH   XDATA    BYTE      OCLv
*SFR* 000000F8H.0 DATA     BIT       OISUH
*SFR* 000000F8H.1 DATA     BIT       OISUL
*SFR* 000000F8H.2 DATA     BIT       OISVH
*SFR* 000000F8H.3 DATA     BIT       OISVL
*SFR* 000000F8H.4 DATA     BIT       OISWXH
*SFR* 000000F8H.5 DATA     BIT       OISWXL
      02000060H   XDATA    ---       ONOFFTest
*DEL*:00000000H   CODE     ---       OutLoopParameterSet
*SFR* 000000D0H.2 DATA     BIT       OV
*SFR* 000000D0H.0 DATA     BIT       P
*SFR* 00000080H   DATA     BYTE      P0
*SFR* 000000FCH   DATA     BYTE      P0_OE
*SFR* 00000090H   DATA     BYTE      P1
*SFR* 000000D1H   DATA     BYTE      P1_IE
*SFR* 000000D2H   DATA     BYTE      P1_IF
*SFR* 000000FDH   DATA     BYTE      P1_OE
*SFR* 000000A0H   DATA     BYTE      P2
*SFR* 000000D3H   DATA     BYTE      P2_IE
*SFR* 000000D4H   DATA     BYTE      P2_IF
*SFR* 000000FEH   DATA     BYTE      P2_OE
*SFR* 000000B0H   DATA     BYTE      P3
*SFR* 000000FFH   DATA     BYTE      P3_OE
*SFR* 000000E8H   DATA     BYTE      P4
*SFR* 000000E9H   DATA     BYTE      P4_OE
*SFR* 000000C0H.4 DATA     BIT       PADC0
*SFR* 000000C0H.5 DATA     BIT       PADC1
*SFR* 000000C0H.6 DATA     BIT       PCMP0
*SFR* 000000C0H.7 DATA     BIT       PCMP1
*SFR* 00000087H   DATA     BYTE      PCON
*SFR* 000000D8H.6 DATA     BIT       PDMA0
*SFR* 000000D8H.7 DATA     BIT       PDMA1
*SFR* 000000B8H.6 DATA     BIT       PDRV0
*SFR* 000000B8H.7 DATA     BIT       PDRV1
*SFR* 000000D8H.2 DATA     BIT       PI2C0
*SFR* 000000D8H.3 DATA     BIT       PI2C1
*SFR* 000000EAH   DATA     WORD      PI_EK
      0100377DH   CODE     ---       PI_Init
*SFR* 000000F2H   DATA     WORD      PI_KI
*SFR* 000000EEH   DATA     WORD      PI_KP
*SFR* 000000F9H   DATA     BYTE      PI_LPF_CR
*SFR* 000000ECH   DATA     WORD      PI_UK
*SFR* 000000F4H   DATA     WORD      PI_UKMAX
*SFR* 000000F6H   DATA     WORD      PI_UKMIN
*DEL*:00000000H   CODE     ---       PLL_TailWindDealwith
*SFR* 000000B8H.0 DATA     BIT       PLVW0
*SFR* 000000B8H.1 DATA     BIT       PLVW1
      020002B0H   XDATA    WORD      Power_Currt
LX51 LINKER/LOCATER V4.66.100.0                                                       10/12/2023  14:31:55  PAGE 20


      020000D8H   XDATA    WORD      POWER_VSP
      02000106H   XDATA    BYTE      PowerLose
      020002C6H   XDATA    WORD      PowerUpCnt
      02000297H   XDATA    BYTE      PowerVoltDownBase
      02000296H   XDATA    BYTE      PowerVoltRiseBase
*SFR* 000000D8H.4 DATA     BIT       PSPI0
*SFR* 000000D8H.5 DATA     BIT       PSPI1
*SFR* 000000D0H   DATA     BYTE      PSW
*SFR* 000000C0H.2 DATA     BIT       PTIM10
*SFR* 000000C0H.3 DATA     BIT       PTIM11
*SFR* 000000C0H.0 DATA     BIT       PTIM20
*SFR* 000000C0H.1 DATA     BIT       PTIM21
*SFR* 000000C8H.2 DATA     BIT       PTIM30
*SFR* 000000C8H.3 DATA     BIT       PTIM31
*SFR* 000000C8H.4 DATA     BIT       PTIM4S0
*SFR* 000000C8H.5 DATA     BIT       PTIM4S1
*SFR* 000000C8H.6 DATA     BIT       PTSD0
*SFR* 000000C8H.7 DATA     BIT       PTSD1
*SFR* 000000D8H.0 DATA     BIT       PUART0
*SFR* 000000D8H.1 DATA     BIT       PUART1
      02000121H   XDATA    INT       PulseDuty_Q12
*DEL*:00000000H   CODE     ---       PWMInputCapture
      02000298H   XDATA    BYTE      PwrOnStage
      02000138H   XDATA    WORD      PwrOnX1ms
*SFR* 000000B8H.2 DATA     BIT       PX00
*SFR* 000000B8H.3 DATA     BIT       PX01
*SFR* 000000B8H.4 DATA     BIT       PX10
*SFR* 000000B8H.5 DATA     BIT       PX11
      020000F7H   XDATA    BYTE      QuickStartFlag
*SFR* 00000098H.2 DATA     BIT       RB8
      01001B0EH   CODE     ---       Regulation
*SFR* 00000098H.4 DATA     BIT       REN
      0200010CH   XDATA    WORD      RePowerRunDly
      000000A0H   IDATA    BYTE      RePowerRunTrig
      0200012CH   XDATA    BYTE      Restart10msCnt
      0200013CH   XDATA    BYTE      ReStartCnt
      020000F0H   XDATA    BYTE      ReStartDlyCmd
      020000FBH   XDATA    WORD      ReStartDlyX10ms
      00000020H.6 BIT      BIT       ReverseCleanCmd
      00000020H.7 BIT      BIT       ReverseCleanTrig
      000000B7H   IDATA    WORD      ReverseCleanX10ms
*SFR* 00000098H.0 DATA     BIT       RI
      020002C8H   XDATA    ---       Rom
*DEL*:00000000H   CODE     ---       RPD
*DEL*:00000000H   CODE     ---       RPD_0_VWinit
*DEL*:00000000H   CODE     ---       RPD_1_WVinit
*DEL*:00000000H   CODE     ---       RPD_2_UVinit
*DEL*:00000000H   CODE     ---       RPD_3_VUinit
*DEL*:00000000H   CODE     ---       RPD_4_WUinit
*DEL*:00000000H   CODE     ---       RPD_5_UWinit
*DEL*:00000000H   CODE     ---       RPD_Detect
*DEL*:00000000H   CODE     ---       RPD_Init
*DEL*:00000000H   CODE     ---       RPD_Inject
      0200017DH   XDATA    BYTE      RPD_Status
      0200017EH   XDATA    ---       RPDPara
*SFR* 000000D0H.3 DATA     BIT       RS0
*SFR* 000000D0H.4 DATA     BIT       RS1
*DEL*:00000000H   CODE     ---       RSDCloseDeal
*DEL*:00000000H   CODE     ---       RSDDealwith
      00000063H   IDATA    ---       RSDDetect
*DEL*:00000000H   CODE     ---       RSDDetectInit
*DEL*:00000000H   CODE     ---       RSDFOCCloseLoopStart
*DEL*:00000000H   CODE     ---       RSDFRDetect
*SFR* 000000C9H   DATA     BYTE      RST_SR
      02000129H   XDATA    WORD      RunningX1ms
LX51 LINKER/LOCATER V4.66.100.0                                                       10/12/2023  14:31:55  PAGE 21


      020000FAH   XDATA    BYTE      RunTrigger
      010035E7H   CODE     ---       SetFaultResatrt
      010038B8H   CODE     ---       ShutPerform
*DEL*:00000000H   CODE     ---       Sleepmode
*DEL*:00000000H   CODE     ---       Sleepmode_Init
      0200007BH   XDATA    ---       SleepSet
*SFR* 00000098H.5 DATA     BIT       SM2
*DEL*:00000000H   CODE     ---       SMO_TailWindDealwith
*DEL*:00000000H   CODE     ---       SoftwareInit
      0200029AH   XDATA    WORD      SparkBlinkPrd
      020002A1H   XDATA    WORD      SparkClock
      0200029CH   XDATA    BYTE      SparkErrCode
      020002A3H   XDATA    BYTE      SparkErrCodeH
      020002A4H   XDATA    BYTE      SparkErrCodeL
      0200029DH   XDATA    BYTE      SparkErrStep
      0200029FH   XDATA    WORD      SparkOnPrd
      0200029EH   XDATA    BYTE      SparkStepSum
      02000278H   XDATA    LONG      SpdErr
      0200027EH   XDATA    INT       SpdPIErr
*DEL*:00000000H   CODE     ---       Speed_response
      000000A9H   IDATA    BYTE      SpeedCmdLv
      02000069H   XDATA    ---       SpeedPICtrl
      01001EAEH   CODE     ---       SpeedRestriction
      0000009DH   IDATA    BYTE      SpeedShiftStep
*DEL*:00000000H   CODE     ---       SPI_Init
      020002B2H   XDATA    ---       spidebug
*SFR* 000000A8H.3 DATA     BIT       SPIIE
      01002D8BH   CODE     ---       StarRampDealwith
      0200013BH   XDATA    BYTE      StartCmdLv
      020000F6H   XDATA    BYTE      StartCmdLvAlt
      0200012BH   XDATA    BYTE      StartFailLv
      02000128H   XDATA    BYTE      StuckLv
      020000FDH   XDATA    BYTE      SumUpTrig
      02000214H   XDATA    ---       TailWindDetect
*DEL*:00000000H   CODE     ---       TailWindDetectInit
*DEL*:00000000H   CODE     ---       TailWindSpeedDetect
*SFR* 00000098H.3 DATA     BIT       TB8
*SFR* 00000088H   DATA     BYTE      TCON
*DEL*:00000000H   CODE     ---       TempAverage
*DEL*:00000000H   CODE     ---       TemperaturePID
      00000008H   IDATA    WORD      TermTmr
      00000021H.3 BIT      BIT       TestMode
      000000A5H   IDATA    BYTE      ThryristTrigKeepCnt
      000000BCH   IDATA    BYTE      ThryristTrigKeepCnt2
*SFR* 00000098H.1 DATA     BIT       TI
*DEL*:00000000H   CODE     ---       TIM0_Init
*DEL*:00000000H   CODE     ---       TIM1_Init
      01003919H   CODE     ---       TIM1ms_Init
*SFR* 000000AEH   DATA     WORD      TIM2__ARR
*SFR* 000000AAH   DATA     WORD      TIM2__CNTR
*SFR* 000000ACH   DATA     WORD      TIM2__DR
*SFR* 000000A1H   DATA     BYTE      TIM2_CR0
*SFR* 000000A9H   DATA     BYTE      TIM2_CR1
*DEL*:00000000H   CODE     ---       TIM2_Init
      0100387EH   CODE     ---       TIM2_INT
*SFR* 000000A6H   DATA     WORD      TIM3__ARR
*SFR* 000000A2H   DATA     WORD      TIM3__CNTR
*SFR* 000000A4H   DATA     WORD      TIM3__DR
*SFR* 0000009CH   DATA     BYTE      TIM3_CR0
*SFR* 0000009DH   DATA     BYTE      TIM3_CR1
*DEL*:00000000H   CODE     ---       TIM3_Init
      0100383EH   CODE     ---       TIM3_INT
*SFR* 00000096H   DATA     WORD      TIM4__ARR
*SFR* 00000092H   DATA     WORD      TIM4__CNTR
*SFR* 00000094H   DATA     WORD      TIM4__DR
LX51 LINKER/LOCATER V4.66.100.0                                                       10/12/2023  14:31:55  PAGE 22


*SFR* 0000009EH   DATA     BYTE      TIM4_CR0
*SFR* 0000009FH   DATA     BYTE      TIM4_CR1
*DEL*:00000000H   CODE     ---       TIM4_Init
      010018B5H   CODE     ---       TIM_1MS_INT
*DEL*:00000000H   CODE     ---       Time2_BMEF_Init
*DEL*:00000000H   CODE     ---       Time2_RPD_Init
*DEL*:00000000H   CODE     ---       Time2_RSD_Init
      020002C3H   XDATA    WORD      TimeCnt
*SFR* 000000A8H.1 DATA     BIT       TSDIE
*SFR* 00000088H.5 DATA     BIT       TSDIF
      02000144H   XDATA    ---       Uart
*DEL*:00000000H   CODE     ---       UART_Init
*DEL*:00000000H   CODE     ---       UARTDataInit
*DEL*:00000000H   CODE     ---       UartDealComm
*DEL*:00000000H   CODE     ---       UartDealResponse
      000000CAH   IDATA    BYTE      UartErr
      000000C7H   IDATA    BYTE      UartFrameErr
*DEL*:00000000H   CODE     ---       UARTGetData
      000000C9H   IDATA    BYTE      UartHeadErr
      000000CBH   IDATA    BYTE      UartNoRxErr
*DEL*:00000000H   CODE     ---       UARTPer1ms
      000000C1H   IDATA    BYTE      UartRxCnt
      000000CDH   IDATA    BYTE      UartRxData
      000000CCH   IDATA    BYTE      UartRxFlag
      0200026AH   XDATA    WORD      UartRxIdleX1ms
      0200025DH   XDATA    WORD      UartRxInvalidX1ms
      000000D0H   IDATA    ---       UartRxLine
*DEL*:00000000H   CODE     ---       UARTSetData
      000000BFH   IDATA    BYTE      UartSumErr
      000000C3H   IDATA    BYTE      UartTimeOutErr
      000000C2H   IDATA    BYTE      UartTxCnt
      000000CFH   IDATA    BYTE      UartTxData
      000000CEH   IDATA    BYTE      UartTxFlag
      000000D6H   IDATA    ---       UartTxLine
      000000C0H   IDATA    BYTE      UartTxTrig
      020000F8H   XDATA    WORD      UBusADCSmpFilt
      020000E8H   XDATA    BYTE      UBusFall
      0200010BH   XDATA    BYTE      UBusHighCnt
      02000133H   XDATA    BYTE      UBusLowCnt
      02000136H   XDATA    WORD      UBusLowKeepCnt
      02000109H   XDATA    WORD      UBusMax
      02000127H   XDATA    BYTE      UBusMaxCnt
      02000125H   XDATA    WORD      UBusNormKeepCnt
      02000116H   XDATA    WORD      UBusSmp
      0200011AH   XDATA    WORD      UBusX10
      02000274H   XDATA    LONG      UIErr
      0200027CH   XDATA    INT       UIPIErr
      020001E6H   XDATA    WORD      UltraSpdX10ms
      02000268H   XDATA    WORD      URXCmdPwr
      02000264H   XDATA    DWORD     URXCmdRpm
      02000260H   XDATA    DWORD     URXCmdSpd
      0200025FH   XDATA    BYTE      URXCmdVal
      000000C4H   IDATA    BYTE      URXCnt
      0200026CH   XDATA    WORD      URXGoDuty
      0200025BH   XDATA    BYTE      URXMark
      000000C6H   IDATA    BYTE      URXSum
      01003940H   CODE     ---       USART_INT
      020001AAH   XDATA    ---       User
      01003721H   CODE     ---       UserParas
*SFR* 0000009AH   DATA     WORD      UT_BAUD
*SFR* 00000098H   DATA     BYTE      UT_CR
*SFR* 00000099H   DATA     BYTE      UT_DR
*SFR* 00000098H.6 DATA     BIT       UT_MOD0
*SFR* 00000098H.7 DATA     BIT       UT_MOD1
      000000C5H   IDATA    BYTE      UTXCnt
LX51 LINKER/LOCATER V4.66.100.0                                                       10/12/2023  14:31:55  PAGE 23


      0200025CH   XDATA    BYTE      UTXMark
      000000C8H   IDATA    BYTE      UTXSum
      00000046H   IDATA    DWORD     UxISmp
      0100317CH   CODE     ---       VariablesPreInit
*DEL*:00000000H   CODE     ---       VHALFConfig
      020000F4H   XDATA    WORD      VoltKeepLowCnt
      020000E6H   XDATA    INT       VSP
      0000004BH   IDATA    INT       Vsp_Q12
      020001E8H   XDATA    WORD      VspIBusAlt
      01003020H   CODE     ---       VspIBusRamp
      00000053H   IDATA    DWORD     VspPowerAlt
      0000002BH   IDATA    DWORD     VspPwrCmd
      020001E1H   XDATA    LONG      VspRPMAlt
      020001DDH   XDATA    LONG      VspRPMCmd
      00000027H   IDATA    INT       VspSpdAlt
      0000005EH   IDATA    INT       VspSpdCmd
      00000037H   IDATA    INT       VspSpdCmdMax
      010031E1H   CODE     ---       VspSpeedRamp
      0000003DH   IDATA    BYTE      VZeroCrossCnt
      0000003BH   IDATA    BYTE      VZeroCrossGetFlag
      00000034H   IDATA    BYTE      VZeroCrossLose
      00000036H   IDATA    BYTE      VZeroCrossOK
*DEL*:00000000H   CODE     ---       WatchDogRefresh
      02000299H   XDATA    BYTE      WindTemperDelta
      00000020H.0 BIT      BIT       WindTemperHigh
      000000A2H   IDATA    CHAR      WindTemperRef
      010037F9H   CODE     ---       ZeroCrossing_Init



SYMBOL TABLE OF MODULE:  .\Output\FOC_Fortior (MAIN)

      VALUE       REP       CLASS    TYPE      SYMBOL NAME
      ====================================================
      ---         MODULE    ---      ---       MAIN
      000000B0H.4 SFRSYM    DATA     BIT       GP34
      000000A0H.5 SFRSYM    DATA     BIT       GP25
      00000090H.6 SFRSYM    DATA     BIT       GP16
      00000080H.7 SFRSYM    DATA     BIT       GP07
      000000CDH   SFRSYM    DATA     BYTE      MDU_DB1
      000000C6H   SFRSYM    DATA     BYTE      MDU_DA2
      00000088H.1 SFRSYM    DATA     BIT       IT01
      00000088H.3 SFRSYM    DATA     BIT       IT10
      000000B0H.5 SFRSYM    DATA     BIT       GP35
      000000A0H.6 SFRSYM    DATA     BIT       GP26
      00000090H.7 SFRSYM    DATA     BIT       GP17
      00000080H   SFRSYM    DATA     BYTE      P0
      000000F6H   SFRSYM    DATA     WORD      PI_UKMIN
      000000C7H   SFRSYM    DATA     BYTE      MDU_DA3
      00000088H.4 SFRSYM    DATA     BIT       IT11
      000000C9H   SFRSYM    DATA     BYTE      RST_SR
      000000D9H   SFRSYM    DATA     BYTE      EVT_FILT
      000000B0H.6 SFRSYM    DATA     BIT       GP36
      000000A0H.7 SFRSYM    DATA     BIT       GP27
      00000090H   SFRSYM    DATA     BYTE      P1
      000000B0H.7 SFRSYM    DATA     BIT       GP37
      000000A0H   SFRSYM    DATA     BYTE      P2
      000000F4H   SFRSYM    DATA     WORD      PI_UKMAX
      000000B0H   SFRSYM    DATA     BYTE      P3
      000000E8H   SFRSYM    DATA     BYTE      P4
      000000D0H.6 SFRSYM    DATA     BIT       AC
      000000A8H.7 SFRSYM    DATA     BIT       EA
      000000D5H   SFRSYM    DATA     BYTE      CMP_CR0
      000000D6H   SFRSYM    DATA     BYTE      CMP_CR1
      000000DAH   SFRSYM    DATA     BYTE      CMP_CR2
LX51 LINKER/LOCATER V4.66.100.0                                                       10/12/2023  14:31:55  PAGE 24


      000000B8H.2 SFRSYM    DATA     BIT       PX00
      000000DCH   SFRSYM    DATA     BYTE      CMP_CR3
      000000F8H.0 SFRSYM    DATA     BIT       OISUH
      000000EAH   SFRSYM    DATA     WORD      PI_EK
      000000B8H.3 SFRSYM    DATA     BIT       PX01
      000000B8H.4 SFRSYM    DATA     BIT       PX10
      000000F8H.2 SFRSYM    DATA     BIT       OISVH
      000000B8H.5 SFRSYM    DATA     BIT       PX11
      000000F8H.1 SFRSYM    DATA     BIT       OISUL
      000000DDH   SFRSYM    DATA     BYTE      LPF_K
      000000F2H   SFRSYM    DATA     WORD      PI_KI
      000000A8H   SFRSYM    DATA     BYTE      IE
      000000F8H.3 SFRSYM    DATA     BIT       OISVL
      000000EEH   SFRSYM    DATA     WORD      PI_KP
      000000AAH   SFRSYM    DATA     WORD      TIM2__CNTR
      000000A2H   SFRSYM    DATA     WORD      TIM3__CNTR
      00000092H   SFRSYM    DATA     WORD      TIM4__CNTR
      000000ECH   SFRSYM    DATA     WORD      PI_UK
      000000DEH   SFRSYM    DATA     WORD      LPF_X
      00000098H.0 SFRSYM    DATA     BIT       RI
      00000098H.6 SFRSYM    DATA     BIT       UT_MOD0
      000000E6H   SFRSYM    DATA     WORD      LPF_Y
      00000098H.7 SFRSYM    DATA     BIT       UT_MOD1
      000000D0H.7 SFRSYM    DATA     BIT       CY
      00000098H.1 SFRSYM    DATA     BIT       TI
      000000C0H.2 SFRSYM    DATA     BIT       PTIM10
      00000084H   SFRSYM    DATA     BYTE      FLA_KEY
      000000C0H.0 SFRSYM    DATA     BIT       PTIM20
      000000C0H.3 SFRSYM    DATA     BIT       PTIM11
      00000098H   SFRSYM    DATA     BYTE      UT_CR
      000000C8H.2 SFRSYM    DATA     BIT       PTIM30
      000000C0H.1 SFRSYM    DATA     BIT       PTIM21
      00000099H   SFRSYM    DATA     BYTE      UT_DR
      000000C8H.3 SFRSYM    DATA     BIT       PTIM31
      000000D0H.2 SFRSYM    DATA     BIT       OV
      0000009AH   SFRSYM    DATA     WORD      UT_BAUD
      000000C4H   SFRSYM    DATA     WORD      MDU_DA01
      000000CCH   SFRSYM    DATA     WORD      MDU_DB01
      00000087H   SFRSYM    DATA     BYTE      PCON
      000000C6H   SFRSYM    DATA     WORD      MDU_DA23
      00000088H   SFRSYM    DATA     BYTE      TCON
      00000082H   SFRSYM    DATA     WORD      DPTR
      000000D8H.0 SFRSYM    DATA     BIT       PUART0
      000000D8H.1 SFRSYM    DATA     BIT       PUART1
      000000D8H.2 SFRSYM    DATA     BIT       PI2C0
      00000088H.2 SFRSYM    DATA     BIT       IF0
      000000D8H.3 SFRSYM    DATA     BIT       PI2C1
      000000AEH   SFRSYM    DATA     WORD      TIM2__ARR
      000000A1H   SFRSYM    DATA     BYTE      TIM2_CR0
      000000A6H   SFRSYM    DATA     WORD      TIM3__ARR
      0000009CH   SFRSYM    DATA     BYTE      TIM3_CR0
      000000A9H   SFRSYM    DATA     BYTE      TIM2_CR1
      00000096H   SFRSYM    DATA     WORD      TIM4__ARR
      0000009EH   SFRSYM    DATA     BYTE      TIM4_CR0
      0000009DH   SFRSYM    DATA     BYTE      TIM3_CR1
      000000F8H   SFRSYM    DATA     BYTE      DRV_OUT
      0000009FH   SFRSYM    DATA     BYTE      TIM4_CR1
      000000DBH   SFRSYM    DATA     BYTE      LVSR
      000000A8H.4 SFRSYM    DATA     BIT       ES0
      00000085H   SFRSYM    DATA     BYTE      FLA_CR
      000000C0H.4 SFRSYM    DATA     BIT       PADC0
      000000B8H   SFRSYM    DATA     BYTE      IP0
      000000C0H.5 SFRSYM    DATA     BIT       PADC1
      000000C0H   SFRSYM    DATA     BYTE      IP1
      000000C8H   SFRSYM    DATA     BYTE      IP2
LX51 LINKER/LOCATER V4.66.100.0                                                       10/12/2023  14:31:55  PAGE 25


      00000098H.2 SFRSYM    DATA     BIT       RB8
      000000D8H   SFRSYM    DATA     BYTE      IP3
      000000A8H.0 SFRSYM    DATA     BIT       EX0
      00000098H.3 SFRSYM    DATA     BIT       TB8
      000000A8H.2 SFRSYM    DATA     BIT       EX1
      000000D0H.0 SFRSYM    DATA     BIT       P
      000000F9H   SFRSYM    DATA     BYTE      PI_LPF_CR
      00000098H.5 SFRSYM    DATA     BIT       SM2
      000000D8H.6 SFRSYM    DATA     BIT       PDMA0
      000000D8H.7 SFRSYM    DATA     BIT       PDMA1
      000000C2H   SFRSYM    DATA     WORD      MDU_MA
      000000D0H.3 SFRSYM    DATA     BIT       RS0
      000000CAH   SFRSYM    DATA     WORD      MDU_MB
      000000D0H.4 SFRSYM    DATA     BIT       RS1
      000000C1H   SFRSYM    DATA     BYTE      MDU_CR
      000000F8H.7 SFRSYM    DATA     BIT       MOE
      000000C0H.6 SFRSYM    DATA     BIT       PCMP0
      000000C0H.7 SFRSYM    DATA     BIT       PCMP1
      000000F8H.4 SFRSYM    DATA     BIT       OISWXH
      00000098H.4 SFRSYM    DATA     BIT       REN
      000000D7H   SFRSYM    DATA     BYTE      CMP_SR
      000000F8H.5 SFRSYM    DATA     BIT       OISWXL
      000000C8H.6 SFRSYM    DATA     BIT       PTSD0
      000000D8H.4 SFRSYM    DATA     BIT       PSPI0
      000000C8H.7 SFRSYM    DATA     BIT       PTSD1
      000000B8H.6 SFRSYM    DATA     BIT       PDRV0
      000000D8H.5 SFRSYM    DATA     BIT       PSPI1
      000000B8H.7 SFRSYM    DATA     BIT       PDRV1
      000000D1H   SFRSYM    DATA     BYTE      P1_IE
      000000D3H   SFRSYM    DATA     BYTE      P2_IE
      000000D2H   SFRSYM    DATA     BYTE      P1_IF
      000000D4H   SFRSYM    DATA     BYTE      P2_IF
      000000ACH   SFRSYM    DATA     WORD      TIM2__DR
      000000C8H.4 SFRSYM    DATA     BIT       PTIM4S0
      000000FCH   SFRSYM    DATA     BYTE      P0_OE
      000000A4H   SFRSYM    DATA     WORD      TIM3__DR
      000000C8H.5 SFRSYM    DATA     BIT       PTIM4S1
      000000FDH   SFRSYM    DATA     BYTE      P1_OE
      00000094H   SFRSYM    DATA     WORD      TIM4__DR
      000000D0H.5 SFRSYM    DATA     BIT       F0
      000000FEH   SFRSYM    DATA     BYTE      P2_OE
      000000D0H.1 SFRSYM    DATA     BIT       F1
      000000FFH   SFRSYM    DATA     BYTE      P3_OE
      00000080H.0 SFRSYM    DATA     BIT       GP00
      000000E9H   SFRSYM    DATA     BYTE      P4_OE
      00000090H.0 SFRSYM    DATA     BIT       GP10
      00000080H.1 SFRSYM    DATA     BIT       GP01
      000000A0H.0 SFRSYM    DATA     BIT       GP20
      00000090H.1 SFRSYM    DATA     BIT       GP11
      00000080H.2 SFRSYM    DATA     BIT       GP02
      000000B0H.0 SFRSYM    DATA     BIT       GP30
      000000A0H.1 SFRSYM    DATA     BIT       GP21
      00000090H.2 SFRSYM    DATA     BIT       GP12
      00000080H.3 SFRSYM    DATA     BIT       GP03
      000000B8H.0 SFRSYM    DATA     BIT       PLVW0
      000000A8H.1 SFRSYM    DATA     BIT       TSDIE
      000000D0H   SFRSYM    DATA     BYTE      PSW
      000000E8H.0 SFRSYM    DATA     BIT       GP40
      000000B0H.1 SFRSYM    DATA     BIT       GP31
      000000A0H.2 SFRSYM    DATA     BIT       GP22
      00000090H.3 SFRSYM    DATA     BIT       GP13
      00000080H.4 SFRSYM    DATA     BIT       GP04
      000000B8H.1 SFRSYM    DATA     BIT       PLVW1
      000000A8H.3 SFRSYM    DATA     BIT       SPIIE
      00000088H.5 SFRSYM    DATA     BIT       TSDIF
LX51 LINKER/LOCATER V4.66.100.0                                                       10/12/2023  14:31:55  PAGE 26


      000000E8H.1 SFRSYM    DATA     BIT       GP41
      000000B0H.2 SFRSYM    DATA     BIT       GP32
      000000A0H.3 SFRSYM    DATA     BIT       GP23
      00000090H.4 SFRSYM    DATA     BIT       GP14
      00000080H.5 SFRSYM    DATA     BIT       GP05
      000000C4H   SFRSYM    DATA     BYTE      MDU_DA0
      000000E8H.2 SFRSYM    DATA     BIT       GP42
      000000B0H.3 SFRSYM    DATA     BIT       GP33
      000000A0H.4 SFRSYM    DATA     BIT       GP24
      00000090H.5 SFRSYM    DATA     BIT       GP15
      00000080H.6 SFRSYM    DATA     BIT       GP06
      000000CCH   SFRSYM    DATA     BYTE      MDU_DB0
      000000C5H   SFRSYM    DATA     BYTE      MDU_DA1
      00000088H.0 SFRSYM    DATA     BIT       IT00

      ---         MODULE    ---      ---       INTERRUPT
      020002B2H   PUBLIC    XDATA    ---       spidebug
      020002B0H   PUBLIC    XDATA    WORD      Power_Currt
      01000010H   PUBLIC    CODE     ---       INT15
      0100000FH   PUBLIC    CODE     ---       INT14
      0100000EH   PUBLIC    CODE     ---       INT13
      0100000AH   PUBLIC    CODE     ---       INT11
      01000009H   PUBLIC    CODE     ---       INT8
      01000008H   PUBLIC    CODE     ---       INT6
      01000007H   PUBLIC    CODE     ---       INT5
      01000006H   PUBLIC    CODE     ---       INT0
      0100383EH   PUBLIC    CODE     ---       TIM3_INT
      0100387EH   PUBLIC    CODE     ---       TIM2_INT
      000000B0H.4 SFRSYM    DATA     BIT       GP34
      000000A0H.5 SFRSYM    DATA     BIT       GP25
      00000090H.6 SFRSYM    DATA     BIT       GP16
      00000080H.7 SFRSYM    DATA     BIT       GP07
      000000CDH   SFRSYM    DATA     BYTE      MDU_DB1
      000000C6H   SFRSYM    DATA     BYTE      MDU_DA2
      00000088H.1 SFRSYM    DATA     BIT       IT01
      00000088H.3 SFRSYM    DATA     BIT       IT10
      000000B0H.5 SFRSYM    DATA     BIT       GP35
      000000A0H.6 SFRSYM    DATA     BIT       GP26
      00000090H.7 SFRSYM    DATA     BIT       GP17
      00000080H   SFRSYM    DATA     BYTE      P0
      000000F6H   SFRSYM    DATA     WORD      PI_UKMIN
      000000C7H   SFRSYM    DATA     BYTE      MDU_DA3
      00000088H.4 SFRSYM    DATA     BIT       IT11
      000000C9H   SFRSYM    DATA     BYTE      RST_SR
      000000D9H   SFRSYM    DATA     BYTE      EVT_FILT
      000000B0H.6 SFRSYM    DATA     BIT       GP36
      000000A0H.7 SFRSYM    DATA     BIT       GP27
      00000090H   SFRSYM    DATA     BYTE      P1
      000000B0H.7 SFRSYM    DATA     BIT       GP37
      000000A0H   SFRSYM    DATA     BYTE      P2
      000000F4H   SFRSYM    DATA     WORD      PI_UKMAX
      000000B0H   SFRSYM    DATA     BYTE      P3
      000000E8H   SFRSYM    DATA     BYTE      P4
      000000D0H.6 SFRSYM    DATA     BIT       AC
      000000A8H.7 SFRSYM    DATA     BIT       EA
      000000D5H   SFRSYM    DATA     BYTE      CMP_CR0
      000000D6H   SFRSYM    DATA     BYTE      CMP_CR1
      000000DAH   SFRSYM    DATA     BYTE      CMP_CR2
      000000B8H.2 SFRSYM    DATA     BIT       PX00
      000000DCH   SFRSYM    DATA     BYTE      CMP_CR3
      000000F8H.0 SFRSYM    DATA     BIT       OISUH
      000000EAH   SFRSYM    DATA     WORD      PI_EK
      000000B8H.3 SFRSYM    DATA     BIT       PX01
      000000B8H.4 SFRSYM    DATA     BIT       PX10
      000000F8H.2 SFRSYM    DATA     BIT       OISVH
LX51 LINKER/LOCATER V4.66.100.0                                                       10/12/2023  14:31:55  PAGE 27


      000000B8H.5 SFRSYM    DATA     BIT       PX11
      000000F8H.1 SFRSYM    DATA     BIT       OISUL
      000000DDH   SFRSYM    DATA     BYTE      LPF_K
      000000F2H   SFRSYM    DATA     WORD      PI_KI
      000000A8H   SFRSYM    DATA     BYTE      IE
      000000F8H.3 SFRSYM    DATA     BIT       OISVL
      000000EEH   SFRSYM    DATA     WORD      PI_KP
      000000AAH   SFRSYM    DATA     WORD      TIM2__CNTR
      000000A2H   SFRSYM    DATA     WORD      TIM3__CNTR
      00000092H   SFRSYM    DATA     WORD      TIM4__CNTR
      000000ECH   SFRSYM    DATA     WORD      PI_UK
      000000DEH   SFRSYM    DATA     WORD      LPF_X
      00000098H.0 SFRSYM    DATA     BIT       RI
      00000098H.6 SFRSYM    DATA     BIT       UT_MOD0
      000000E6H   SFRSYM    DATA     WORD      LPF_Y
      00000098H.7 SFRSYM    DATA     BIT       UT_MOD1
      000000D0H.7 SFRSYM    DATA     BIT       CY
      00000098H.1 SFRSYM    DATA     BIT       TI
      000000C0H.2 SFRSYM    DATA     BIT       PTIM10
      00000084H   SFRSYM    DATA     BYTE      FLA_KEY
      000000C0H.0 SFRSYM    DATA     BIT       PTIM20
      000000C0H.3 SFRSYM    DATA     BIT       PTIM11
      00000098H   SFRSYM    DATA     BYTE      UT_CR
      000000C8H.2 SFRSYM    DATA     BIT       PTIM30
      000000C0H.1 SFRSYM    DATA     BIT       PTIM21
      00000099H   SFRSYM    DATA     BYTE      UT_DR
      000000C8H.3 SFRSYM    DATA     BIT       PTIM31
      000000D0H.2 SFRSYM    DATA     BIT       OV
      0000009AH   SFRSYM    DATA     WORD      UT_BAUD
      000000C4H   SFRSYM    DATA     WORD      MDU_DA01
      000000CCH   SFRSYM    DATA     WORD      MDU_DB01
      00000087H   SFRSYM    DATA     BYTE      PCON
      000000C6H   SFRSYM    DATA     WORD      MDU_DA23
      00000088H   SFRSYM    DATA     BYTE      TCON
      00000082H   SFRSYM    DATA     WORD      DPTR
      000000D8H.0 SFRSYM    DATA     BIT       PUART0
      000000D8H.1 SFRSYM    DATA     BIT       PUART1
      000000D8H.2 SFRSYM    DATA     BIT       PI2C0
      00000088H.2 SFRSYM    DATA     BIT       IF0
      000000D8H.3 SFRSYM    DATA     BIT       PI2C1
      000000AEH   SFRSYM    DATA     WORD      TIM2__ARR
      000000A1H   SFRSYM    DATA     BYTE      TIM2_CR0
      000000A6H   SFRSYM    DATA     WORD      TIM3__ARR
      0000009CH   SFRSYM    DATA     BYTE      TIM3_CR0
      000000A9H   SFRSYM    DATA     BYTE      TIM2_CR1
      00000096H   SFRSYM    DATA     WORD      TIM4__ARR
      0000009EH   SFRSYM    DATA     BYTE      TIM4_CR0
      0000009DH   SFRSYM    DATA     BYTE      TIM3_CR1
      000000F8H   SFRSYM    DATA     BYTE      DRV_OUT
      0000009FH   SFRSYM    DATA     BYTE      TIM4_CR1
      000000DBH   SFRSYM    DATA     BYTE      LVSR
      000000A8H.4 SFRSYM    DATA     BIT       ES0
      00000085H   SFRSYM    DATA     BYTE      FLA_CR
      000000C0H.4 SFRSYM    DATA     BIT       PADC0
      000000B8H   SFRSYM    DATA     BYTE      IP0
      000000C0H.5 SFRSYM    DATA     BIT       PADC1
      000000C0H   SFRSYM    DATA     BYTE      IP1
      000000C8H   SFRSYM    DATA     BYTE      IP2
      00000098H.2 SFRSYM    DATA     BIT       RB8
      000000D8H   SFRSYM    DATA     BYTE      IP3
      000000A8H.0 SFRSYM    DATA     BIT       EX0
      00000098H.3 SFRSYM    DATA     BIT       TB8
      000000A8H.2 SFRSYM    DATA     BIT       EX1
      000000D0H.0 SFRSYM    DATA     BIT       P
      000000F9H   SFRSYM    DATA     BYTE      PI_LPF_CR
LX51 LINKER/LOCATER V4.66.100.0                                                       10/12/2023  14:31:55  PAGE 28


      00000098H.5 SFRSYM    DATA     BIT       SM2
      000000D8H.6 SFRSYM    DATA     BIT       PDMA0
      000000D8H.7 SFRSYM    DATA     BIT       PDMA1
      000000C2H   SFRSYM    DATA     WORD      MDU_MA
      000000D0H.3 SFRSYM    DATA     BIT       RS0
      000000CAH   SFRSYM    DATA     WORD      MDU_MB
      000000D0H.4 SFRSYM    DATA     BIT       RS1
      000000C1H   SFRSYM    DATA     BYTE      MDU_CR
      000000F8H.7 SFRSYM    DATA     BIT       MOE
      000000C0H.6 SFRSYM    DATA     BIT       PCMP0
      000000C0H.7 SFRSYM    DATA     BIT       PCMP1
      000000F8H.4 SFRSYM    DATA     BIT       OISWXH
      00000098H.4 SFRSYM    DATA     BIT       REN
      000000D7H   SFRSYM    DATA     BYTE      CMP_SR
      000000F8H.5 SFRSYM    DATA     BIT       OISWXL
      000000C8H.6 SFRSYM    DATA     BIT       PTSD0
      000000D8H.4 SFRSYM    DATA     BIT       PSPI0
      000000C8H.7 SFRSYM    DATA     BIT       PTSD1
      000000B8H.6 SFRSYM    DATA     BIT       PDRV0
      000000D8H.5 SFRSYM    DATA     BIT       PSPI1
      000000B8H.7 SFRSYM    DATA     BIT       PDRV1
      000000D1H   SFRSYM    DATA     BYTE      P1_IE
      000000D3H   SFRSYM    DATA     BYTE      P2_IE
      000000D2H   SFRSYM    DATA     BYTE      P1_IF
      000000D4H   SFRSYM    DATA     BYTE      P2_IF
      000000ACH   SFRSYM    DATA     WORD      TIM2__DR
      000000C8H.4 SFRSYM    DATA     BIT       PTIM4S0
      000000FCH   SFRSYM    DATA     BYTE      P0_OE
      000000A4H   SFRSYM    DATA     WORD      TIM3__DR
      000000C8H.5 SFRSYM    DATA     BIT       PTIM4S1
      000000FDH   SFRSYM    DATA     BYTE      P1_OE
      00000094H   SFRSYM    DATA     WORD      TIM4__DR
      000000D0H.5 SFRSYM    DATA     BIT       F0
      000000FEH   SFRSYM    DATA     BYTE      P2_OE
      000000D0H.1 SFRSYM    DATA     BIT       F1
      000000FFH   SFRSYM    DATA     BYTE      P3_OE
      00000080H.0 SFRSYM    DATA     BIT       GP00
      000000E9H   SFRSYM    DATA     BYTE      P4_OE
      00000090H.0 SFRSYM    DATA     BIT       GP10
      00000080H.1 SFRSYM    DATA     BIT       GP01
      000000A0H.0 SFRSYM    DATA     BIT       GP20
      00000090H.1 SFRSYM    DATA     BIT       GP11
      00000080H.2 SFRSYM    DATA     BIT       GP02
      000000B0H.0 SFRSYM    DATA     BIT       GP30
      000000A0H.1 SFRSYM    DATA     BIT       GP21
      00000090H.2 SFRSYM    DATA     BIT       GP12
      00000080H.3 SFRSYM    DATA     BIT       GP03
      000000B8H.0 SFRSYM    DATA     BIT       PLVW0
      000000A8H.1 SFRSYM    DATA     BIT       TSDIE
      000000D0H   SFRSYM    DATA     BYTE      PSW
      000000E8H.0 SFRSYM    DATA     BIT       GP40
      000000B0H.1 SFRSYM    DATA     BIT       GP31
      000000A0H.2 SFRSYM    DATA     BIT       GP22
      00000090H.3 SFRSYM    DATA     BIT       GP13
      00000080H.4 SFRSYM    DATA     BIT       GP04
      000000B8H.1 SFRSYM    DATA     BIT       PLVW1
      000000A8H.3 SFRSYM    DATA     BIT       SPIIE
      00000088H.5 SFRSYM    DATA     BIT       TSDIF
      000000E8H.1 SFRSYM    DATA     BIT       GP41
      000000B0H.2 SFRSYM    DATA     BIT       GP32
      000000A0H.3 SFRSYM    DATA     BIT       GP23
      00000090H.4 SFRSYM    DATA     BIT       GP14
      00000080H.5 SFRSYM    DATA     BIT       GP05
      000000C4H   SFRSYM    DATA     BYTE      MDU_DA0
      000000E8H.2 SFRSYM    DATA     BIT       GP42
LX51 LINKER/LOCATER V4.66.100.0                                                       10/12/2023  14:31:55  PAGE 29


      000000B0H.3 SFRSYM    DATA     BIT       GP33
      000000A0H.4 SFRSYM    DATA     BIT       GP24
      00000090H.5 SFRSYM    DATA     BIT       GP15
      00000080H.6 SFRSYM    DATA     BIT       GP06
      000000CCH   SFRSYM    DATA     BYTE      MDU_DB0
      000000C5H   SFRSYM    DATA     BYTE      MDU_DA1
      00000088H.0 SFRSYM    DATA     BIT       IT00

      0100387EH   BLOCK     CODE     ---       LVL=0
      0100387EH   LINE      CODE     ---       #126
      01003880H   LINE      CODE     ---       #128
      01003885H   LINE      CODE     ---       #129
      01003885H   LINE      CODE     ---       #130
      01003888H   LINE      CODE     ---       #131
      01003888H   LINE      CODE     ---       #132
      0100388DH   LINE      CODE     ---       #133
      0100388DH   LINE      CODE     ---       #138
      01003890H   LINE      CODE     ---       #139
      01003890H   LINE      CODE     ---       #140
      01003895H   LINE      CODE     ---       #141
      01003895H   LINE      CODE     ---       #147
      01003898H   LINE      CODE     ---       #148
      01003898H   LINE      CODE     ---       #149
      ---         BLOCKEND  ---      ---       LVL=0

      0100383EH   BLOCK     CODE     ---       LVL=0
      0100383EH   LINE      CODE     ---       #191
      01003840H   LINE      CODE     ---       #193
      01003845H   LINE      CODE     ---       #194
      01003845H   LINE      CODE     ---       #195
      01003848H   LINE      CODE     ---       #196
      01003848H   LINE      CODE     ---       #197
      0100384DH   LINE      CODE     ---       #198
      0100384DH   LINE      CODE     ---       #199
      01003850H   LINE      CODE     ---       #200
      01003850H   LINE      CODE     ---       #201
      01003855H   LINE      CODE     ---       #202
      01003855H   LINE      CODE     ---       #203
      01003858H   LINE      CODE     ---       #204
      0100385BH   LINE      CODE     ---       #205
      0100385BH   LINE      CODE     ---       #206
      ---         BLOCKEND  ---      ---       LVL=0

      01000006H   BLOCK     CODE     ---       LVL=0
      01000006H   LINE      CODE     ---       #342
      01000006H   LINE      CODE     ---       #344
      ---         BLOCKEND  ---      ---       LVL=0

      01000007H   BLOCK     CODE     ---       LVL=0
      01000007H   LINE      CODE     ---       #345
      01000007H   LINE      CODE     ---       #347
      ---         BLOCKEND  ---      ---       LVL=0

      01000008H   BLOCK     CODE     ---       LVL=0
      01000008H   LINE      CODE     ---       #348
      01000008H   LINE      CODE     ---       #350
      ---         BLOCKEND  ---      ---       LVL=0

      01000009H   BLOCK     CODE     ---       LVL=0
      01000009H   LINE      CODE     ---       #351
      01000009H   LINE      CODE     ---       #353
      ---         BLOCKEND  ---      ---       LVL=0

      0100000AH   BLOCK     CODE     ---       LVL=0
      0100000AH   LINE      CODE     ---       #354
LX51 LINKER/LOCATER V4.66.100.0                                                       10/12/2023  14:31:55  PAGE 30


      0100000AH   LINE      CODE     ---       #356
      ---         BLOCKEND  ---      ---       LVL=0

      0100000EH   BLOCK     CODE     ---       LVL=0
      0100000EH   LINE      CODE     ---       #357
      0100000EH   LINE      CODE     ---       #359
      ---         BLOCKEND  ---      ---       LVL=0

      0100000FH   BLOCK     CODE     ---       LVL=0
      0100000FH   LINE      CODE     ---       #360
      0100000FH   LINE      CODE     ---       #362
      ---         BLOCKEND  ---      ---       LVL=0

      01000010H   BLOCK     CODE     ---       LVL=0
      01000010H   LINE      CODE     ---       #363
      01000010H   LINE      CODE     ---       #365
      ---         BLOCKEND  ---      ---       LVL=0

      ---         MODULE    ---      ---       ADDFUNCTION
      020000E6H   PUBLIC    XDATA    INT       VSP
      020000DEH   PUBLIC    XDATA    ---       AdcSampleValue
      020000DAH   PUBLIC    XDATA    ---       mcFRState
      020000D8H   PUBLIC    XDATA    WORD      POWER_VSP
      020000C9H   PUBLIC    XDATA    ---       mcSpeedRamp
      02000090H   PUBLIC    XDATA    ---       mcFaultDect
      0200008CH   PUBLIC    XDATA    FLOAT     brakeduty
      0000008EH   PUBLIC    IDATA    ---       mcProtectTime
      00000081H   PUBLIC    IDATA    ---       mcCurVarible
      00000063H   PUBLIC    IDATA    ---       RSDDetect
      0200008BH   PUBLIC    XDATA    BYTE      mcFaultSource
      02000084H   PUBLIC    XDATA    ---       mcLedDisplay
      0200007BH   PUBLIC    XDATA    ---       SleepSet
      02000069H   PUBLIC    XDATA    ---       SpeedPICtrl
      02000060H   PUBLIC    XDATA    ---       ONOFFTest
      02000045H   PUBLIC    XDATA    ---       mcPwmInput
      02000000H   PUBLIC    XDATA    ---       mcFocCtrl
      01002D8BH   PUBLIC    CODE     ---       StarRampDealwith
      01003750H   PUBLIC    CODE     ---       _LPFFunction
      010035ACH   PUBLIC    CODE     ---       APP_DIV
      000000B0H.4 SFRSYM    DATA     BIT       GP34
      000000A0H.5 SFRSYM    DATA     BIT       GP25
      00000090H.6 SFRSYM    DATA     BIT       GP16
      00000080H.7 SFRSYM    DATA     BIT       GP07
      000000CDH   SFRSYM    DATA     BYTE      MDU_DB1
      000000C6H   SFRSYM    DATA     BYTE      MDU_DA2
      00000088H.1 SFRSYM    DATA     BIT       IT01
      00000088H.3 SFRSYM    DATA     BIT       IT10
      000000B0H.5 SFRSYM    DATA     BIT       GP35
      000000A0H.6 SFRSYM    DATA     BIT       GP26
      00000090H.7 SFRSYM    DATA     BIT       GP17
      00000080H   SFRSYM    DATA     BYTE      P0
      000000F6H   SFRSYM    DATA     WORD      PI_UKMIN
      000000C7H   SFRSYM    DATA     BYTE      MDU_DA3
      00000088H.4 SFRSYM    DATA     BIT       IT11
      000000C9H   SFRSYM    DATA     BYTE      RST_SR
      000000D9H   SFRSYM    DATA     BYTE      EVT_FILT
      000000B0H.6 SFRSYM    DATA     BIT       GP36
      000000A0H.7 SFRSYM    DATA     BIT       GP27
      00000090H   SFRSYM    DATA     BYTE      P1
      000000B0H.7 SFRSYM    DATA     BIT       GP37
      000000A0H   SFRSYM    DATA     BYTE      P2
      000000F4H   SFRSYM    DATA     WORD      PI_UKMAX
      000000B0H   SFRSYM    DATA     BYTE      P3
      000000E8H   SFRSYM    DATA     BYTE      P4
      000000D0H.6 SFRSYM    DATA     BIT       AC
LX51 LINKER/LOCATER V4.66.100.0                                                       10/12/2023  14:31:55  PAGE 31


      000000A8H.7 SFRSYM    DATA     BIT       EA
      000000D5H   SFRSYM    DATA     BYTE      CMP_CR0
      000000D6H   SFRSYM    DATA     BYTE      CMP_CR1
      000000DAH   SFRSYM    DATA     BYTE      CMP_CR2
      000000B8H.2 SFRSYM    DATA     BIT       PX00
      000000DCH   SFRSYM    DATA     BYTE      CMP_CR3
      000000F8H.0 SFRSYM    DATA     BIT       OISUH
      000000EAH   SFRSYM    DATA     WORD      PI_EK
      000000B8H.3 SFRSYM    DATA     BIT       PX01
      000000B8H.4 SFRSYM    DATA     BIT       PX10
      000000F8H.2 SFRSYM    DATA     BIT       OISVH
      000000B8H.5 SFRSYM    DATA     BIT       PX11
      000000F8H.1 SFRSYM    DATA     BIT       OISUL
      000000DDH   SFRSYM    DATA     BYTE      LPF_K
      000000F2H   SFRSYM    DATA     WORD      PI_KI
      000000A8H   SFRSYM    DATA     BYTE      IE
      000000F8H.3 SFRSYM    DATA     BIT       OISVL
      000000EEH   SFRSYM    DATA     WORD      PI_KP
      000000AAH   SFRSYM    DATA     WORD      TIM2__CNTR
      000000A2H   SFRSYM    DATA     WORD      TIM3__CNTR
      00000092H   SFRSYM    DATA     WORD      TIM4__CNTR
      000000ECH   SFRSYM    DATA     WORD      PI_UK
      000000DEH   SFRSYM    DATA     WORD      LPF_X
      00000098H.0 SFRSYM    DATA     BIT       RI
      00000098H.6 SFRSYM    DATA     BIT       UT_MOD0
      000000E6H   SFRSYM    DATA     WORD      LPF_Y
      00000098H.7 SFRSYM    DATA     BIT       UT_MOD1
      000000D0H.7 SFRSYM    DATA     BIT       CY
      00000098H.1 SFRSYM    DATA     BIT       TI
      000000C0H.2 SFRSYM    DATA     BIT       PTIM10
      00000084H   SFRSYM    DATA     BYTE      FLA_KEY
      000000C0H.0 SFRSYM    DATA     BIT       PTIM20
      000000C0H.3 SFRSYM    DATA     BIT       PTIM11
      00000098H   SFRSYM    DATA     BYTE      UT_CR
      000000C8H.2 SFRSYM    DATA     BIT       PTIM30
      000000C0H.1 SFRSYM    DATA     BIT       PTIM21
      00000099H   SFRSYM    DATA     BYTE      UT_DR
      000000C8H.3 SFRSYM    DATA     BIT       PTIM31
      000000D0H.2 SFRSYM    DATA     BIT       OV
      0000009AH   SFRSYM    DATA     WORD      UT_BAUD
      000000C4H   SFRSYM    DATA     WORD      MDU_DA01
      000000CCH   SFRSYM    DATA     WORD      MDU_DB01
      00000087H   SFRSYM    DATA     BYTE      PCON
      000000C6H   SFRSYM    DATA     WORD      MDU_DA23
      00000088H   SFRSYM    DATA     BYTE      TCON
      00000082H   SFRSYM    DATA     WORD      DPTR
      000000D8H.0 SFRSYM    DATA     BIT       PUART0
      000000D8H.1 SFRSYM    DATA     BIT       PUART1
      000000D8H.2 SFRSYM    DATA     BIT       PI2C0
      00000088H.2 SFRSYM    DATA     BIT       IF0
      000000D8H.3 SFRSYM    DATA     BIT       PI2C1
      000000AEH   SFRSYM    DATA     WORD      TIM2__ARR
      000000A1H   SFRSYM    DATA     BYTE      TIM2_CR0
      000000A6H   SFRSYM    DATA     WORD      TIM3__ARR
      0000009CH   SFRSYM    DATA     BYTE      TIM3_CR0
      000000A9H   SFRSYM    DATA     BYTE      TIM2_CR1
      00000096H   SFRSYM    DATA     WORD      TIM4__ARR
      0000009EH   SFRSYM    DATA     BYTE      TIM4_CR0
      0000009DH   SFRSYM    DATA     BYTE      TIM3_CR1
      000000F8H   SFRSYM    DATA     BYTE      DRV_OUT
      0000009FH   SFRSYM    DATA     BYTE      TIM4_CR1
      000000DBH   SFRSYM    DATA     BYTE      LVSR
      000000A8H.4 SFRSYM    DATA     BIT       ES0
      00000085H   SFRSYM    DATA     BYTE      FLA_CR
      000000C0H.4 SFRSYM    DATA     BIT       PADC0
LX51 LINKER/LOCATER V4.66.100.0                                                       10/12/2023  14:31:55  PAGE 32


      000000B8H   SFRSYM    DATA     BYTE      IP0
      000000C0H.5 SFRSYM    DATA     BIT       PADC1
      000000C0H   SFRSYM    DATA     BYTE      IP1
      000000C8H   SFRSYM    DATA     BYTE      IP2
      00000098H.2 SFRSYM    DATA     BIT       RB8
      000000D8H   SFRSYM    DATA     BYTE      IP3
      000000A8H.0 SFRSYM    DATA     BIT       EX0
      00000098H.3 SFRSYM    DATA     BIT       TB8
      000000A8H.2 SFRSYM    DATA     BIT       EX1
      000000D0H.0 SFRSYM    DATA     BIT       P
      000000F9H   SFRSYM    DATA     BYTE      PI_LPF_CR
      00000098H.5 SFRSYM    DATA     BIT       SM2
      000000D8H.6 SFRSYM    DATA     BIT       PDMA0
      000000D8H.7 SFRSYM    DATA     BIT       PDMA1
      000000C2H   SFRSYM    DATA     WORD      MDU_MA
      000000D0H.3 SFRSYM    DATA     BIT       RS0
      000000CAH   SFRSYM    DATA     WORD      MDU_MB
      000000D0H.4 SFRSYM    DATA     BIT       RS1
      000000C1H   SFRSYM    DATA     BYTE      MDU_CR
      000000F8H.7 SFRSYM    DATA     BIT       MOE
      000000C0H.6 SFRSYM    DATA     BIT       PCMP0
      000000C0H.7 SFRSYM    DATA     BIT       PCMP1
      000000F8H.4 SFRSYM    DATA     BIT       OISWXH
      00000098H.4 SFRSYM    DATA     BIT       REN
      000000D7H   SFRSYM    DATA     BYTE      CMP_SR
      000000F8H.5 SFRSYM    DATA     BIT       OISWXL
      000000C8H.6 SFRSYM    DATA     BIT       PTSD0
      000000D8H.4 SFRSYM    DATA     BIT       PSPI0
      000000C8H.7 SFRSYM    DATA     BIT       PTSD1
      000000B8H.6 SFRSYM    DATA     BIT       PDRV0
      000000D8H.5 SFRSYM    DATA     BIT       PSPI1
      000000B8H.7 SFRSYM    DATA     BIT       PDRV1
      000000D1H   SFRSYM    DATA     BYTE      P1_IE
      000000D3H   SFRSYM    DATA     BYTE      P2_IE
      000000D2H   SFRSYM    DATA     BYTE      P1_IF
      000000D4H   SFRSYM    DATA     BYTE      P2_IF
      000000ACH   SFRSYM    DATA     WORD      TIM2__DR
      000000C8H.4 SFRSYM    DATA     BIT       PTIM4S0
      000000FCH   SFRSYM    DATA     BYTE      P0_OE
      000000A4H   SFRSYM    DATA     WORD      TIM3__DR
      000000C8H.5 SFRSYM    DATA     BIT       PTIM4S1
      000000FDH   SFRSYM    DATA     BYTE      P1_OE
      00000094H   SFRSYM    DATA     WORD      TIM4__DR
      000000D0H.5 SFRSYM    DATA     BIT       F0
      000000FEH   SFRSYM    DATA     BYTE      P2_OE
      000000D0H.1 SFRSYM    DATA     BIT       F1
      000000FFH   SFRSYM    DATA     BYTE      P3_OE
      00000080H.0 SFRSYM    DATA     BIT       GP00
      000000E9H   SFRSYM    DATA     BYTE      P4_OE
      00000090H.0 SFRSYM    DATA     BIT       GP10
      00000080H.1 SFRSYM    DATA     BIT       GP01
      000000A0H.0 SFRSYM    DATA     BIT       GP20
      00000090H.1 SFRSYM    DATA     BIT       GP11
      00000080H.2 SFRSYM    DATA     BIT       GP02
      000000B0H.0 SFRSYM    DATA     BIT       GP30
      000000A0H.1 SFRSYM    DATA     BIT       GP21
      00000090H.2 SFRSYM    DATA     BIT       GP12
      00000080H.3 SFRSYM    DATA     BIT       GP03
      000000B8H.0 SFRSYM    DATA     BIT       PLVW0
      000000A8H.1 SFRSYM    DATA     BIT       TSDIE
      000000D0H   SFRSYM    DATA     BYTE      PSW
      000000E8H.0 SFRSYM    DATA     BIT       GP40
      000000B0H.1 SFRSYM    DATA     BIT       GP31
      000000A0H.2 SFRSYM    DATA     BIT       GP22
      00000090H.3 SFRSYM    DATA     BIT       GP13
LX51 LINKER/LOCATER V4.66.100.0                                                       10/12/2023  14:31:55  PAGE 33


      00000080H.4 SFRSYM    DATA     BIT       GP04
      000000B8H.1 SFRSYM    DATA     BIT       PLVW1
      000000A8H.3 SFRSYM    DATA     BIT       SPIIE
      00000088H.5 SFRSYM    DATA     BIT       TSDIF
      000000E8H.1 SFRSYM    DATA     BIT       GP41
      000000B0H.2 SFRSYM    DATA     BIT       GP32
      000000A0H.3 SFRSYM    DATA     BIT       GP23
      00000090H.4 SFRSYM    DATA     BIT       GP14
      00000080H.5 SFRSYM    DATA     BIT       GP05
      000000C4H   SFRSYM    DATA     BYTE      MDU_DA0
      000000E8H.2 SFRSYM    DATA     BIT       GP42
      000000B0H.3 SFRSYM    DATA     BIT       GP33
      000000A0H.4 SFRSYM    DATA     BIT       GP24
      00000090H.5 SFRSYM    DATA     BIT       GP15
      00000080H.6 SFRSYM    DATA     BIT       GP06
      000000CCH   SFRSYM    DATA     BYTE      MDU_DB0
      000000C5H   SFRSYM    DATA     BYTE      MDU_DA1
      00000088H.0 SFRSYM    DATA     BIT       IT00
      00000006H   SYMBOL    DATA     INT       Result
      00000004H   SYMBOL    DATA     INT       value

      010035ACH   BLOCK     CODE     ---       LVL=0
      010035ACH   LINE      CODE     ---       #144
      010035ACH   LINE      CODE     ---       #145
      010035ACH   LINE      CODE     ---       #146
      010035B3H   LINE      CODE     ---       #147
      010035B3H   LINE      CODE     ---       #148
      010035C2H   LINE      CODE     ---       #149
      010035C7H   LINE      CODE     ---       #150
      010035C7H   LINE      CODE     ---       #151
      010035CEH   LINE      CODE     ---       #152
      010035CEH   LINE      CODE     ---       #153
      010035E1H   LINE      CODE     ---       #154
      010035E6H   LINE      CODE     ---       #155
      010035E6H   LINE      CODE     ---       #156
      ---         BLOCKEND  ---      ---       LVL=0
      00000001H   SYMBOL    DATA     ---       h_Fault
      00000001H   SYMBOL    DATA     ---       h_Cur
      00000001H   SYMBOL    DATA     ---       h_Fault
      00000001H   SYMBOL    DATA     ---       h_Fault
      00000001H   SYMBOL    DATA     ---       h_Fault
      00000001H   SYMBOL    DATA     ---       h_Fault
      00000001H   SYMBOL    DATA     ---       h_Fault
      00000001H   SYMBOL    DATA     ---       hLedDisplay
      00000006H   SYMBOL    DATA     INT       Xn1
      00000001H   SYMBOL    DATA     ---       PIPara

      01003750H   BLOCK     CODE     ---       LVL=0
      02000284H   SYMBOL    XDATA    INT       Xn1
      00000004H   SYMBOL    DATA     INT       Xn0
      00000003H   SYMBOL    DATA     CHAR      K
      01003750H   LINE      CODE     ---       #1270
      01003758H   LINE      CODE     ---       #1271
      01003758H   LINE      CODE     ---       #1272
      0100375CH   LINE      CODE     ---       #1273
      01003768H   LINE      CODE     ---       #1274
      01003770H   LINE      CODE     ---       #1275
      01003773H   LINE      CODE     ---       #1276
      01003778H   LINE      CODE     ---       #1277
      0100377CH   LINE      CODE     ---       #1278
      ---         BLOCKEND  ---      ---       LVL=0

      01002D8BH   BLOCK     CODE     ---       LVL=0
      01002D8BH   LINE      CODE     ---       #1315
      01002D8BH   LINE      CODE     ---       #1316
LX51 LINKER/LOCATER V4.66.100.0                                                       10/12/2023  14:31:55  PAGE 34


      01002D8BH   LINE      CODE     ---       #1317
      01002D96H   LINE      CODE     ---       #1318
      01002D96H   LINE      CODE     ---       #1319
      01002DA5H   LINE      CODE     ---       #1320
      01002DA5H   LINE      CODE     ---       #1321
      01002DAFH   LINE      CODE     ---       #1322
      01002DB6H   LINE      CODE     ---       #1323
      01002DB7H   LINE      CODE     ---       #1324
      01002DBDH   LINE      CODE     ---       #1325
      01002DBDH   LINE      CODE     ---       #1326
      01002DC7H   LINE      CODE     ---       #1327
      01002DCEH   LINE      CODE     ---       #1328
      01002DCFH   LINE      CODE     ---       #1329
      01002DD5H   LINE      CODE     ---       #1330
      01002DD5H   LINE      CODE     ---       #1331
      01002DDFH   LINE      CODE     ---       #1332
      01002DE6H   LINE      CODE     ---       #1333
      01002DE7H   LINE      CODE     ---       #1334
      01002DEDH   LINE      CODE     ---       #1335
      01002DEDH   LINE      CODE     ---       #1336
      01002DF7H   LINE      CODE     ---       #1337
      01002DFEH   LINE      CODE     ---       #1338
      01002DFFH   LINE      CODE     ---       #1339
      01002E05H   LINE      CODE     ---       #1340
      01002E05H   LINE      CODE     ---       #1341
      01002E0FH   LINE      CODE     ---       #1342
      01002E16H   LINE      CODE     ---       #1343
      01002E16H   LINE      CODE     ---       #1345
      01002E16H   LINE      CODE     ---       #1346
      ---         BLOCKEND  ---      ---       LVL=0

      ---         MODULE    ---      ---       USERMAIN
      020002C6H   PUBLIC    XDATA    WORD      PowerUpCnt
      00000021H.3 PUBLIC    BIT      BIT       TestMode
      01002513H   PUBLIC    CODE     ---       main
      000000B0H.4 SFRSYM    DATA     BIT       GP34
      000000A0H.5 SFRSYM    DATA     BIT       GP25
      00000090H.6 SFRSYM    DATA     BIT       GP16
      00000080H.7 SFRSYM    DATA     BIT       GP07
      000000CDH   SFRSYM    DATA     BYTE      MDU_DB1
      000000C6H   SFRSYM    DATA     BYTE      MDU_DA2
      00000088H.1 SFRSYM    DATA     BIT       IT01
      00000088H.3 SFRSYM    DATA     BIT       IT10
      000000B0H.5 SFRSYM    DATA     BIT       GP35
      000000A0H.6 SFRSYM    DATA     BIT       GP26
      00000090H.7 SFRSYM    DATA     BIT       GP17
      00000080H   SFRSYM    DATA     BYTE      P0
      000000F6H   SFRSYM    DATA     WORD      PI_UKMIN
      000000C7H   SFRSYM    DATA     BYTE      MDU_DA3
      00000088H.4 SFRSYM    DATA     BIT       IT11
      000000C9H   SFRSYM    DATA     BYTE      RST_SR
      000000D9H   SFRSYM    DATA     BYTE      EVT_FILT
      000000B0H.6 SFRSYM    DATA     BIT       GP36
      000000A0H.7 SFRSYM    DATA     BIT       GP27
      00000090H   SFRSYM    DATA     BYTE      P1
      000000B0H.7 SFRSYM    DATA     BIT       GP37
      000000A0H   SFRSYM    DATA     BYTE      P2
      000000F4H   SFRSYM    DATA     WORD      PI_UKMAX
      000000B0H   SFRSYM    DATA     BYTE      P3
      000000E8H   SFRSYM    DATA     BYTE      P4
      000000D0H.6 SFRSYM    DATA     BIT       AC
      000000A8H.7 SFRSYM    DATA     BIT       EA
      000000D5H   SFRSYM    DATA     BYTE      CMP_CR0
      000000D6H   SFRSYM    DATA     BYTE      CMP_CR1
      000000DAH   SFRSYM    DATA     BYTE      CMP_CR2
LX51 LINKER/LOCATER V4.66.100.0                                                       10/12/2023  14:31:55  PAGE 35


      000000B8H.2 SFRSYM    DATA     BIT       PX00
      000000DCH   SFRSYM    DATA     BYTE      CMP_CR3
      000000F8H.0 SFRSYM    DATA     BIT       OISUH
      000000EAH   SFRSYM    DATA     WORD      PI_EK
      000000B8H.3 SFRSYM    DATA     BIT       PX01
      000000B8H.4 SFRSYM    DATA     BIT       PX10
      000000F8H.2 SFRSYM    DATA     BIT       OISVH
      000000B8H.5 SFRSYM    DATA     BIT       PX11
      000000F8H.1 SFRSYM    DATA     BIT       OISUL
      000000DDH   SFRSYM    DATA     BYTE      LPF_K
      000000F2H   SFRSYM    DATA     WORD      PI_KI
      000000A8H   SFRSYM    DATA     BYTE      IE
      000000F8H.3 SFRSYM    DATA     BIT       OISVL
      000000EEH   SFRSYM    DATA     WORD      PI_KP
      000000AAH   SFRSYM    DATA     WORD      TIM2__CNTR
      000000A2H   SFRSYM    DATA     WORD      TIM3__CNTR
      00000092H   SFRSYM    DATA     WORD      TIM4__CNTR
      000000ECH   SFRSYM    DATA     WORD      PI_UK
      000000DEH   SFRSYM    DATA     WORD      LPF_X
      00000098H.0 SFRSYM    DATA     BIT       RI
      00000098H.6 SFRSYM    DATA     BIT       UT_MOD0
      000000E6H   SFRSYM    DATA     WORD      LPF_Y
      00000098H.7 SFRSYM    DATA     BIT       UT_MOD1
      000000D0H.7 SFRSYM    DATA     BIT       CY
      00000098H.1 SFRSYM    DATA     BIT       TI
      000000C0H.2 SFRSYM    DATA     BIT       PTIM10
      00000084H   SFRSYM    DATA     BYTE      FLA_KEY
      000000C0H.0 SFRSYM    DATA     BIT       PTIM20
      000000C0H.3 SFRSYM    DATA     BIT       PTIM11
      00000098H   SFRSYM    DATA     BYTE      UT_CR
      000000C8H.2 SFRSYM    DATA     BIT       PTIM30
      000000C0H.1 SFRSYM    DATA     BIT       PTIM21
      00000099H   SFRSYM    DATA     BYTE      UT_DR
      000000C8H.3 SFRSYM    DATA     BIT       PTIM31
      000000D0H.2 SFRSYM    DATA     BIT       OV
      0000009AH   SFRSYM    DATA     WORD      UT_BAUD
      000000C4H   SFRSYM    DATA     WORD      MDU_DA01
      000000CCH   SFRSYM    DATA     WORD      MDU_DB01
      00000087H   SFRSYM    DATA     BYTE      PCON
      000000C6H   SFRSYM    DATA     WORD      MDU_DA23
      00000088H   SFRSYM    DATA     BYTE      TCON
      00000082H   SFRSYM    DATA     WORD      DPTR
      000000D8H.0 SFRSYM    DATA     BIT       PUART0
      000000D8H.1 SFRSYM    DATA     BIT       PUART1
      000000D8H.2 SFRSYM    DATA     BIT       PI2C0
      00000088H.2 SFRSYM    DATA     BIT       IF0
      000000D8H.3 SFRSYM    DATA     BIT       PI2C1
      000000AEH   SFRSYM    DATA     WORD      TIM2__ARR
      000000A1H   SFRSYM    DATA     BYTE      TIM2_CR0
      000000A6H   SFRSYM    DATA     WORD      TIM3__ARR
      0000009CH   SFRSYM    DATA     BYTE      TIM3_CR0
      000000A9H   SFRSYM    DATA     BYTE      TIM2_CR1
      00000096H   SFRSYM    DATA     WORD      TIM4__ARR
      0000009EH   SFRSYM    DATA     BYTE      TIM4_CR0
      0000009DH   SFRSYM    DATA     BYTE      TIM3_CR1
      000000F8H   SFRSYM    DATA     BYTE      DRV_OUT
      0000009FH   SFRSYM    DATA     BYTE      TIM4_CR1
      000000DBH   SFRSYM    DATA     BYTE      LVSR
      000000A8H.4 SFRSYM    DATA     BIT       ES0
      00000085H   SFRSYM    DATA     BYTE      FLA_CR
      000000C0H.4 SFRSYM    DATA     BIT       PADC0
      000000B8H   SFRSYM    DATA     BYTE      IP0
      000000C0H.5 SFRSYM    DATA     BIT       PADC1
      000000C0H   SFRSYM    DATA     BYTE      IP1
      000000C8H   SFRSYM    DATA     BYTE      IP2
LX51 LINKER/LOCATER V4.66.100.0                                                       10/12/2023  14:31:55  PAGE 36


      00000098H.2 SFRSYM    DATA     BIT       RB8
      000000D8H   SFRSYM    DATA     BYTE      IP3
      000000A8H.0 SFRSYM    DATA     BIT       EX0
      00000098H.3 SFRSYM    DATA     BIT       TB8
      000000A8H.2 SFRSYM    DATA     BIT       EX1
      000000D0H.0 SFRSYM    DATA     BIT       P
      000000F9H   SFRSYM    DATA     BYTE      PI_LPF_CR
      00000098H.5 SFRSYM    DATA     BIT       SM2
      000000D8H.6 SFRSYM    DATA     BIT       PDMA0
      000000D8H.7 SFRSYM    DATA     BIT       PDMA1
      000000C2H   SFRSYM    DATA     WORD      MDU_MA
      000000D0H.3 SFRSYM    DATA     BIT       RS0
      000000CAH   SFRSYM    DATA     WORD      MDU_MB
      000000D0H.4 SFRSYM    DATA     BIT       RS1
      000000C1H   SFRSYM    DATA     BYTE      MDU_CR
      000000F8H.7 SFRSYM    DATA     BIT       MOE
      000000C0H.6 SFRSYM    DATA     BIT       PCMP0
      000000C0H.7 SFRSYM    DATA     BIT       PCMP1
      000000F8H.4 SFRSYM    DATA     BIT       OISWXH
      00000098H.4 SFRSYM    DATA     BIT       REN
      000000D7H   SFRSYM    DATA     BYTE      CMP_SR
      000000F8H.5 SFRSYM    DATA     BIT       OISWXL
      000000C8H.6 SFRSYM    DATA     BIT       PTSD0
      000000D8H.4 SFRSYM    DATA     BIT       PSPI0
      000000C8H.7 SFRSYM    DATA     BIT       PTSD1
      000000B8H.6 SFRSYM    DATA     BIT       PDRV0
      000000D8H.5 SFRSYM    DATA     BIT       PSPI1
      000000B8H.7 SFRSYM    DATA     BIT       PDRV1
      000000D1H   SFRSYM    DATA     BYTE      P1_IE
      000000D3H   SFRSYM    DATA     BYTE      P2_IE
      000000D2H   SFRSYM    DATA     BYTE      P1_IF
      000000D4H   SFRSYM    DATA     BYTE      P2_IF
      000000ACH   SFRSYM    DATA     WORD      TIM2__DR
      000000C8H.4 SFRSYM    DATA     BIT       PTIM4S0
      000000FCH   SFRSYM    DATA     BYTE      P0_OE
      000000A4H   SFRSYM    DATA     WORD      TIM3__DR
      000000C8H.5 SFRSYM    DATA     BIT       PTIM4S1
      000000FDH   SFRSYM    DATA     BYTE      P1_OE
      00000094H   SFRSYM    DATA     WORD      TIM4__DR
      000000D0H.5 SFRSYM    DATA     BIT       F0
      000000FEH   SFRSYM    DATA     BYTE      P2_OE
      000000D0H.1 SFRSYM    DATA     BIT       F1
      000000FFH   SFRSYM    DATA     BYTE      P3_OE
      00000080H.0 SFRSYM    DATA     BIT       GP00
      000000E9H   SFRSYM    DATA     BYTE      P4_OE
      00000090H.0 SFRSYM    DATA     BIT       GP10
      00000080H.1 SFRSYM    DATA     BIT       GP01
      000000A0H.0 SFRSYM    DATA     BIT       GP20
      00000090H.1 SFRSYM    DATA     BIT       GP11
      00000080H.2 SFRSYM    DATA     BIT       GP02
      000000B0H.0 SFRSYM    DATA     BIT       GP30
      000000A0H.1 SFRSYM    DATA     BIT       GP21
      00000090H.2 SFRSYM    DATA     BIT       GP12
      00000080H.3 SFRSYM    DATA     BIT       GP03
      000000B8H.0 SFRSYM    DATA     BIT       PLVW0
      000000A8H.1 SFRSYM    DATA     BIT       TSDIE
      000000D0H   SFRSYM    DATA     BYTE      PSW
      000000E8H.0 SFRSYM    DATA     BIT       GP40
      000000B0H.1 SFRSYM    DATA     BIT       GP31
      000000A0H.2 SFRSYM    DATA     BIT       GP22
      00000090H.3 SFRSYM    DATA     BIT       GP13
      00000080H.4 SFRSYM    DATA     BIT       GP04
      000000B8H.1 SFRSYM    DATA     BIT       PLVW1
      000000A8H.3 SFRSYM    DATA     BIT       SPIIE
      00000088H.5 SFRSYM    DATA     BIT       TSDIF
LX51 LINKER/LOCATER V4.66.100.0                                                       10/12/2023  14:31:55  PAGE 37


      000000E8H.1 SFRSYM    DATA     BIT       GP41
      000000B0H.2 SFRSYM    DATA     BIT       GP32
      000000A0H.3 SFRSYM    DATA     BIT       GP23
      00000090H.4 SFRSYM    DATA     BIT       GP14
      00000080H.5 SFRSYM    DATA     BIT       GP05
      000000C4H   SFRSYM    DATA     BYTE      MDU_DA0
      000000E8H.2 SFRSYM    DATA     BIT       GP42
      000000B0H.3 SFRSYM    DATA     BIT       GP33
      000000A0H.4 SFRSYM    DATA     BIT       GP24
      00000090H.5 SFRSYM    DATA     BIT       GP15
      00000080H.6 SFRSYM    DATA     BIT       GP06
      000000CCH   SFRSYM    DATA     BYTE      MDU_DB0
      000000C5H   SFRSYM    DATA     BYTE      MDU_DA1
      00000088H.0 SFRSYM    DATA     BIT       IT00

      01002513H   BLOCK     CODE     ---       LVL=0
      01002513H   BLOCK     CODE     NEAR LAB  LVL=1
      00000006H   SYMBOL    DATA     ---       addr_x
      00000007H   SYMBOL    DATA     ---       addr_i
      ---         BLOCKEND  ---      ---       LVL=1
      01002513H   LINE      CODE     ---       #41
      01002513H   LINE      CODE     ---       #42
      01002513H   LINE      CODE     ---       #51
      0100251AH   LINE      CODE     ---       #52
      0100252FH   LINE      CODE     ---       #53
      0100252FH   LINE      CODE     ---       #55
      01002537H   LINE      CODE     ---       #56
      0100253EH   LINE      CODE     ---       #59
      0100254AH   LINE      CODE     ---       #60
      01002557H   LINE      CODE     ---       #65
      0100255BH   LINE      CODE     ---       #70
      0100255EH   LINE      CODE     ---       #73
      01002561H   LINE      CODE     ---       #76
      01002566H   LINE      CODE     ---       #77
      0100256AH   LINE      CODE     ---       #84
      0100256DH   LINE      CODE     ---       #87
      01002570H   LINE      CODE     ---       #88
      01002573H   LINE      CODE     ---       #89
      01002576H   LINE      CODE     ---       #104
      01002579H   LINE      CODE     ---       #111
      0100257CH   LINE      CODE     ---       #114
      0100257FH   LINE      CODE     ---       #117
      01002582H   LINE      CODE     ---       #120
      01002585H   LINE      CODE     ---       #123
      01002588H   LINE      CODE     ---       #126
      0100258EH   LINE      CODE     ---       #127
      0100258EH   LINE      CODE     ---       #128
      01002590H   LINE      CODE     ---       #130
      01002594H   LINE      CODE     ---       #131
      01002598H   LINE      CODE     ---       #133
      0100259CH   LINE      CODE     ---       #134
      010025A0H   LINE      CODE     ---       #136
      010025A4H   LINE      CODE     ---       #137
      010025A7H   LINE      CODE     ---       #138
      010025A7H   LINE      CODE     ---       #141
      010025AAH   LINE      CODE     ---       #154
      010025ADH   LINE      CODE     ---       #160
      010025B0H   LINE      CODE     ---       #164
      010025B0H   LINE      CODE     ---       #165
      010025B0H   LINE      CODE     ---       #166
      010025B6H   LINE      CODE     ---       #167
      010025B6H   LINE      CODE     ---       #168
      010025B9H   LINE      CODE     ---       #172
      010025C0H   LINE      CODE     ---       #173
      010025C0H   LINE      CODE     ---       #174
LX51 LINKER/LOCATER V4.66.100.0                                                       10/12/2023  14:31:55  PAGE 38


      010025C7H   LINE      CODE     ---       #175
      010025D6H   LINE      CODE     ---       #176
      010025D6H   LINE      CODE     ---       #177
      010025D8H   LINE      CODE     ---       #179
      010025D8H   LINE      CODE     ---       #181
      010025DFH   LINE      CODE     ---       #182
      010025DFH   LINE      CODE     ---       #183
      010025E1H   LINE      CODE     ---       #185
      010025E4H   LINE      CODE     ---       #188
      010025E7H   LINE      CODE     ---       #192
      010025EEH   LINE      CODE     ---       #193
      010025EEH   LINE      CODE     ---       #194
      010025F0H   LINE      CODE     ---       #195
      010025F3H   LINE      CODE     ---       #196
      010025F3H   LINE      CODE     ---       #199
      01002604H   LINE      CODE     ---       #200
      01002604H   LINE      CODE     ---       #201
      0100260AH   LINE      CODE     ---       #202
      01002612H   LINE      CODE     ---       #203
      01002614H   LINE      CODE     ---       #204
      0100261FH   LINE      CODE     ---       #205
      0100261FH   LINE      CODE     ---       #206
      01002624H   LINE      CODE     ---       #207
      0100262AH   LINE      CODE     ---       #208
      0100262AH   LINE      CODE     ---       #211
      0100262DH   LINE      CODE     ---       #214
      01002630H   LINE      CODE     ---       #218
      01002633H   LINE      CODE     ---       #224
      01002633H   LINE      CODE     ---       #225
      01002633H   LINE      CODE     ---       #226
      ---         BLOCKEND  ---      ---       LVL=0

      ---         MODULE    ---      ---       USERINTERRUPT
      01003940H   PUBLIC    CODE     ---       USART_INT
      010018B5H   PUBLIC    CODE     ---       TIM_1MS_INT
      01002C5AH   PUBLIC    CODE     ---       CMP_ISR
      01003407H   PUBLIC    CODE     ---       FOC_INT
      0100381DH   PUBLIC    CODE     ---       EXTERN_INT
      010034E9H   PUBLIC    CODE     ---       FO_INT
      000000B0H.4 SFRSYM    DATA     BIT       GP34
      000000A0H.5 SFRSYM    DATA     BIT       GP25
      00000090H.6 SFRSYM    DATA     BIT       GP16
      00000080H.7 SFRSYM    DATA     BIT       GP07
      000000CDH   SFRSYM    DATA     BYTE      MDU_DB1
      000000C6H   SFRSYM    DATA     BYTE      MDU_DA2
      00000088H.1 SFRSYM    DATA     BIT       IT01
      00000088H.3 SFRSYM    DATA     BIT       IT10
      000000B0H.5 SFRSYM    DATA     BIT       GP35
      000000A0H.6 SFRSYM    DATA     BIT       GP26
      00000090H.7 SFRSYM    DATA     BIT       GP17
      00000080H   SFRSYM    DATA     BYTE      P0
      000000F6H   SFRSYM    DATA     WORD      PI_UKMIN
      000000C7H   SFRSYM    DATA     BYTE      MDU_DA3
      00000088H.4 SFRSYM    DATA     BIT       IT11
      000000C9H   SFRSYM    DATA     BYTE      RST_SR
      000000D9H   SFRSYM    DATA     BYTE      EVT_FILT
      000000B0H.6 SFRSYM    DATA     BIT       GP36
      000000A0H.7 SFRSYM    DATA     BIT       GP27
      00000090H   SFRSYM    DATA     BYTE      P1
      000000B0H.7 SFRSYM    DATA     BIT       GP37
      000000A0H   SFRSYM    DATA     BYTE      P2
      000000F4H   SFRSYM    DATA     WORD      PI_UKMAX
      000000B0H   SFRSYM    DATA     BYTE      P3
      000000E8H   SFRSYM    DATA     BYTE      P4
      000000D0H.6 SFRSYM    DATA     BIT       AC
LX51 LINKER/LOCATER V4.66.100.0                                                       10/12/2023  14:31:55  PAGE 39


      000000A8H.7 SFRSYM    DATA     BIT       EA
      000000D5H   SFRSYM    DATA     BYTE      CMP_CR0
      000000D6H   SFRSYM    DATA     BYTE      CMP_CR1
      000000DAH   SFRSYM    DATA     BYTE      CMP_CR2
      000000B8H.2 SFRSYM    DATA     BIT       PX00
      000000DCH   SFRSYM    DATA     BYTE      CMP_CR3
      000000F8H.0 SFRSYM    DATA     BIT       OISUH
      000000EAH   SFRSYM    DATA     WORD      PI_EK
      000000B8H.3 SFRSYM    DATA     BIT       PX01
      000000B8H.4 SFRSYM    DATA     BIT       PX10
      000000F8H.2 SFRSYM    DATA     BIT       OISVH
      000000B8H.5 SFRSYM    DATA     BIT       PX11
      000000F8H.1 SFRSYM    DATA     BIT       OISUL
      000000DDH   SFRSYM    DATA     BYTE      LPF_K
      000000F2H   SFRSYM    DATA     WORD      PI_KI
      000000A8H   SFRSYM    DATA     BYTE      IE
      000000F8H.3 SFRSYM    DATA     BIT       OISVL
      000000EEH   SFRSYM    DATA     WORD      PI_KP
      000000AAH   SFRSYM    DATA     WORD      TIM2__CNTR
      000000A2H   SFRSYM    DATA     WORD      TIM3__CNTR
      00000092H   SFRSYM    DATA     WORD      TIM4__CNTR
      000000ECH   SFRSYM    DATA     WORD      PI_UK
      000000DEH   SFRSYM    DATA     WORD      LPF_X
      00000098H.0 SFRSYM    DATA     BIT       RI
      00000098H.6 SFRSYM    DATA     BIT       UT_MOD0
      000000E6H   SFRSYM    DATA     WORD      LPF_Y
      00000098H.7 SFRSYM    DATA     BIT       UT_MOD1
      000000D0H.7 SFRSYM    DATA     BIT       CY
      00000098H.1 SFRSYM    DATA     BIT       TI
      000000C0H.2 SFRSYM    DATA     BIT       PTIM10
      00000084H   SFRSYM    DATA     BYTE      FLA_KEY
      000000C0H.0 SFRSYM    DATA     BIT       PTIM20
      000000C0H.3 SFRSYM    DATA     BIT       PTIM11
      00000098H   SFRSYM    DATA     BYTE      UT_CR
      000000C8H.2 SFRSYM    DATA     BIT       PTIM30
      000000C0H.1 SFRSYM    DATA     BIT       PTIM21
      00000099H   SFRSYM    DATA     BYTE      UT_DR
      000000C8H.3 SFRSYM    DATA     BIT       PTIM31
      000000D0H.2 SFRSYM    DATA     BIT       OV
      0000009AH   SFRSYM    DATA     WORD      UT_BAUD
      000000C4H   SFRSYM    DATA     WORD      MDU_DA01
      000000CCH   SFRSYM    DATA     WORD      MDU_DB01
      00000087H   SFRSYM    DATA     BYTE      PCON
      000000C6H   SFRSYM    DATA     WORD      MDU_DA23
      00000088H   SFRSYM    DATA     BYTE      TCON
      00000082H   SFRSYM    DATA     WORD      DPTR
      000000D8H.0 SFRSYM    DATA     BIT       PUART0
      000000D8H.1 SFRSYM    DATA     BIT       PUART1
      000000D8H.2 SFRSYM    DATA     BIT       PI2C0
      00000088H.2 SFRSYM    DATA     BIT       IF0
      000000D8H.3 SFRSYM    DATA     BIT       PI2C1
      000000AEH   SFRSYM    DATA     WORD      TIM2__ARR
      000000A1H   SFRSYM    DATA     BYTE      TIM2_CR0
      000000A6H   SFRSYM    DATA     WORD      TIM3__ARR
      0000009CH   SFRSYM    DATA     BYTE      TIM3_CR0
      000000A9H   SFRSYM    DATA     BYTE      TIM2_CR1
      00000096H   SFRSYM    DATA     WORD      TIM4__ARR
      0000009EH   SFRSYM    DATA     BYTE      TIM4_CR0
      0000009DH   SFRSYM    DATA     BYTE      TIM3_CR1
      000000F8H   SFRSYM    DATA     BYTE      DRV_OUT
      0000009FH   SFRSYM    DATA     BYTE      TIM4_CR1
      000000DBH   SFRSYM    DATA     BYTE      LVSR
      000000A8H.4 SFRSYM    DATA     BIT       ES0
      00000085H   SFRSYM    DATA     BYTE      FLA_CR
      000000C0H.4 SFRSYM    DATA     BIT       PADC0
LX51 LINKER/LOCATER V4.66.100.0                                                       10/12/2023  14:31:55  PAGE 40


      000000B8H   SFRSYM    DATA     BYTE      IP0
      000000C0H.5 SFRSYM    DATA     BIT       PADC1
      000000C0H   SFRSYM    DATA     BYTE      IP1
      000000C8H   SFRSYM    DATA     BYTE      IP2
      00000098H.2 SFRSYM    DATA     BIT       RB8
      000000D8H   SFRSYM    DATA     BYTE      IP3
      000000A8H.0 SFRSYM    DATA     BIT       EX0
      00000098H.3 SFRSYM    DATA     BIT       TB8
      000000A8H.2 SFRSYM    DATA     BIT       EX1
      000000D0H.0 SFRSYM    DATA     BIT       P
      000000F9H   SFRSYM    DATA     BYTE      PI_LPF_CR
      00000098H.5 SFRSYM    DATA     BIT       SM2
      000000D8H.6 SFRSYM    DATA     BIT       PDMA0
      000000D8H.7 SFRSYM    DATA     BIT       PDMA1
      000000C2H   SFRSYM    DATA     WORD      MDU_MA
      000000D0H.3 SFRSYM    DATA     BIT       RS0
      000000CAH   SFRSYM    DATA     WORD      MDU_MB
      000000D0H.4 SFRSYM    DATA     BIT       RS1
      000000C1H   SFRSYM    DATA     BYTE      MDU_CR
      000000F8H.7 SFRSYM    DATA     BIT       MOE
      000000C0H.6 SFRSYM    DATA     BIT       PCMP0
      000000C0H.7 SFRSYM    DATA     BIT       PCMP1
      000000F8H.4 SFRSYM    DATA     BIT       OISWXH
      00000098H.4 SFRSYM    DATA     BIT       REN
      000000D7H   SFRSYM    DATA     BYTE      CMP_SR
      000000F8H.5 SFRSYM    DATA     BIT       OISWXL
      000000C8H.6 SFRSYM    DATA     BIT       PTSD0
      000000D8H.4 SFRSYM    DATA     BIT       PSPI0
      000000C8H.7 SFRSYM    DATA     BIT       PTSD1
      000000B8H.6 SFRSYM    DATA     BIT       PDRV0
      000000D8H.5 SFRSYM    DATA     BIT       PSPI1
      000000B8H.7 SFRSYM    DATA     BIT       PDRV1
      000000D1H   SFRSYM    DATA     BYTE      P1_IE
      000000D3H   SFRSYM    DATA     BYTE      P2_IE
      000000D2H   SFRSYM    DATA     BYTE      P1_IF
      000000D4H   SFRSYM    DATA     BYTE      P2_IF
      000000ACH   SFRSYM    DATA     WORD      TIM2__DR
      000000C8H.4 SFRSYM    DATA     BIT       PTIM4S0
      000000FCH   SFRSYM    DATA     BYTE      P0_OE
      000000A4H   SFRSYM    DATA     WORD      TIM3__DR
      000000C8H.5 SFRSYM    DATA     BIT       PTIM4S1
      000000FDH   SFRSYM    DATA     BYTE      P1_OE
      00000094H   SFRSYM    DATA     WORD      TIM4__DR
      000000D0H.5 SFRSYM    DATA     BIT       F0
      000000FEH   SFRSYM    DATA     BYTE      P2_OE
      000000D0H.1 SFRSYM    DATA     BIT       F1
      000000FFH   SFRSYM    DATA     BYTE      P3_OE
      00000080H.0 SFRSYM    DATA     BIT       GP00
      000000E9H   SFRSYM    DATA     BYTE      P4_OE
      00000090H.0 SFRSYM    DATA     BIT       GP10
      00000080H.1 SFRSYM    DATA     BIT       GP01
      000000A0H.0 SFRSYM    DATA     BIT       GP20
      00000090H.1 SFRSYM    DATA     BIT       GP11
      00000080H.2 SFRSYM    DATA     BIT       GP02
      000000B0H.0 SFRSYM    DATA     BIT       GP30
      000000A0H.1 SFRSYM    DATA     BIT       GP21
      00000090H.2 SFRSYM    DATA     BIT       GP12
      00000080H.3 SFRSYM    DATA     BIT       GP03
      000000B8H.0 SFRSYM    DATA     BIT       PLVW0
      000000A8H.1 SFRSYM    DATA     BIT       TSDIE
      000000D0H   SFRSYM    DATA     BYTE      PSW
      000000E8H.0 SFRSYM    DATA     BIT       GP40
      000000B0H.1 SFRSYM    DATA     BIT       GP31
      000000A0H.2 SFRSYM    DATA     BIT       GP22
      00000090H.3 SFRSYM    DATA     BIT       GP13
LX51 LINKER/LOCATER V4.66.100.0                                                       10/12/2023  14:31:55  PAGE 41


      00000080H.4 SFRSYM    DATA     BIT       GP04
      000000B8H.1 SFRSYM    DATA     BIT       PLVW1
      000000A8H.3 SFRSYM    DATA     BIT       SPIIE
      00000088H.5 SFRSYM    DATA     BIT       TSDIF
      000000E8H.1 SFRSYM    DATA     BIT       GP41
      000000B0H.2 SFRSYM    DATA     BIT       GP32
      000000A0H.3 SFRSYM    DATA     BIT       GP23
      00000090H.4 SFRSYM    DATA     BIT       GP14
      00000080H.5 SFRSYM    DATA     BIT       GP05
      000000C4H   SFRSYM    DATA     BYTE      MDU_DA0
      000000E8H.2 SFRSYM    DATA     BIT       GP42
      000000B0H.3 SFRSYM    DATA     BIT       GP33
      000000A0H.4 SFRSYM    DATA     BIT       GP24
      00000090H.5 SFRSYM    DATA     BIT       GP15
      00000080H.6 SFRSYM    DATA     BIT       GP06
      000000CCH   SFRSYM    DATA     BYTE      MDU_DB0
      000000C5H   SFRSYM    DATA     BYTE      MDU_DA1
      00000088H.0 SFRSYM    DATA     BIT       IT00

      010034E9H   BLOCK     CODE     ---       LVL=0
      010034E9H   LINE      CODE     ---       #32
      01003506H   LINE      CODE     ---       #34
      01003509H   LINE      CODE     ---       #35
      0100350CH   LINE      CODE     ---       #36
      01003510H   LINE      CODE     ---       #37
      ---         BLOCKEND  ---      ---       LVL=0

      0100381DH   BLOCK     CODE     ---       LVL=0
      0100381DH   LINE      CODE     ---       #44
      01003824H   LINE      CODE     ---       #46
      01003826H   LINE      CODE     ---       #47
      0100382AH   LINE      CODE     ---       #48
      0100382EH   LINE      CODE     ---       #49
      01003831H   LINE      CODE     ---       #50
      01003835H   LINE      CODE     ---       #51
      01003839H   LINE      CODE     ---       #52
      ---         BLOCKEND  ---      ---       LVL=0

      01003407H   BLOCK     CODE     ---       LVL=0
      01003407H   LINE      CODE     ---       #59
      01003424H   LINE      CODE     ---       #61
      0100342BH   LINE      CODE     ---       #62
      0100342BH   LINE      CODE     ---       #63
      0100342EH   LINE      CODE     ---       #64
      01003431H   LINE      CODE     ---       #65
      01003438H   LINE      CODE     ---       #66
      01003438H   LINE      CODE     ---       #67
      ---         BLOCKEND  ---      ---       LVL=0

      01002C5AH   BLOCK     CODE     ---       LVL=0
      01002C5AH   LINE      CODE     ---       #75
      01002C77H   LINE      CODE     ---       #77
      01002C7CH   LINE      CODE     ---       #78
      01002C7CH   LINE      CODE     ---       #79
      01002C84H   LINE      CODE     ---       #80
      01002C84H   LINE      CODE     ---       #84
      01002C87H   LINE      CODE     ---       #85
      01002C8AH   LINE      CODE     ---       #86
      01002C8EH   LINE      CODE     ---       #87
      01002C90H   LINE      CODE     ---       #89
      01002C90H   LINE      CODE     ---       #90
      01002C92H   LINE      CODE     ---       #91
      01002CA9H   LINE      CODE     ---       #92
      01002CCEH   LINE      CODE     ---       #93
      01002CD3H   LINE      CODE     ---       #94
LX51 LINKER/LOCATER V4.66.100.0                                                       10/12/2023  14:31:55  PAGE 42


      01002CD9H   LINE      CODE     ---       #95
      01002CD9H   LINE      CODE     ---       #96
      01002CDCH   LINE      CODE     ---       #97
      01002CDCH   LINE      CODE     ---       #103
      ---         BLOCKEND  ---      ---       LVL=0

      010018B5H   BLOCK     CODE     ---       LVL=0
      010018B5H   LINE      CODE     ---       #110
      010018D2H   LINE      CODE     ---       #112
      010018DCH   LINE      CODE     ---       #113
      010018DCH   LINE      CODE     ---       #114
      010018E3H   LINE      CODE     ---       #116
      010018E9H   LINE      CODE     ---       #119
      010018F0H   LINE      CODE     ---       #120
      010018F0H   LINE      CODE     ---       #121
      0100190AH   LINE      CODE     ---       #122
      01001925H   LINE      CODE     ---       #123
      01001925H   LINE      CODE     ---       #126
      01001931H   LINE      CODE     ---       #127
      01001931H   LINE      CODE     ---       #128
      0100194EH   LINE      CODE     ---       #129
      0100196BH   LINE      CODE     ---       #130
      0100196DH   LINE      CODE     ---       #132
      0100196DH   LINE      CODE     ---       #133
      01001974H   LINE      CODE     ---       #134
      01001974H   LINE      CODE     ---       #137
      01001991H   LINE      CODE     ---       #138
      010019AEH   LINE      CODE     ---       #141
      010019D4H   LINE      CODE     ---       #144
      010019EDH   LINE      CODE     ---       #145
      01001A0AH   LINE      CODE     ---       #148
      01001A23H   LINE      CODE     ---       #149
      01001A40H   LINE      CODE     ---       #152
      01001A66H   LINE      CODE     ---       #155
      01001A81H   LINE      CODE     ---       #156
      01001A94H   LINE      CODE     ---       #157
      01001AA0H   LINE      CODE     ---       #159
      01001AAFH   LINE      CODE     ---       #160
      01001AAFH   LINE      CODE     ---       #161
      01001ABBH   LINE      CODE     ---       #162
      01001ABEH   LINE      CODE     ---       #163
      01001ABEH   LINE      CODE     ---       #165
      01001AC5H   LINE      CODE     ---       #166
      01001AC5H   LINE      CODE     ---       #167
      01001AD4H   LINE      CODE     ---       #168
      01001AE0H   LINE      CODE     ---       #169
      01001AE0H   LINE      CODE     ---       #172
      01001AE3H   LINE      CODE     ---       #175
      01001AEAH   LINE      CODE     ---       #176
      01001AEAH   LINE      CODE     ---       #179
      01001AEAH   LINE      CODE     ---       #180
      01001AEDH   LINE      CODE     ---       #181
      01001AEDH   LINE      CODE     ---       #183
      01001AEDH   LINE      CODE     ---       #184
      01001AF0H   LINE      CODE     ---       #185
      01001AF0H   LINE      CODE     ---       #187
      01001AF0H   LINE      CODE     ---       #188
      01001AF3H   LINE      CODE     ---       #189
      01001AF3H   LINE      CODE     ---       #190
      ---         BLOCKEND  ---      ---       LVL=0

      01003940H   BLOCK     CODE     ---       LVL=0
      01003940H   LINE      CODE     ---       #198
      01003940H   LINE      CODE     ---       #200
      01003943H   LINE      CODE     ---       #201
LX51 LINKER/LOCATER V4.66.100.0                                                       10/12/2023  14:31:55  PAGE 43


      01003943H   LINE      CODE     ---       #205
      01003945H   LINE      CODE     ---       #206
      01003945H   LINE      CODE     ---       #208
      01003948H   LINE      CODE     ---       #209
      01003948H   LINE      CODE     ---       #213
      0100394AH   LINE      CODE     ---       #214
      0100394AH   LINE      CODE     ---       #215
      ---         BLOCKEND  ---      ---       LVL=0

      ---         MODULE    ---      ---       USERADDFUNC
      0200027EH   PUBLIC    XDATA    INT       SpdPIErr
      0200027CH   PUBLIC    XDATA    INT       UIPIErr
      02000278H   PUBLIC    XDATA    LONG      SpdErr
      02000274H   PUBLIC    XDATA    LONG      UIErr
      02000272H   PUBLIC    XDATA    WORD      focek2
      02000270H   PUBLIC    XDATA    INT       IBusPIErr
      0200026EH   PUBLIC    XDATA    INT       IBusError
      010023ECH   PUBLIC    CODE     ---       CheckStallFault
      01002011H   PUBLIC    CODE     ---       CheckStartFault
      01001B0EH   PUBLIC    CODE     ---       Regulation
      01002FA5H   PUBLIC    CODE     ---       EK_deal
      010038EFH   PUBLIC    CODE     ---       _IBusPI
      010035E7H   PUBLIC    CODE     ---       SetFaultResatrt
      01003934H   PUBLIC    CODE     ---       CancleResatrt
      010038B8H   PUBLIC    CODE     ---       ShutPerform
      000000B0H.4 SFRSYM    DATA     BIT       GP34
      000000A0H.5 SFRSYM    DATA     BIT       GP25
      00000090H.6 SFRSYM    DATA     BIT       GP16
      00000080H.7 SFRSYM    DATA     BIT       GP07
      000000CDH   SFRSYM    DATA     BYTE      MDU_DB1
      000000C6H   SFRSYM    DATA     BYTE      MDU_DA2
      00000088H.1 SFRSYM    DATA     BIT       IT01
      00000088H.3 SFRSYM    DATA     BIT       IT10
      000000B0H.5 SFRSYM    DATA     BIT       GP35
      000000A0H.6 SFRSYM    DATA     BIT       GP26
      00000090H.7 SFRSYM    DATA     BIT       GP17
      00000080H   SFRSYM    DATA     BYTE      P0
      000000F6H   SFRSYM    DATA     WORD      PI_UKMIN
      000000C7H   SFRSYM    DATA     BYTE      MDU_DA3
      00000088H.4 SFRSYM    DATA     BIT       IT11
      000000C9H   SFRSYM    DATA     BYTE      RST_SR
      000000D9H   SFRSYM    DATA     BYTE      EVT_FILT
      000000B0H.6 SFRSYM    DATA     BIT       GP36
      000000A0H.7 SFRSYM    DATA     BIT       GP27
      00000090H   SFRSYM    DATA     BYTE      P1
      000000B0H.7 SFRSYM    DATA     BIT       GP37
      000000A0H   SFRSYM    DATA     BYTE      P2
      000000F4H   SFRSYM    DATA     WORD      PI_UKMAX
      000000B0H   SFRSYM    DATA     BYTE      P3
      000000E8H   SFRSYM    DATA     BYTE      P4
      000000D0H.6 SFRSYM    DATA     BIT       AC
      000000A8H.7 SFRSYM    DATA     BIT       EA
      000000D5H   SFRSYM    DATA     BYTE      CMP_CR0
      000000D6H   SFRSYM    DATA     BYTE      CMP_CR1
      000000DAH   SFRSYM    DATA     BYTE      CMP_CR2
      000000B8H.2 SFRSYM    DATA     BIT       PX00
      000000DCH   SFRSYM    DATA     BYTE      CMP_CR3
      000000F8H.0 SFRSYM    DATA     BIT       OISUH
      000000EAH   SFRSYM    DATA     WORD      PI_EK
      000000B8H.3 SFRSYM    DATA     BIT       PX01
      000000B8H.4 SFRSYM    DATA     BIT       PX10
      000000F8H.2 SFRSYM    DATA     BIT       OISVH
      000000B8H.5 SFRSYM    DATA     BIT       PX11
      000000F8H.1 SFRSYM    DATA     BIT       OISUL
      000000DDH   SFRSYM    DATA     BYTE      LPF_K
LX51 LINKER/LOCATER V4.66.100.0                                                       10/12/2023  14:31:55  PAGE 44


      000000F2H   SFRSYM    DATA     WORD      PI_KI
      000000A8H   SFRSYM    DATA     BYTE      IE
      000000F8H.3 SFRSYM    DATA     BIT       OISVL
      000000EEH   SFRSYM    DATA     WORD      PI_KP
      000000AAH   SFRSYM    DATA     WORD      TIM2__CNTR
      000000A2H   SFRSYM    DATA     WORD      TIM3__CNTR
      00000092H   SFRSYM    DATA     WORD      TIM4__CNTR
      000000ECH   SFRSYM    DATA     WORD      PI_UK
      000000DEH   SFRSYM    DATA     WORD      LPF_X
      00000098H.0 SFRSYM    DATA     BIT       RI
      00000098H.6 SFRSYM    DATA     BIT       UT_MOD0
      000000E6H   SFRSYM    DATA     WORD      LPF_Y
      00000098H.7 SFRSYM    DATA     BIT       UT_MOD1
      000000D0H.7 SFRSYM    DATA     BIT       CY
      00000098H.1 SFRSYM    DATA     BIT       TI
      000000C0H.2 SFRSYM    DATA     BIT       PTIM10
      00000084H   SFRSYM    DATA     BYTE      FLA_KEY
      000000C0H.0 SFRSYM    DATA     BIT       PTIM20
      000000C0H.3 SFRSYM    DATA     BIT       PTIM11
      00000098H   SFRSYM    DATA     BYTE      UT_CR
      000000C8H.2 SFRSYM    DATA     BIT       PTIM30
      000000C0H.1 SFRSYM    DATA     BIT       PTIM21
      00000099H   SFRSYM    DATA     BYTE      UT_DR
      000000C8H.3 SFRSYM    DATA     BIT       PTIM31
      000000D0H.2 SFRSYM    DATA     BIT       OV
      0000009AH   SFRSYM    DATA     WORD      UT_BAUD
      000000C4H   SFRSYM    DATA     WORD      MDU_DA01
      000000CCH   SFRSYM    DATA     WORD      MDU_DB01
      00000087H   SFRSYM    DATA     BYTE      PCON
      000000C6H   SFRSYM    DATA     WORD      MDU_DA23
      00000088H   SFRSYM    DATA     BYTE      TCON
      00000082H   SFRSYM    DATA     WORD      DPTR
      000000D8H.0 SFRSYM    DATA     BIT       PUART0
      000000D8H.1 SFRSYM    DATA     BIT       PUART1
      000000D8H.2 SFRSYM    DATA     BIT       PI2C0
      00000088H.2 SFRSYM    DATA     BIT       IF0
      000000D8H.3 SFRSYM    DATA     BIT       PI2C1
      000000AEH   SFRSYM    DATA     WORD      TIM2__ARR
      000000A1H   SFRSYM    DATA     BYTE      TIM2_CR0
      000000A6H   SFRSYM    DATA     WORD      TIM3__ARR
      0000009CH   SFRSYM    DATA     BYTE      TIM3_CR0
      000000A9H   SFRSYM    DATA     BYTE      TIM2_CR1
      00000096H   SFRSYM    DATA     WORD      TIM4__ARR
      0000009EH   SFRSYM    DATA     BYTE      TIM4_CR0
      0000009DH   SFRSYM    DATA     BYTE      TIM3_CR1
      000000F8H   SFRSYM    DATA     BYTE      DRV_OUT
      0000009FH   SFRSYM    DATA     BYTE      TIM4_CR1
      000000DBH   SFRSYM    DATA     BYTE      LVSR
      000000A8H.4 SFRSYM    DATA     BIT       ES0
      00000085H   SFRSYM    DATA     BYTE      FLA_CR
      000000C0H.4 SFRSYM    DATA     BIT       PADC0
      000000B8H   SFRSYM    DATA     BYTE      IP0
      000000C0H.5 SFRSYM    DATA     BIT       PADC1
      000000C0H   SFRSYM    DATA     BYTE      IP1
      000000C8H   SFRSYM    DATA     BYTE      IP2
      00000098H.2 SFRSYM    DATA     BIT       RB8
      000000D8H   SFRSYM    DATA     BYTE      IP3
      000000A8H.0 SFRSYM    DATA     BIT       EX0
      00000098H.3 SFRSYM    DATA     BIT       TB8
      000000A8H.2 SFRSYM    DATA     BIT       EX1
      000000D0H.0 SFRSYM    DATA     BIT       P
      000000F9H   SFRSYM    DATA     BYTE      PI_LPF_CR
      00000098H.5 SFRSYM    DATA     BIT       SM2
      000000D8H.6 SFRSYM    DATA     BIT       PDMA0
      000000D8H.7 SFRSYM    DATA     BIT       PDMA1
LX51 LINKER/LOCATER V4.66.100.0                                                       10/12/2023  14:31:55  PAGE 45


      000000C2H   SFRSYM    DATA     WORD      MDU_MA
      000000D0H.3 SFRSYM    DATA     BIT       RS0
      000000CAH   SFRSYM    DATA     WORD      MDU_MB
      000000D0H.4 SFRSYM    DATA     BIT       RS1
      000000C1H   SFRSYM    DATA     BYTE      MDU_CR
      000000F8H.7 SFRSYM    DATA     BIT       MOE
      000000C0H.6 SFRSYM    DATA     BIT       PCMP0
      000000C0H.7 SFRSYM    DATA     BIT       PCMP1
      000000F8H.4 SFRSYM    DATA     BIT       OISWXH
      00000098H.4 SFRSYM    DATA     BIT       REN
      000000D7H   SFRSYM    DATA     BYTE      CMP_SR
      000000F8H.5 SFRSYM    DATA     BIT       OISWXL
      000000C8H.6 SFRSYM    DATA     BIT       PTSD0
      000000D8H.4 SFRSYM    DATA     BIT       PSPI0
      000000C8H.7 SFRSYM    DATA     BIT       PTSD1
      000000B8H.6 SFRSYM    DATA     BIT       PDRV0
      000000D8H.5 SFRSYM    DATA     BIT       PSPI1
      000000B8H.7 SFRSYM    DATA     BIT       PDRV1
      000000D1H   SFRSYM    DATA     BYTE      P1_IE
      000000D3H   SFRSYM    DATA     BYTE      P2_IE
      000000D2H   SFRSYM    DATA     BYTE      P1_IF
      000000D4H   SFRSYM    DATA     BYTE      P2_IF
      000000ACH   SFRSYM    DATA     WORD      TIM2__DR
      000000C8H.4 SFRSYM    DATA     BIT       PTIM4S0
      000000FCH   SFRSYM    DATA     BYTE      P0_OE
      000000A4H   SFRSYM    DATA     WORD      TIM3__DR
      000000C8H.5 SFRSYM    DATA     BIT       PTIM4S1
      000000FDH   SFRSYM    DATA     BYTE      P1_OE
      00000094H   SFRSYM    DATA     WORD      TIM4__DR
      000000D0H.5 SFRSYM    DATA     BIT       F0
      000000FEH   SFRSYM    DATA     BYTE      P2_OE
      000000D0H.1 SFRSYM    DATA     BIT       F1
      000000FFH   SFRSYM    DATA     BYTE      P3_OE
      00000080H.0 SFRSYM    DATA     BIT       GP00
      000000E9H   SFRSYM    DATA     BYTE      P4_OE
      00000090H.0 SFRSYM    DATA     BIT       GP10
      00000080H.1 SFRSYM    DATA     BIT       GP01
      000000A0H.0 SFRSYM    DATA     BIT       GP20
      00000090H.1 SFRSYM    DATA     BIT       GP11
      00000080H.2 SFRSYM    DATA     BIT       GP02
      000000B0H.0 SFRSYM    DATA     BIT       GP30
      000000A0H.1 SFRSYM    DATA     BIT       GP21
      00000090H.2 SFRSYM    DATA     BIT       GP12
      00000080H.3 SFRSYM    DATA     BIT       GP03
      000000B8H.0 SFRSYM    DATA     BIT       PLVW0
      000000A8H.1 SFRSYM    DATA     BIT       TSDIE
      000000D0H   SFRSYM    DATA     BYTE      PSW
      000000E8H.0 SFRSYM    DATA     BIT       GP40
      000000B0H.1 SFRSYM    DATA     BIT       GP31
      000000A0H.2 SFRSYM    DATA     BIT       GP22
      00000090H.3 SFRSYM    DATA     BIT       GP13
      00000080H.4 SFRSYM    DATA     BIT       GP04
      000000B8H.1 SFRSYM    DATA     BIT       PLVW1
      000000A8H.3 SFRSYM    DATA     BIT       SPIIE
      00000088H.5 SFRSYM    DATA     BIT       TSDIF
      000000E8H.1 SFRSYM    DATA     BIT       GP41
      000000B0H.2 SFRSYM    DATA     BIT       GP32
      000000A0H.3 SFRSYM    DATA     BIT       GP23
      00000090H.4 SFRSYM    DATA     BIT       GP14
      00000080H.5 SFRSYM    DATA     BIT       GP05
      000000C4H   SFRSYM    DATA     BYTE      MDU_DA0
      000000E8H.2 SFRSYM    DATA     BIT       GP42
      000000B0H.3 SFRSYM    DATA     BIT       GP33
      000000A0H.4 SFRSYM    DATA     BIT       GP24
      00000090H.5 SFRSYM    DATA     BIT       GP15
LX51 LINKER/LOCATER V4.66.100.0                                                       10/12/2023  14:31:55  PAGE 46


      00000080H.6 SFRSYM    DATA     BIT       GP06
      000000CCH   SFRSYM    DATA     BYTE      MDU_DB0
      000000C5H   SFRSYM    DATA     BYTE      MDU_DA1
      00000088H.0 SFRSYM    DATA     BIT       IT00

      010038B8H   BLOCK     CODE     ---       LVL=0
      010038B8H   LINE      CODE     ---       #46
      010038B8H   LINE      CODE     ---       #47
      010038B8H   LINE      CODE     ---       #48
      010038BAH   LINE      CODE     ---       #49
      010038C1H   LINE      CODE     ---       #50
      010038C6H   LINE      CODE     ---       #52
      010038CAH   LINE      CODE     ---       #53
      010038CFH   LINE      CODE     ---       #55
      010038D3H   LINE      CODE     ---       #56
      ---         BLOCKEND  ---      ---       LVL=0

      01003934H   BLOCK     CODE     ---       LVL=0
      01003934H   LINE      CODE     ---       #60
      01003934H   LINE      CODE     ---       #61
      01003934H   LINE      CODE     ---       #62
      01003939H   LINE      CODE     ---       #63
      0100393FH   LINE      CODE     ---       #64
      ---         BLOCKEND  ---      ---       LVL=0

      010035E7H   BLOCK     CODE     ---       LVL=0
      010035E7H   LINE      CODE     ---       #68
      010035E7H   LINE      CODE     ---       #69
      010035E7H   LINE      CODE     ---       #70
      010035EDH   LINE      CODE     ---       #71
      010035EDH   LINE      CODE     ---       #72
      010035EFH   LINE      CODE     ---       #74
      01003607H   LINE      CODE     ---       #75
      01003607H   LINE      CODE     ---       #76
      01003611H   LINE      CODE     ---       #77
      01003619H   LINE      CODE     ---       #78
      0100361AH   LINE      CODE     ---       #80
      0100361DH   LINE      CODE     ---       #81
      0100361DH   LINE      CODE     ---       #82
      ---         BLOCKEND  ---      ---       LVL=0

      010038EFH   BLOCK     CODE     ---       LVL=0
      00000006H   SYMBOL    DATA     INT       err
      010038EFH   LINE      CODE     ---       #113
      010038EFH   LINE      CODE     ---       #114
      010038EFH   LINE      CODE     ---       #116
      010038F3H   LINE      CODE     ---       #117
      010038F6H   LINE      CODE     ---       #118
      010038FCH   LINE      CODE     ---       #120
      01003906H   LINE      CODE     ---       #129
      ---         BLOCKEND  ---      ---       LVL=0

      01002FA5H   BLOCK     CODE     ---       LVL=0
      01002FA5H   LINE      CODE     ---       #131
      01002FA5H   LINE      CODE     ---       #132
      01002FA5H   LINE      CODE     ---       #133
      01002FB6H   LINE      CODE     ---       #134
      01002FB6H   LINE      CODE     ---       #135
      01002FC5H   LINE      CODE     ---       #136
      01002FD0H   LINE      CODE     ---       #137
      01002FDCH   LINE      CODE     ---       #138
      01002FDDH   LINE      CODE     ---       #139
      01002FEEH   LINE      CODE     ---       #140
      01002FEEH   LINE      CODE     ---       #141
      01002FFDH   LINE      CODE     ---       #142
LX51 LINKER/LOCATER V4.66.100.0                                                       10/12/2023  14:31:55  PAGE 47


      01003008H   LINE      CODE     ---       #143
      01003014H   LINE      CODE     ---       #144
      01003015H   LINE      CODE     ---       #146
      01003015H   LINE      CODE     ---       #147
      0100301FH   LINE      CODE     ---       #148
      0100301FH   LINE      CODE     ---       #149
      ---         BLOCKEND  ---      ---       LVL=0

      01001B0EH   BLOCK     CODE     ---       LVL=0
      01001B0EH   LINE      CODE     ---       #161
      01001B0EH   LINE      CODE     ---       #162
      01001B0EH   LINE      CODE     ---       #163
      01001B1FH   LINE      CODE     ---       #164
      01001B1FH   LINE      CODE     ---       #165
      01001B3EH   LINE      CODE     ---       #166
      01001B3EH   LINE      CODE     ---       #167
      01001B3EH   LINE      CODE     ---       #168
      01001B3EH   LINE      CODE     ---       #169
      01001B52H   LINE      CODE     ---       #170
      01001B52H   LINE      CODE     ---       #171
      01001B5BH   LINE      CODE     ---       #172
      01001B62H   LINE      CODE     ---       #174
      01001B68H   LINE      CODE     ---       #175
      01001B6DH   LINE      CODE     ---       #189
      01001B6DH   LINE      CODE     ---       #190
      01001B75H   LINE      CODE     ---       #192
      01001B84H   LINE      CODE     ---       #193
      01001B90H   LINE      CODE     ---       #195
      01001B96H   LINE      CODE     ---       #196
      01001B9CH   LINE      CODE     ---       #199
      01001B9CH   LINE      CODE     ---       #202
      01001BA2H   LINE      CODE     ---       #203
      01001BA8H   LINE      CODE     ---       #206
      01001BA8H   LINE      CODE     ---       #207
      01001BA8H   LINE      CODE     ---       #208
      01001BA9H   LINE      CODE     ---       #209
      01001BA9H   LINE      CODE     ---       #210
      01001BA9H   LINE      CODE     ---       #233
      01001BA9H   LINE      CODE     ---       #273
      01001BDEH   LINE      CODE     ---       #277
      01001BF7H   LINE      CODE     ---       #278
      01001BF7H   LINE      CODE     ---       #279
      01001C0EH   LINE      CODE     ---       #280
      01001C18H   LINE      CODE     ---       #281
      01001C1AH   LINE      CODE     ---       #283
      01001C1AH   LINE      CODE     ---       #284
      01001C36H   LINE      CODE     ---       #285
      01001C40H   LINE      CODE     ---       #286
      01001C40H   LINE      CODE     ---       #288
      01001C54H   LINE      CODE     ---       #289
      01001C5EH   LINE      CODE     ---       #292
      01001C5EH   LINE      CODE     ---       #295
      01001C61H   LINE      CODE     ---       #296
      01001C61H   LINE      CODE     ---       #297
      01001C62H   LINE      CODE     ---       #298
      01001C62H   LINE      CODE     ---       #299
      01001C62H   LINE      CODE     ---       #300
      01001C7AH   LINE      CODE     ---       #301
      01001C7AH   LINE      CODE     ---       #302
      01001C81H   LINE      CODE     ---       #311
      01001C9DH   LINE      CODE     ---       #314
      01001CB8H   LINE      CODE     ---       #315
      01001CC4H   LINE      CODE     ---       #316
      01001CE0H   LINE      CODE     ---       #317
      01001CECH   LINE      CODE     ---       #319
LX51 LINKER/LOCATER V4.66.100.0                                                       10/12/2023  14:31:55  PAGE 48


      01001CFFH   LINE      CODE     ---       #321
      01001D0AH   LINE      CODE     ---       #323
      01001D0DH   LINE      CODE     ---       #324
      01001D0DH   LINE      CODE     ---       #325
      01001D0DH   LINE      CODE     ---       #326
      01001D0DH   LINE      CODE     ---       #327
      01001D0DH   LINE      CODE     ---       #328
      ---         BLOCKEND  ---      ---       LVL=0

      01002011H   BLOCK     CODE     ---       LVL=0
      01002011H   LINE      CODE     ---       #332
      01002011H   LINE      CODE     ---       #333
      01002011H   LINE      CODE     ---       #337
      0100201CH   LINE      CODE     ---       #338
      0100201CH   LINE      CODE     ---       #340
      0100202DH   LINE      CODE     ---       #341
      0100202DH   LINE      CODE     ---       #342
      01002039H   LINE      CODE     ---       #343
      01002058H   LINE      CODE     ---       #344
      01002058H   LINE      CODE     ---       #345
      0100205FH   LINE      CODE     ---       #346
      01002063H   LINE      CODE     ---       #348
      01002067H   LINE      CODE     ---       #349
      0100206CH   LINE      CODE     ---       #350
      0100206FH   LINE      CODE     ---       #351
      01002072H   LINE      CODE     ---       #352
      01002072H   LINE      CODE     ---       #353
      01002072H   LINE      CODE     ---       #356
      01002086H   LINE      CODE     ---       #357
      01002086H   LINE      CODE     ---       #358
      01002092H   LINE      CODE     ---       #359
      010020A0H   LINE      CODE     ---       #360
      010020B4H   LINE      CODE     ---       #361
      010020B4H   LINE      CODE     ---       #362
      010020BBH   LINE      CODE     ---       #363
      010020C9H   LINE      CODE     ---       #364
      010020C9H   LINE      CODE     ---       #365
      010020D7H   LINE      CODE     ---       #366
      010020E8H   LINE      CODE     ---       #367
      010020E8H   LINE      CODE     ---       #368
      010020EFH   LINE      CODE     ---       #369
      010020F5H   LINE      CODE     ---       #370
      010020F9H   LINE      CODE     ---       #372
      010020FDH   LINE      CODE     ---       #373
      01002103H   LINE      CODE     ---       #374
      01002106H   LINE      CODE     ---       #375
      01002109H   LINE      CODE     ---       #376
      01002109H   LINE      CODE     ---       #377
      0100210BH   LINE      CODE     ---       #379
      0100210BH   LINE      CODE     ---       #380
      0100211CH   LINE      CODE     ---       #381
      01002128H   LINE      CODE     ---       #382
      01002128H   LINE      CODE     ---       #383
      01002128H   LINE      CODE     ---       #384
      0100212AH   LINE      CODE     ---       #386
      0100212AH   LINE      CODE     ---       #387
      01002131H   LINE      CODE     ---       #388
      01002131H   LINE      CODE     ---       #390
      0100213BH   LINE      CODE     ---       #391
      0100213BH   LINE      CODE     ---       #392
      01002149H   LINE      CODE     ---       #393
      0100215AH   LINE      CODE     ---       #394
      0100215AH   LINE      CODE     ---       #395
      0100215EH   LINE      CODE     ---       #396
      01002162H   LINE      CODE     ---       #398
LX51 LINKER/LOCATER V4.66.100.0                                                       10/12/2023  14:31:55  PAGE 49


      01002166H   LINE      CODE     ---       #399
      0100216CH   LINE      CODE     ---       #400
      0100216FH   LINE      CODE     ---       #401
      01002172H   LINE      CODE     ---       #402
      01002172H   LINE      CODE     ---       #403
      01002172H   LINE      CODE     ---       #404
      01002172H   LINE      CODE     ---       #405
      ---         BLOCKEND  ---      ---       LVL=0

      010023ECH   BLOCK     CODE     ---       LVL=0
      010023ECH   LINE      CODE     ---       #409
      010023ECH   LINE      CODE     ---       #410
      010023ECH   LINE      CODE     ---       #412
      010023F7H   LINE      CODE     ---       #413
      010023F7H   LINE      CODE     ---       #414
      01002406H   LINE      CODE     ---       #415
      01002406H   LINE      CODE     ---       #416
      01002412H   LINE      CODE     ---       #417
      01002413H   LINE      CODE     ---       #419
      01002413H   LINE      CODE     ---       #422
      0100243CH   LINE      CODE     ---       #423
      0100243CH   LINE      CODE     ---       #424
      0100244AH   LINE      CODE     ---       #425
      01002459H   LINE      CODE     ---       #426
      01002459H   LINE      CODE     ---       #428
      0100245DH   LINE      CODE     ---       #429
      01002461H   LINE      CODE     ---       #431
      01002466H   LINE      CODE     ---       #432
      01002469H   LINE      CODE     ---       #433
      0100246CH   LINE      CODE     ---       #434
      0100246FH   LINE      CODE     ---       #436
      0100246FH   LINE      CODE     ---       #437
      01002471H   LINE      CODE     ---       #439
      01002471H   LINE      CODE     ---       #440
      01002480H   LINE      CODE     ---       #441
      0100248CH   LINE      CODE     ---       #442
      0100248CH   LINE      CODE     ---       #444
      010024A9H   LINE      CODE     ---       #445
      010024A9H   LINE      CODE     ---       #446
      010024B7H   LINE      CODE     ---       #447
      010024C6H   LINE      CODE     ---       #448
      010024C6H   LINE      CODE     ---       #449
      010024CAH   LINE      CODE     ---       #450
      010024CEH   LINE      CODE     ---       #452
      010024DEH   LINE      CODE     ---       #453
      010024E6H   LINE      CODE     ---       #455
      010024ECH   LINE      CODE     ---       #456
      010024F0H   LINE      CODE     ---       #457
      010024F3H   LINE      CODE     ---       #458
      010024F6H   LINE      CODE     ---       #459
      010024F6H   LINE      CODE     ---       #460
      010024F7H   LINE      CODE     ---       #462
      010024F7H   LINE      CODE     ---       #463
      01002506H   LINE      CODE     ---       #464
      01002512H   LINE      CODE     ---       #465
      01002512H   LINE      CODE     ---       #466
      01002512H   LINE      CODE     ---       #467
      01002512H   LINE      CODE     ---       #468
      ---         BLOCKEND  ---      ---       LVL=0

      ---         MODULE    ---      ---       USERFRAME
      00000062H   PUBLIC    IDATA    BYTE      AlarmStuck
      00000060H   PUBLIC    IDATA    INT       DrvTemperCelsius
      02000143H   PUBLIC    XDATA    BYTE      DrvEnTrig
      0000005EH   PUBLIC    IDATA    INT       VspSpdCmd
LX51 LINKER/LOCATER V4.66.100.0                                                       10/12/2023  14:31:55  PAGE 50


      0000005AH   PUBLIC    IDATA    DWORD     MaxRPMOfStop
      02000141H   PUBLIC    XDATA    WORD      IBusWarningCnt
      00000059H   PUBLIC    IDATA    BYTE      AlarmOverCurrent
      0200013FH   PUBLIC    XDATA    WORD      AutostartCnt
      0200013DH   PUBLIC    XDATA    WORD      IBusCommandX10
      00000058H   PUBLIC    IDATA    BYTE      FlagHighSpeed
      00000057H   PUBLIC    IDATA    BYTE      FlagHighTemper
      0200013CH   PUBLIC    XDATA    BYTE      ReStartCnt
      00000053H   PUBLIC    IDATA    DWORD     VspPowerAlt
      00000052H   PUBLIC    IDATA    BYTE      AlarmFlag
      0200013BH   PUBLIC    XDATA    BYTE      StartCmdLv
      0200013BH   PUBLIC    XDATA    ---       KeyOn
      00000051H   PUBLIC    IDATA    BYTE      AlarmHighSpeed
      00000050H   PUBLIC    IDATA    BYTE      FlagHardBeark
      0200013AH   PUBLIC    XDATA    BYTE      DrvRefTrig
      02000138H   PUBLIC    XDATA    WORD      PwrOnX1ms
      0000004FH   PUBLIC    IDATA    BYTE      AlarmHighTemper
      02000136H   PUBLIC    XDATA    WORD      UBusLowKeepCnt
      02000135H   PUBLIC    XDATA    BYTE      DrvEnFlag
      02000134H   PUBLIC    XDATA    BYTE      Loop10msFlag
      02000133H   PUBLIC    XDATA    BYTE      UBusLowCnt
      02000131H   PUBLIC    XDATA    WORD      IBusCommandAlt
      0000004EH   PUBLIC    IDATA    BYTE      AlarmHardBeark
      0000004DH   PUBLIC    IDATA    BYTE      FlagLowVolt
      02000130H   PUBLIC    XDATA    BYTE      Loop1msCnt
      0200012FH   PUBLIC    XDATA    BYTE      OCLv
      0200012DH   PUBLIC    XDATA    WORD      DrvTempADCSmpFilt
      0200012CH   PUBLIC    XDATA    BYTE      Restart10msCnt
      0200012BH   PUBLIC    XDATA    BYTE      StartFailLv
      02000129H   PUBLIC    XDATA    WORD      RunningX1ms
      02000128H   PUBLIC    XDATA    BYTE      StuckLv
      02000127H   PUBLIC    XDATA    BYTE      UBusMaxCnt
      0000004BH   PUBLIC    IDATA    INT       Vsp_Q12
      02000125H   PUBLIC    XDATA    WORD      UBusNormKeepCnt
      0000004AH   PUBLIC    IDATA    BYTE      AlarmLowVolt
      02000123H   PUBLIC    XDATA    WORD      IbusADCOffset
      02000121H   PUBLIC    XDATA    INT       PulseDuty_Q12
      02000120H   PUBLIC    XDATA    BYTE      HiTemperCnt
      00000046H   PUBLIC    IDATA    DWORD     UxISmp
      0200011EH   PUBLIC    XDATA    WORD      IBusCommand_mA
      0200011DH   PUBLIC    XDATA    BYTE      GivenDutyDisFlag
      0200011CH   PUBLIC    XDATA    BYTE      DrvHystericLv
      0200011AH   PUBLIC    XDATA    WORD      UBusX10
      02000118H   PUBLIC    XDATA    WORD      GivenDuty_Q12
      00000044H   PUBLIC    IDATA    WORD      MaxPower
      00000042H   PUBLIC    IDATA    WORD      MinPower
      02000116H   PUBLIC    XDATA    WORD      UBusSmp
      02000114H   PUBLIC    XDATA    WORD      KeyGoDutyMax
      02000112H   PUBLIC    XDATA    WORD      AlarmX10msCnt
      00000041H   PUBLIC    IDATA    BYTE      NoVZeroCrossX1ms
      0000003FH   PUBLIC    IDATA    WORD      MaxSpdOfStop
      0000003EH   PUBLIC    IDATA    BYTE      FlagOverWind
      02000110H   PUBLIC    XDATA    WORD      IBusOCCnt
      0200010FH   PUBLIC    XDATA    BYTE      HeatProtectLv
      0000003DH   PUBLIC    IDATA    BYTE      VZeroCrossCnt
      0200010EH   PUBLIC    XDATA    BYTE      Loop1msFlag
      0200010CH   PUBLIC    XDATA    WORD      RePowerRunDly
      0200010BH   PUBLIC    XDATA    BYTE      UBusHighCnt
      02000109H   PUBLIC    XDATA    WORD      UBusMax
      02000107H   PUBLIC    XDATA    WORD      IBusSmp
      0000003CH   PUBLIC    IDATA    BYTE      FlagHighVolt
      02000106H   PUBLIC    XDATA    BYTE      PowerLose
      0000003BH   PUBLIC    IDATA    BYTE      VZeroCrossGetFlag
      0000003AH   PUBLIC    IDATA    BYTE      FlagStartLose
      00000039H   PUBLIC    IDATA    BYTE      AlarmOverWind
LX51 LINKER/LOCATER V4.66.100.0                                                       10/12/2023  14:31:55  PAGE 51


      00000037H   PUBLIC    IDATA    INT       VspSpdCmdMax
      00000036H   PUBLIC    IDATA    BYTE      VZeroCrossOK
      02000105H   PUBLIC    XDATA    BYTE      LowVoltLv
      00000035H   PUBLIC    IDATA    BYTE      AlarmFlag2
      02000104H   PUBLIC    XDATA    BYTE      KeyOnOffTrig
      02000103H   PUBLIC    XDATA    BYTE      HiSpdLv
      02000101H   PUBLIC    XDATA    WORD      McIdleX1ms
      00000034H   PUBLIC    IDATA    BYTE      VZeroCrossLose
      02000100H   PUBLIC    XDATA    BYTE      KeyOnOffCmd
      00000033H   PUBLIC    IDATA    BYTE      AlarmHighVolt
      00000032H   PUBLIC    IDATA    BYTE      AlarmStartLose
      020000FEH   PUBLIC    XDATA    WORD      IBusFilt_mA
      020000FDH   PUBLIC    XDATA    BYTE      SumUpTrig
      00000031H   PUBLIC    IDATA    BYTE      FlagPhaseLoss
      020000FBH   PUBLIC    XDATA    WORD      ReStartDlyX10ms
      020000FAH   PUBLIC    XDATA    BYTE      RunTrigger
      020000F8H   PUBLIC    XDATA    WORD      UBusADCSmpFilt
      020000F7H   PUBLIC    XDATA    BYTE      QuickStartFlag
      0000002FH   PUBLIC    IDATA    WORD      DrvTemperADCVal
      020000F6H   PUBLIC    XDATA    BYTE      StartCmdLvAlt
      0000002BH   PUBLIC    IDATA    DWORD     VspPwrCmd
      020000F4H   PUBLIC    XDATA    WORD      VoltKeepLowCnt
      020000F2H   PUBLIC    XDATA    WORD      KeyGoDuty
      020000F1H   PUBLIC    XDATA    BYTE      FltReStartTrig
      020000F0H   PUBLIC    XDATA    BYTE      ReStartDlyCmd
      0000002AH   PUBLIC    IDATA    BYTE      FlagStuck
      00000029H   PUBLIC    IDATA    BYTE      AlarmPhaseLoss
      020000EFH   PUBLIC    XDATA    BYTE      HearterPMWDutyDowm
      020000EEH   PUBLIC    XDATA    BYTE      Loop10msCnt
      00000027H   PUBLIC    IDATA    INT       VspSpdAlt
      00000023H   PUBLIC    IDATA    DWORD     MotorRPM
      020000ECH   PUBLIC    XDATA    WORD      ExpectedDrvRef
      020000EBH   PUBLIC    XDATA    BYTE      HearterPMWDutyRise
      00000022H   PUBLIC    IDATA    BYTE      FlagOverCurrent
      020000E9H   PUBLIC    XDATA    WORD      IBusADCSmpFilt
      020000E8H   PUBLIC    XDATA    BYTE      UBusFall
      00000021H.4 PUBLIC    BIT      BIT       CheckTemperTurn
      010014E0H   PUBLIC    CODE     ---       CommandPer10ms
      01001045H   PUBLIC    CODE     ---       LoopProPer1ms
      010031E1H   PUBLIC    CODE     ---       VspSpeedRamp
      01003020H   PUBLIC    CODE     ---       VspIBusRamp
      0100335DH   PUBLIC    CODE     ---       CalAlarmFlag
      01003721H   PUBLIC    CODE     ---       UserParas
      000000B0H.4 SFRSYM    DATA     BIT       GP34
      000000A0H.5 SFRSYM    DATA     BIT       GP25
      00000090H.6 SFRSYM    DATA     BIT       GP16
      00000080H.7 SFRSYM    DATA     BIT       GP07
      000000CDH   SFRSYM    DATA     BYTE      MDU_DB1
      000000C6H   SFRSYM    DATA     BYTE      MDU_DA2
      00000088H.1 SFRSYM    DATA     BIT       IT01
      00000088H.3 SFRSYM    DATA     BIT       IT10
      000000B0H.5 SFRSYM    DATA     BIT       GP35
      000000A0H.6 SFRSYM    DATA     BIT       GP26
      00000090H.7 SFRSYM    DATA     BIT       GP17
      00000080H   SFRSYM    DATA     BYTE      P0
      000000F6H   SFRSYM    DATA     WORD      PI_UKMIN
      000000C7H   SFRSYM    DATA     BYTE      MDU_DA3
      00000088H.4 SFRSYM    DATA     BIT       IT11
      000000C9H   SFRSYM    DATA     BYTE      RST_SR
      000000D9H   SFRSYM    DATA     BYTE      EVT_FILT
      000000B0H.6 SFRSYM    DATA     BIT       GP36
      000000A0H.7 SFRSYM    DATA     BIT       GP27
      00000090H   SFRSYM    DATA     BYTE      P1
      000000B0H.7 SFRSYM    DATA     BIT       GP37
      000000A0H   SFRSYM    DATA     BYTE      P2
LX51 LINKER/LOCATER V4.66.100.0                                                       10/12/2023  14:31:55  PAGE 52


      000000F4H   SFRSYM    DATA     WORD      PI_UKMAX
      000000B0H   SFRSYM    DATA     BYTE      P3
      000000E8H   SFRSYM    DATA     BYTE      P4
      000000D0H.6 SFRSYM    DATA     BIT       AC
      000000A8H.7 SFRSYM    DATA     BIT       EA
      000000D5H   SFRSYM    DATA     BYTE      CMP_CR0
      000000D6H   SFRSYM    DATA     BYTE      CMP_CR1
      000000DAH   SFRSYM    DATA     BYTE      CMP_CR2
      000000B8H.2 SFRSYM    DATA     BIT       PX00
      000000DCH   SFRSYM    DATA     BYTE      CMP_CR3
      000000F8H.0 SFRSYM    DATA     BIT       OISUH
      000000EAH   SFRSYM    DATA     WORD      PI_EK
      000000B8H.3 SFRSYM    DATA     BIT       PX01
      000000B8H.4 SFRSYM    DATA     BIT       PX10
      000000F8H.2 SFRSYM    DATA     BIT       OISVH
      000000B8H.5 SFRSYM    DATA     BIT       PX11
      000000F8H.1 SFRSYM    DATA     BIT       OISUL
      000000DDH   SFRSYM    DATA     BYTE      LPF_K
      000000F2H   SFRSYM    DATA     WORD      PI_KI
      000000A8H   SFRSYM    DATA     BYTE      IE
      000000F8H.3 SFRSYM    DATA     BIT       OISVL
      000000EEH   SFRSYM    DATA     WORD      PI_KP
      000000AAH   SFRSYM    DATA     WORD      TIM2__CNTR
      000000A2H   SFRSYM    DATA     WORD      TIM3__CNTR
      00000092H   SFRSYM    DATA     WORD      TIM4__CNTR
      000000ECH   SFRSYM    DATA     WORD      PI_UK
      000000DEH   SFRSYM    DATA     WORD      LPF_X
      00000098H.0 SFRSYM    DATA     BIT       RI
      00000098H.6 SFRSYM    DATA     BIT       UT_MOD0
      000000E6H   SFRSYM    DATA     WORD      LPF_Y
      00000098H.7 SFRSYM    DATA     BIT       UT_MOD1
      000000D0H.7 SFRSYM    DATA     BIT       CY
      00000098H.1 SFRSYM    DATA     BIT       TI
      000000C0H.2 SFRSYM    DATA     BIT       PTIM10
      00000084H   SFRSYM    DATA     BYTE      FLA_KEY
      000000C0H.0 SFRSYM    DATA     BIT       PTIM20
      000000C0H.3 SFRSYM    DATA     BIT       PTIM11
      00000098H   SFRSYM    DATA     BYTE      UT_CR
      000000C8H.2 SFRSYM    DATA     BIT       PTIM30
      000000C0H.1 SFRSYM    DATA     BIT       PTIM21
      00000099H   SFRSYM    DATA     BYTE      UT_DR
      000000C8H.3 SFRSYM    DATA     BIT       PTIM31
      000000D0H.2 SFRSYM    DATA     BIT       OV
      0000009AH   SFRSYM    DATA     WORD      UT_BAUD
      000000C4H   SFRSYM    DATA     WORD      MDU_DA01
      000000CCH   SFRSYM    DATA     WORD      MDU_DB01
      00000087H   SFRSYM    DATA     BYTE      PCON
      000000C6H   SFRSYM    DATA     WORD      MDU_DA23
      00000088H   SFRSYM    DATA     BYTE      TCON
      00000082H   SFRSYM    DATA     WORD      DPTR
      000000D8H.0 SFRSYM    DATA     BIT       PUART0
      000000D8H.1 SFRSYM    DATA     BIT       PUART1
      000000D8H.2 SFRSYM    DATA     BIT       PI2C0
      00000088H.2 SFRSYM    DATA     BIT       IF0
      000000D8H.3 SFRSYM    DATA     BIT       PI2C1
      000000AEH   SFRSYM    DATA     WORD      TIM2__ARR
      000000A1H   SFRSYM    DATA     BYTE      TIM2_CR0
      000000A6H   SFRSYM    DATA     WORD      TIM3__ARR
      0000009CH   SFRSYM    DATA     BYTE      TIM3_CR0
      000000A9H   SFRSYM    DATA     BYTE      TIM2_CR1
      00000096H   SFRSYM    DATA     WORD      TIM4__ARR
      0000009EH   SFRSYM    DATA     BYTE      TIM4_CR0
      0000009DH   SFRSYM    DATA     BYTE      TIM3_CR1
      000000F8H   SFRSYM    DATA     BYTE      DRV_OUT
      0000009FH   SFRSYM    DATA     BYTE      TIM4_CR1
LX51 LINKER/LOCATER V4.66.100.0                                                       10/12/2023  14:31:55  PAGE 53


      000000DBH   SFRSYM    DATA     BYTE      LVSR
      000000A8H.4 SFRSYM    DATA     BIT       ES0
      00000085H   SFRSYM    DATA     BYTE      FLA_CR
      000000C0H.4 SFRSYM    DATA     BIT       PADC0
      000000B8H   SFRSYM    DATA     BYTE      IP0
      000000C0H.5 SFRSYM    DATA     BIT       PADC1
      000000C0H   SFRSYM    DATA     BYTE      IP1
      000000C8H   SFRSYM    DATA     BYTE      IP2
      00000098H.2 SFRSYM    DATA     BIT       RB8
      000000D8H   SFRSYM    DATA     BYTE      IP3
      000000A8H.0 SFRSYM    DATA     BIT       EX0
      00000098H.3 SFRSYM    DATA     BIT       TB8
      000000A8H.2 SFRSYM    DATA     BIT       EX1
      000000D0H.0 SFRSYM    DATA     BIT       P
      000000F9H   SFRSYM    DATA     BYTE      PI_LPF_CR
      00000098H.5 SFRSYM    DATA     BIT       SM2
      000000D8H.6 SFRSYM    DATA     BIT       PDMA0
      000000D8H.7 SFRSYM    DATA     BIT       PDMA1
      000000C2H   SFRSYM    DATA     WORD      MDU_MA
      000000D0H.3 SFRSYM    DATA     BIT       RS0
      000000CAH   SFRSYM    DATA     WORD      MDU_MB
      000000D0H.4 SFRSYM    DATA     BIT       RS1
      000000C1H   SFRSYM    DATA     BYTE      MDU_CR
      000000F8H.7 SFRSYM    DATA     BIT       MOE
      000000C0H.6 SFRSYM    DATA     BIT       PCMP0
      000000C0H.7 SFRSYM    DATA     BIT       PCMP1
      000000F8H.4 SFRSYM    DATA     BIT       OISWXH
      00000098H.4 SFRSYM    DATA     BIT       REN
      000000D7H   SFRSYM    DATA     BYTE      CMP_SR
      000000F8H.5 SFRSYM    DATA     BIT       OISWXL
      000000C8H.6 SFRSYM    DATA     BIT       PTSD0
      000000D8H.4 SFRSYM    DATA     BIT       PSPI0
      000000C8H.7 SFRSYM    DATA     BIT       PTSD1
      000000B8H.6 SFRSYM    DATA     BIT       PDRV0
      000000D8H.5 SFRSYM    DATA     BIT       PSPI1
      000000B8H.7 SFRSYM    DATA     BIT       PDRV1
      000000D1H   SFRSYM    DATA     BYTE      P1_IE
      000000D3H   SFRSYM    DATA     BYTE      P2_IE
      000000D2H   SFRSYM    DATA     BYTE      P1_IF
      000000D4H   SFRSYM    DATA     BYTE      P2_IF
      000000ACH   SFRSYM    DATA     WORD      TIM2__DR
      000000C8H.4 SFRSYM    DATA     BIT       PTIM4S0
      000000FCH   SFRSYM    DATA     BYTE      P0_OE
      000000A4H   SFRSYM    DATA     WORD      TIM3__DR
      000000C8H.5 SFRSYM    DATA     BIT       PTIM4S1
      000000FDH   SFRSYM    DATA     BYTE      P1_OE
      00000094H   SFRSYM    DATA     WORD      TIM4__DR
      000000D0H.5 SFRSYM    DATA     BIT       F0
      000000FEH   SFRSYM    DATA     BYTE      P2_OE
      000000D0H.1 SFRSYM    DATA     BIT       F1
      000000FFH   SFRSYM    DATA     BYTE      P3_OE
      00000080H.0 SFRSYM    DATA     BIT       GP00
      000000E9H   SFRSYM    DATA     BYTE      P4_OE
      00000090H.0 SFRSYM    DATA     BIT       GP10
      00000080H.1 SFRSYM    DATA     BIT       GP01
      000000A0H.0 SFRSYM    DATA     BIT       GP20
      00000090H.1 SFRSYM    DATA     BIT       GP11
      00000080H.2 SFRSYM    DATA     BIT       GP02
      000000B0H.0 SFRSYM    DATA     BIT       GP30
      000000A0H.1 SFRSYM    DATA     BIT       GP21
      00000090H.2 SFRSYM    DATA     BIT       GP12
      00000080H.3 SFRSYM    DATA     BIT       GP03
      000000B8H.0 SFRSYM    DATA     BIT       PLVW0
      000000A8H.1 SFRSYM    DATA     BIT       TSDIE
      000000D0H   SFRSYM    DATA     BYTE      PSW
LX51 LINKER/LOCATER V4.66.100.0                                                       10/12/2023  14:31:55  PAGE 54


      000000E8H.0 SFRSYM    DATA     BIT       GP40
      000000B0H.1 SFRSYM    DATA     BIT       GP31
      000000A0H.2 SFRSYM    DATA     BIT       GP22
      00000090H.3 SFRSYM    DATA     BIT       GP13
      00000080H.4 SFRSYM    DATA     BIT       GP04
      000000B8H.1 SFRSYM    DATA     BIT       PLVW1
      000000A8H.3 SFRSYM    DATA     BIT       SPIIE
      00000088H.5 SFRSYM    DATA     BIT       TSDIF
      000000E8H.1 SFRSYM    DATA     BIT       GP41
      000000B0H.2 SFRSYM    DATA     BIT       GP32
      000000A0H.3 SFRSYM    DATA     BIT       GP23
      00000090H.4 SFRSYM    DATA     BIT       GP14
      00000080H.5 SFRSYM    DATA     BIT       GP05
      000000C4H   SFRSYM    DATA     BYTE      MDU_DA0
      000000E8H.2 SFRSYM    DATA     BIT       GP42
      000000B0H.3 SFRSYM    DATA     BIT       GP33
      000000A0H.4 SFRSYM    DATA     BIT       GP24
      00000090H.5 SFRSYM    DATA     BIT       GP15
      00000080H.6 SFRSYM    DATA     BIT       GP06
      000000CCH   SFRSYM    DATA     BYTE      MDU_DB0
      000000C5H   SFRSYM    DATA     BYTE      MDU_DA1
      00000088H.0 SFRSYM    DATA     BIT       IT00

      01003721H   BLOCK     CODE     ---       LVL=0
      01003721H   LINE      CODE     ---       #198
      01003721H   LINE      CODE     ---       #199
      01003721H   LINE      CODE     ---       #204
      01003728H   LINE      CODE     ---       #205
      0100372FH   LINE      CODE     ---       #207
      01003736H   LINE      CODE     ---       #208
      0100373FH   LINE      CODE     ---       #210
      01003746H   LINE      CODE     ---       #211
      0100374FH   LINE      CODE     ---       #212
      ---         BLOCKEND  ---      ---       LVL=0

      0100335DH   BLOCK     CODE     ---       LVL=0
      0100335DH   LINE      CODE     ---       #215
      0100335DH   LINE      CODE     ---       #216
      0100335DH   LINE      CODE     ---       #217
      010033A8H   LINE      CODE     ---       #221
      010033B4H   LINE      CODE     ---       #223
      ---         BLOCKEND  ---      ---       LVL=0

      01003020H   BLOCK     CODE     ---       LVL=0
      01003020H   LINE      CODE     ---       #225
      01003020H   LINE      CODE     ---       #226
      01003020H   LINE      CODE     ---       #227
      01003036H   LINE      CODE     ---       #228
      01003036H   LINE      CODE     ---       #229
      01003041H   LINE      CODE     ---       #231
      0100304CH   LINE      CODE     ---       #232
      01003051H   LINE      CODE     ---       #233
      01003052H   LINE      CODE     ---       #234
      01003059H   LINE      CODE     ---       #235
      01003059H   LINE      CODE     ---       #236
      01003068H   LINE      CODE     ---       #237
      01003076H   LINE      CODE     ---       #239
      0100307DH   LINE      CODE     ---       #241
      01003092H   LINE      CODE     ---       #242
      01003097H   LINE      CODE     ---       #243
      01003097H   LINE      CODE     ---       #244
      ---         BLOCKEND  ---      ---       LVL=0

      010031E1H   BLOCK     CODE     ---       LVL=0
      010031E1H   LINE      CODE     ---       #246
LX51 LINKER/LOCATER V4.66.100.0                                                       10/12/2023  14:31:55  PAGE 55


      010031E1H   LINE      CODE     ---       #247
      010031E1H   LINE      CODE     ---       #248
      010031FAH   LINE      CODE     ---       #249
      010031FAH   LINE      CODE     ---       #250
      01003203H   LINE      CODE     ---       #252
      01003214H   LINE      CODE     ---       #253
      01003219H   LINE      CODE     ---       #254
      0100321AH   LINE      CODE     ---       #256
      0100321AH   LINE      CODE     ---       #257
      01003225H   LINE      CODE     ---       #258
      01003236H   LINE      CODE     ---       #259
      01003244H   LINE      CODE     ---       #260
      01003244H   LINE      CODE     ---       #261
      ---         BLOCKEND  ---      ---       LVL=0

      01001045H   BLOCK     CODE     ---       LVL=0
      01001045H   LINE      CODE     ---       #268
      01001045H   LINE      CODE     ---       #269
      01001045H   LINE      CODE     ---       #275
      01001050H   LINE      CODE     ---       #276
      01001050H   LINE      CODE     ---       #277
      01001052H   LINE      CODE     ---       #278
      01001052H   LINE      CODE     ---       #281
      0100106EH   LINE      CODE     ---       #282
      01001078H   LINE      CODE     ---       #284
      0100107EH   LINE      CODE     ---       #285
      0100107EH   LINE      CODE     ---       #286
      01001084H   LINE      CODE     ---       #287
      0100109FH   LINE      CODE     ---       #288
      010010A9H   LINE      CODE     ---       #289
      010010ABH   LINE      CODE     ---       #291
      010010ABH   LINE      CODE     ---       #292
      010010B2H   LINE      CODE     ---       #293
      010010B2H   LINE      CODE     ---       #294
      010010CEH   LINE      CODE     ---       #295
      010010D8H   LINE      CODE     ---       #296
      010010D8H   LINE      CODE     ---       #297
      010010DFH   LINE      CODE     ---       #298
      010010DFH   LINE      CODE     ---       #300
      010010F5H   LINE      CODE     ---       #301
      0100110BH   LINE      CODE     ---       #304
      01001124H   LINE      CODE     ---       #307
      0100113AH   LINE      CODE     ---       #308
      01001155H   LINE      CODE     ---       #310
      0100115CH   LINE      CODE     ---       #313
      01001178H   LINE      CODE     ---       #316
      01001185H   LINE      CODE     ---       #317
      01001185H   LINE      CODE     ---       #318
      01001194H   LINE      CODE     ---       #319
      01001194H   LINE      CODE     ---       #321
      0100119CH   LINE      CODE     ---       #322
      0100119CH   LINE      CODE     ---       #323
      010011A7H   LINE      CODE     ---       #324
      010011A7H   LINE      CODE     ---       #325
      010011B7H   LINE      CODE     ---       #326
      010011B7H   LINE      CODE     ---       #327
      010011CFH   LINE      CODE     ---       #328
      010011D4H   LINE      CODE     ---       #329
      010011D6H   LINE      CODE     ---       #331
      010011D6H   LINE      CODE     ---       #332
      010011DBH   LINE      CODE     ---       #333
      010011F8H   LINE      CODE     ---       #334
      010011F8H   LINE      CODE     ---       #336
      01001201H   LINE      CODE     ---       #337
      01001201H   LINE      CODE     ---       #338
LX51 LINKER/LOCATER V4.66.100.0                                                       10/12/2023  14:31:55  PAGE 56


      01001204H   LINE      CODE     ---       #339
      01001204H   LINE      CODE     ---       #341
      0100120DH   LINE      CODE     ---       #342
      0100120DH   LINE      CODE     ---       #343
      01001210H   LINE      CODE     ---       #344
      01001210H   LINE      CODE     ---       #346
      01001217H   LINE      CODE     ---       #347
      0100121BH   LINE      CODE     ---       #348
      0100121BH   LINE      CODE     ---       #349
      0100121BH   LINE      CODE     ---       #354
      01001237H   LINE      CODE     ---       #356
      0100123EH   LINE      CODE     ---       #357
      0100123EH   LINE      CODE     ---       #359
      01001260H   LINE      CODE     ---       #362
      01001278H   LINE      CODE     ---       #363
      0100127BH   LINE      CODE     ---       #365
      0100127BH   LINE      CODE     ---       #367
      01001294H   LINE      CODE     ---       #368
      01001294H   LINE      CODE     ---       #369
      010012A9H   LINE      CODE     ---       #370
      010012A9H   LINE      CODE     ---       #371
      010012B0H   LINE      CODE     ---       #372
      010012B4H   LINE      CODE     ---       #373
      010012B8H   LINE      CODE     ---       #374
      010012BEH   LINE      CODE     ---       #375
      010012C1H   LINE      CODE     ---       #376
      010012C4H   LINE      CODE     ---       #377
      010012C4H   LINE      CODE     ---       #378
      010012C6H   LINE      CODE     ---       #380
      010012C6H   LINE      CODE     ---       #381
      010012CAH   LINE      CODE     ---       #382
      010012D0H   LINE      CODE     ---       #383
      010012D0H   LINE      CODE     ---       #385
      010012DFH   LINE      CODE     ---       #386
      010012DFH   LINE      CODE     ---       #387
      010012F4H   LINE      CODE     ---       #388
      010012F4H   LINE      CODE     ---       #389
      010012F8H   LINE      CODE     ---       #390
      010012FEH   LINE      CODE     ---       #391
      01001305H   LINE      CODE     ---       #392
      01001308H   LINE      CODE     ---       #393
      0100130BH   LINE      CODE     ---       #394
      0100130BH   LINE      CODE     ---       #395
      0100130DH   LINE      CODE     ---       #397
      0100130DH   LINE      CODE     ---       #398
      0100131CH   LINE      CODE     ---       #399
      01001328H   LINE      CODE     ---       #400
      01001328H   LINE      CODE     ---       #402
      0100132BH   LINE      CODE     ---       #403
      0100132EH   LINE      CODE     ---       #404
      01001331H   LINE      CODE     ---       #406
      01001334H   LINE      CODE     ---       #407
      01001337H   LINE      CODE     ---       #408
      01001337H   LINE      CODE     ---       #411
      01001348H   LINE      CODE     ---       #412
      01001348H   LINE      CODE     ---       #415
      01001361H   LINE      CODE     ---       #416
      01001361H   LINE      CODE     ---       #417
      0100136CH   LINE      CODE     ---       #418
      0100136CH   LINE      CODE     ---       #419
      0100136EH   LINE      CODE     ---       #420
      01001372H   LINE      CODE     ---       #421
      01001376H   LINE      CODE     ---       #422
      01001379H   LINE      CODE     ---       #423
      0100137CH   LINE      CODE     ---       #424
LX51 LINKER/LOCATER V4.66.100.0                                                       10/12/2023  14:31:55  PAGE 57


      0100137CH   LINE      CODE     ---       #425
      0100137EH   LINE      CODE     ---       #427
      0100137EH   LINE      CODE     ---       #428
      01001382H   LINE      CODE     ---       #429
      01001386H   LINE      CODE     ---       #430
      01001386H   LINE      CODE     ---       #433
      010013A0H   LINE      CODE     ---       #434
      010013A0H   LINE      CODE     ---       #435
      010013ABH   LINE      CODE     ---       #436
      010013ABH   LINE      CODE     ---       #437
      010013B2H   LINE      CODE     ---       #438
      010013B2H   LINE      CODE     ---       #439
      010013B8H   LINE      CODE     ---       #441
      010013B8H   LINE      CODE     ---       #443
      010013BDH   LINE      CODE     ---       #444
      010013BDH   LINE      CODE     ---       #445
      010013BFH   LINE      CODE     ---       #447
      010013BFH   LINE      CODE     ---       #448
      010013C4H   LINE      CODE     ---       #449
      010013C4H   LINE      CODE     ---       #466
      010013D6H   LINE      CODE     ---       #467
      010013D6H   LINE      CODE     ---       #468
      010013DCH   LINE      CODE     ---       #469
      010013E3H   LINE      CODE     ---       #470
      010013E6H   LINE      CODE     ---       #471
      010013E6H   LINE      CODE     ---       #472
      010013E9H   LINE      CODE     ---       #473
      010013F4H   LINE      CODE     ---       #474
      010013F4H   LINE      CODE     ---       #477
      010013F7H   LINE      CODE     ---       #478
      010013F7H   LINE      CODE     ---       #479
      010013F9H   LINE      CODE     ---       #481
      010013FCH   LINE      CODE     ---       #483
      0100142CH   LINE      CODE     ---       #484
      0100142CH   LINE      CODE     ---       #485
      01001437H   LINE      CODE     ---       #486
      01001437H   LINE      CODE     ---       #487
      01001439H   LINE      CODE     ---       #489
      01001441H   LINE      CODE     ---       #490
      01001441H   LINE      CODE     ---       #491
      01001444H   LINE      CODE     ---       #492
      01001447H   LINE      CODE     ---       #493
      0100144AH   LINE      CODE     ---       #494
      0100144AH   LINE      CODE     ---       #495
      0100144EH   LINE      CODE     ---       #496
      01001452H   LINE      CODE     ---       #497
      01001452H   LINE      CODE     ---       #498
      01001454H   LINE      CODE     ---       #500
      01001454H   LINE      CODE     ---       #501
      01001459H   LINE      CODE     ---       #503
      01001467H   LINE      CODE     ---       #504
      01001467H   LINE      CODE     ---       #505
      0100146CH   LINE      CODE     ---       #506
      0100146FH   LINE      CODE     ---       #507
      0100146FH   LINE      CODE     ---       #508
      0100146FH   LINE      CODE     ---       #509
      01001471H   LINE      CODE     ---       #511
      01001471H   LINE      CODE     ---       #512
      01001473H   LINE      CODE     ---       #514
      01001476H   LINE      CODE     ---       #515
      01001476H   LINE      CODE     ---       #517
      01001478H   LINE      CODE     ---       #518
      0100147FH   LINE      CODE     ---       #519
      0100147FH   LINE      CODE     ---       #526
      01001482H   LINE      CODE     ---       #527
LX51 LINKER/LOCATER V4.66.100.0                                                       10/12/2023  14:31:55  PAGE 58


      01001482H   LINE      CODE     ---       #539
      01001488H   LINE      CODE     ---       #540
      01001488H   LINE      CODE     ---       #541
      0100148AH   LINE      CODE     ---       #543
      0100148DH   LINE      CODE     ---       #546
      01001496H   LINE      CODE     ---       #547
      01001496H   LINE      CODE     ---       #548
      01001498H   LINE      CODE     ---       #549
      0100149CH   LINE      CODE     ---       #550
      0100149CH   LINE      CODE     ---       #551
      0100149CH   LINE      CODE     ---       #553
      010014A8H   LINE      CODE     ---       #554
      010014A8H   LINE      CODE     ---       #555
      010014ADH   LINE      CODE     ---       #556
      010014B1H   LINE      CODE     ---       #557
      010014B1H   LINE      CODE     ---       #560
      010014BEH   LINE      CODE     ---       #561
      010014BEH   LINE      CODE     ---       #562
      010014C0H   LINE      CODE     ---       #564
      010014C4H   LINE      CODE     ---       #566
      010014CAH   LINE      CODE     ---       #567
      010014CEH   LINE      CODE     ---       #569
      010014D2H   LINE      CODE     ---       #570
      010014D2H   LINE      CODE     ---       #592
      010014D9H   LINE      CODE     ---       #593
      010014D9H   LINE      CODE     ---       #594
      010014DFH   LINE      CODE     ---       #595
      010014DFH   LINE      CODE     ---       #596
      ---         BLOCKEND  ---      ---       LVL=0

      010014E0H   BLOCK     CODE     ---       LVL=0
      010014E0H   LINE      CODE     ---       #617
      010014E0H   LINE      CODE     ---       #618
      010014E0H   LINE      CODE     ---       #630
      010014E7H   LINE      CODE     ---       #631
      010014E7H   LINE      CODE     ---       #632
      010014F6H   LINE      CODE     ---       #633
      01001504H   LINE      CODE     ---       #635
      01001504H   LINE      CODE     ---       #636
      0100150AH   LINE      CODE     ---       #637
      0100150FH   LINE      CODE     ---       #638
      01001515H   LINE      CODE     ---       #639
      01001515H   LINE      CODE     ---       #640
      01001515H   LINE      CODE     ---       #643
      0100151EH   LINE      CODE     ---       #644
      0100153BH   LINE      CODE     ---       #645
      01001540H   LINE      CODE     ---       #649
      0100154FH   LINE      CODE     ---       #686
      0100156FH   LINE      CODE     ---       #687
      0100156FH   LINE      CODE     ---       #688
      01001584H   LINE      CODE     ---       #689
      01001584H   LINE      CODE     ---       #690
      0100158BH   LINE      CODE     ---       #691
      0100158EH   LINE      CODE     ---       #692
      0100158EH   LINE      CODE     ---       #693
      01001590H   LINE      CODE     ---       #695
      01001597H   LINE      CODE     ---       #713
      0100159CH   LINE      CODE     ---       #716
      010015A2H   LINE      CODE     ---       #717
      010015A2H   LINE      CODE     ---       #719
      010015C0H   LINE      CODE     ---       #720
      010015C8H   LINE      CODE     ---       #722
      010015CEH   LINE      CODE     ---       #723
      010015CEH   LINE      CODE     ---       #729
      010015DCH   LINE      CODE     ---       #730
LX51 LINKER/LOCATER V4.66.100.0                                                       10/12/2023  14:31:55  PAGE 59


      010015E2H   LINE      CODE     ---       #732
      010015EAH   LINE      CODE     ---       #733
      010015EAH   LINE      CODE     ---       #735
      010015EAH   LINE      CODE     ---       #736
      010015EFH   LINE      CODE     ---       #738
      010015FEH   LINE      CODE     ---       #739
      01001603H   LINE      CODE     ---       #741
      01001609H   LINE      CODE     ---       #742
      0100160DH   LINE      CODE     ---       #744
      01001612H   LINE      CODE     ---       #745
      01001612H   LINE      CODE     ---       #752
      0100161DH   LINE      CODE     ---       #753
      0100161DH   LINE      CODE     ---       #754
      01001621H   LINE      CODE     ---       #755
      01001629H   LINE      CODE     ---       #756
      01001629H   LINE      CODE     ---       #757
      01001629H   LINE      CODE     ---       #759
      01001638H   LINE      CODE     ---       #760
      01001638H   LINE      CODE     ---       #761
      0100163EH   LINE      CODE     ---       #762
      0100164CH   LINE      CODE     ---       #763
      01001650H   LINE      CODE     ---       #764
      01001650H   LINE      CODE     ---       #766
      01001657H   LINE      CODE     ---       #767
      0100165EH   LINE      CODE     ---       #771
      0100165EH   LINE      CODE     ---       #772
      0100166EH   LINE      CODE     ---       #774
      01001673H   LINE      CODE     ---       #776
      01001677H   LINE      CODE     ---       #778
      0100167BH   LINE      CODE     ---       #781
      01001684H   LINE      CODE     ---       #782
      01001684H   LINE      CODE     ---       #783
      0100168AH   LINE      CODE     ---       #784
      0100168FH   LINE      CODE     ---       #785
      01001695H   LINE      CODE     ---       #786
      01001697H   LINE      CODE     ---       #787
      010016A6H   LINE      CODE     ---       #788
      010016ABH   LINE      CODE     ---       #791
      010016B3H   LINE      CODE     ---       #792
      010016B3H   LINE      CODE     ---       #793
      010016BAH   LINE      CODE     ---       #794
      010016C0H   LINE      CODE     ---       #795
      010016C2H   LINE      CODE     ---       #796
      010016C5H   LINE      CODE     ---       #797
      010016C5H   LINE      CODE     ---       #798
      010016C9H   LINE      CODE     ---       #799
      010016C9H   LINE      CODE     ---       #800
      010016C9H   LINE      CODE     ---       #802
      010016D0H   LINE      CODE     ---       #803
      010016D0H   LINE      CODE     ---       #804
      010016D2H   LINE      CODE     ---       #805
      010016D7H   LINE      CODE     ---       #806
      010016DBH   LINE      CODE     ---       #807
      010016DBH   LINE      CODE     ---       #809
      010016E2H   LINE      CODE     ---       #810
      010016E2H   LINE      CODE     ---       #811
      010016E4H   LINE      CODE     ---       #812
      010016E9H   LINE      CODE     ---       #813
      010016E9H   LINE      CODE     ---       #815
      010016F0H   LINE      CODE     ---       #816
      010016F0H   LINE      CODE     ---       #817
      010016F2H   LINE      CODE     ---       #818
      010016F7H   LINE      CODE     ---       #819
      010016F7H   LINE      CODE     ---       #829
      010016FEH   LINE      CODE     ---       #830
LX51 LINKER/LOCATER V4.66.100.0                                                       10/12/2023  14:31:55  PAGE 60


      01001704H   LINE      CODE     ---       #833
      0100170AH   LINE      CODE     ---       #834
      0100170EH   LINE      CODE     ---       #839
      01001714H   LINE      CODE     ---       #840
      01001714H   LINE      CODE     ---       #842
      01001717H   LINE      CODE     ---       #844
      0100171FH   LINE      CODE     ---       #845
      01001724H   LINE      CODE     ---       #848
      01001726H   LINE      CODE     ---       #851
      01001726H   LINE      CODE     ---       #852
      0100172BH   LINE      CODE     ---       #855
      0100172FH   LINE      CODE     ---       #856
      01001735H   LINE      CODE     ---       #857
      01001739H   LINE      CODE     ---       #859
      0100173CH   LINE      CODE     ---       #862
      0100173FH   LINE      CODE     ---       #863
      01001742H   LINE      CODE     ---       #864
      01001745H   LINE      CODE     ---       #865
      01001748H   LINE      CODE     ---       #866
      0100174BH   LINE      CODE     ---       #868
      01001751H   LINE      CODE     ---       #869
      01001757H   LINE      CODE     ---       #870
      0100175DH   LINE      CODE     ---       #871
      01001763H   LINE      CODE     ---       #873
      01001766H   LINE      CODE     ---       #875
      0100176EH   LINE      CODE     ---       #876
      01001775H   LINE      CODE     ---       #878
      0100177BH   LINE      CODE     ---       #879
      0100177BH   LINE      CODE     ---       #881
      01001782H   LINE      CODE     ---       #882
      01001793H   LINE      CODE     ---       #884
      01001799H   LINE      CODE     ---       #890
      010017A7H   LINE      CODE     ---       #891
      010017A7H   LINE      CODE     ---       #892
      010017AEH   LINE      CODE     ---       #893
      010017B3H   LINE      CODE     ---       #894
      010017B3H   LINE      CODE     ---       #897
      010017C2H   LINE      CODE     ---       #898
      010017CDH   LINE      CODE     ---       #899
      010017D8H   LINE      CODE     ---       #900
      01001810H   LINE      CODE     ---       #901
      0100181EH   LINE      CODE     ---       #902
      01001829H   LINE      CODE     ---       #904
      01001832H   LINE      CODE     ---       #907
      01001845H   LINE      CODE     ---       #910
      01001854H   LINE      CODE     ---       #911
      01001886H   LINE      CODE     ---       #914
      01001893H   LINE      CODE     ---       #917
      010018AAH   LINE      CODE     ---       #918
      010018B4H   LINE      CODE     ---       #924
      ---         BLOCKEND  ---      ---       LVL=0

      ---         MODULE    ---      ---       USERDRYER
      000000BEH   PUBLIC    IDATA    BYTE      HeatDutyL
      000000BDH   PUBLIC    IDATA    BYTE      HeatDutyH
      02000299H   PUBLIC    XDATA    BYTE      WindTemperDelta
      00000021H.2 PUBLIC    BIT      BIT       LedSpd3
      00000021H.1 PUBLIC    BIT      BIT       LedSpd2
      02000298H   PUBLIC    XDATA    BYTE      PwrOnStage
      00000021H.0 PUBLIC    BIT      BIT       LedSpd1
      000000BCH   PUBLIC    IDATA    BYTE      ThryristTrigKeepCnt2
      000000BBH   PUBLIC    IDATA    BYTE      CoolCmdLv
      000000B9H   PUBLIC    IDATA    WORD      HeatTemperADCVal
      000000B7H   PUBLIC    IDATA    WORD      ReverseCleanX10ms
      000000B6H   PUBLIC    IDATA    BYTE      KeyOnLockLvPre
LX51 LINKER/LOCATER V4.66.100.0                                                       10/12/2023  14:31:55  PAGE 61


      00000020H.7 PUBLIC    BIT      BIT       ReverseCleanTrig
      000000B5H   PUBLIC    IDATA    BYTE      HeatCmdLv
      00000020H.6 PUBLIC    BIT      BIT       ReverseCleanCmd
      000000B4H   PUBLIC    IDATA    BYTE      HeatDutyMax
      000000B2H   PUBLIC    IDATA    WORD      LedAltX10ms
      000000B1H   PUBLIC    IDATA    BYTE      KeySpeedActX10ms
      000000B0H   PUBLIC    IDATA    BYTE      CoolShiftLv
      000000AEH   PUBLIC    IDATA    INT       HeatTemperCelsius
      000000ADH   PUBLIC    IDATA    BYTE      KeyOnLockSmpNew
      000000ABH   PUBLIC    IDATA    INT       HeatAdcValRef
      02000297H   PUBLIC    XDATA    BYTE      PowerVoltDownBase
      000000AAH   PUBLIC    IDATA    BYTE      HeatDutyAlt
      00000020H.5 PUBLIC    BIT      BIT       LedHeat3
      000000A9H   PUBLIC    IDATA    BYTE      SpeedCmdLv
      00000020H.4 PUBLIC    BIT      BIT       LedHeat2
      00000020H.3 PUBLIC    BIT      BIT       LedHeat1
      02000296H   PUBLIC    XDATA    BYTE      PowerVoltRiseBase
      00000020H.2 PUBLIC    BIT      BIT       Heat_wire_L
      000000A8H   PUBLIC    IDATA    BYTE      KeyOnLockSmpOld
      00000020H.1 PUBLIC    BIT      BIT       Heat_wire_H
      000000A7H   PUBLIC    IDATA    BYTE      HeatDutyOnCnt2
      02000295H   PUBLIC    XDATA    BYTE      HeatRegulTmr
      02000294H   PUBLIC    XDATA    ---       KeyCool
      02000293H   PUBLIC    XDATA    BYTE      HeatDisableFlag
      000000A6H   PUBLIC    IDATA    BYTE      KeyOnLockLv
      000000A5H   PUBLIC    IDATA    BYTE      ThryristTrigKeepCnt
      02000292H   PUBLIC    XDATA    ---       KeyHeat
      000000A4H   PUBLIC    IDATA    BYTE      ACCrossForThryrist
      02000291H   PUBLIC    XDATA    BYTE      KeyPro1msTmr
      000000A3H   PUBLIC    IDATA    BYTE      HeatShiftStep
      000000A2H   PUBLIC    IDATA    CHAR      WindTemperRef
      000000A1H   PUBLIC    IDATA    BYTE      KeyOnLockKeepCnt
      02000290H   PUBLIC    XDATA    BYTE      LedAlarmFlashCnt
      0200028FH   PUBLIC    XDATA    ---       KeySpeed
      000000A0H   PUBLIC    IDATA    BYTE      RePowerRunTrig
      0000009EH   PUBLIC    IDATA    WORD      HeatLv4X10ms
      0000009DH   PUBLIC    IDATA    BYTE      SpeedShiftStep
      0000009CH   PUBLIC    IDATA    BYTE      HeatDutyPeriod
      0000009BH   PUBLIC    IDATA    BYTE      HeatDutyOnCnt
      00000020H.0 PUBLIC    BIT      BIT       WindTemperHigh
      0200028EH   PUBLIC    XDATA    ---       KeyOnOff
      0000009AH   PUBLIC    IDATA    BYTE      HeatDutyAltTop
      010009BFH   PUBLIC    CODE     ---       DryerPer1ms
      01003927H   PUBLIC    CODE     ---       DryerKeysDefault
      0100394BH   PUBLIC    CODE     ---       CalCoolLvToCmd
      0100385EH   PUBLIC    CODE     ---       CalHeatStepToCmd
      010037D4H   PUBLIC    CODE     ---       CalSpeedStepToCmd
      000000B0H.4 SFRSYM    DATA     BIT       GP34
      000000A0H.5 SFRSYM    DATA     BIT       GP25
      00000090H.6 SFRSYM    DATA     BIT       GP16
      00000080H.7 SFRSYM    DATA     BIT       GP07
      000000CDH   SFRSYM    DATA     BYTE      MDU_DB1
      000000C6H   SFRSYM    DATA     BYTE      MDU_DA2
      00000088H.1 SFRSYM    DATA     BIT       IT01
      00000088H.3 SFRSYM    DATA     BIT       IT10
      000000B0H.5 SFRSYM    DATA     BIT       GP35
      000000A0H.6 SFRSYM    DATA     BIT       GP26
      00000090H.7 SFRSYM    DATA     BIT       GP17
      00000080H   SFRSYM    DATA     BYTE      P0
      000000F6H   SFRSYM    DATA     WORD      PI_UKMIN
      000000C7H   SFRSYM    DATA     BYTE      MDU_DA3
      00000088H.4 SFRSYM    DATA     BIT       IT11
      000000C9H   SFRSYM    DATA     BYTE      RST_SR
      000000D9H   SFRSYM    DATA     BYTE      EVT_FILT
      000000B0H.6 SFRSYM    DATA     BIT       GP36
LX51 LINKER/LOCATER V4.66.100.0                                                       10/12/2023  14:31:55  PAGE 62


      000000A0H.7 SFRSYM    DATA     BIT       GP27
      00000090H   SFRSYM    DATA     BYTE      P1
      000000B0H.7 SFRSYM    DATA     BIT       GP37
      000000A0H   SFRSYM    DATA     BYTE      P2
      000000F4H   SFRSYM    DATA     WORD      PI_UKMAX
      000000B0H   SFRSYM    DATA     BYTE      P3
      000000E8H   SFRSYM    DATA     BYTE      P4
      000000D0H.6 SFRSYM    DATA     BIT       AC
      000000A8H.7 SFRSYM    DATA     BIT       EA
      000000D5H   SFRSYM    DATA     BYTE      CMP_CR0
      000000D6H   SFRSYM    DATA     BYTE      CMP_CR1
      000000DAH   SFRSYM    DATA     BYTE      CMP_CR2
      000000B8H.2 SFRSYM    DATA     BIT       PX00
      000000DCH   SFRSYM    DATA     BYTE      CMP_CR3
      000000F8H.0 SFRSYM    DATA     BIT       OISUH
      000000EAH   SFRSYM    DATA     WORD      PI_EK
      000000B8H.3 SFRSYM    DATA     BIT       PX01
      000000B8H.4 SFRSYM    DATA     BIT       PX10
      000000F8H.2 SFRSYM    DATA     BIT       OISVH
      000000B8H.5 SFRSYM    DATA     BIT       PX11
      000000F8H.1 SFRSYM    DATA     BIT       OISUL
      000000DDH   SFRSYM    DATA     BYTE      LPF_K
      000000F2H   SFRSYM    DATA     WORD      PI_KI
      000000A8H   SFRSYM    DATA     BYTE      IE
      000000F8H.3 SFRSYM    DATA     BIT       OISVL
      000000EEH   SFRSYM    DATA     WORD      PI_KP
      000000AAH   SFRSYM    DATA     WORD      TIM2__CNTR
      000000A2H   SFRSYM    DATA     WORD      TIM3__CNTR
      00000092H   SFRSYM    DATA     WORD      TIM4__CNTR
      000000ECH   SFRSYM    DATA     WORD      PI_UK
      000000DEH   SFRSYM    DATA     WORD      LPF_X
      00000098H.0 SFRSYM    DATA     BIT       RI
      00000098H.6 SFRSYM    DATA     BIT       UT_MOD0
      000000E6H   SFRSYM    DATA     WORD      LPF_Y
      00000098H.7 SFRSYM    DATA     BIT       UT_MOD1
      000000D0H.7 SFRSYM    DATA     BIT       CY
      00000098H.1 SFRSYM    DATA     BIT       TI
      000000C0H.2 SFRSYM    DATA     BIT       PTIM10
      00000084H   SFRSYM    DATA     BYTE      FLA_KEY
      000000C0H.0 SFRSYM    DATA     BIT       PTIM20
      000000C0H.3 SFRSYM    DATA     BIT       PTIM11
      00000098H   SFRSYM    DATA     BYTE      UT_CR
      000000C8H.2 SFRSYM    DATA     BIT       PTIM30
      000000C0H.1 SFRSYM    DATA     BIT       PTIM21
      00000099H   SFRSYM    DATA     BYTE      UT_DR
      000000C8H.3 SFRSYM    DATA     BIT       PTIM31
      000000D0H.2 SFRSYM    DATA     BIT       OV
      0000009AH   SFRSYM    DATA     WORD      UT_BAUD
      000000C4H   SFRSYM    DATA     WORD      MDU_DA01
      000000CCH   SFRSYM    DATA     WORD      MDU_DB01
      00000087H   SFRSYM    DATA     BYTE      PCON
      000000C6H   SFRSYM    DATA     WORD      MDU_DA23
      00000088H   SFRSYM    DATA     BYTE      TCON
      00000082H   SFRSYM    DATA     WORD      DPTR
      000000D8H.0 SFRSYM    DATA     BIT       PUART0
      000000D8H.1 SFRSYM    DATA     BIT       PUART1
      000000D8H.2 SFRSYM    DATA     BIT       PI2C0
      00000088H.2 SFRSYM    DATA     BIT       IF0
      000000D8H.3 SFRSYM    DATA     BIT       PI2C1
      000000AEH   SFRSYM    DATA     WORD      TIM2__ARR
      000000A1H   SFRSYM    DATA     BYTE      TIM2_CR0
      000000A6H   SFRSYM    DATA     WORD      TIM3__ARR
      0000009CH   SFRSYM    DATA     BYTE      TIM3_CR0
      000000A9H   SFRSYM    DATA     BYTE      TIM2_CR1
      00000096H   SFRSYM    DATA     WORD      TIM4__ARR
LX51 LINKER/LOCATER V4.66.100.0                                                       10/12/2023  14:31:55  PAGE 63


      0000009EH   SFRSYM    DATA     BYTE      TIM4_CR0
      0000009DH   SFRSYM    DATA     BYTE      TIM3_CR1
      000000F8H   SFRSYM    DATA     BYTE      DRV_OUT
      0000009FH   SFRSYM    DATA     BYTE      TIM4_CR1
      000000DBH   SFRSYM    DATA     BYTE      LVSR
      000000A8H.4 SFRSYM    DATA     BIT       ES0
      00000085H   SFRSYM    DATA     BYTE      FLA_CR
      000000C0H.4 SFRSYM    DATA     BIT       PADC0
      000000B8H   SFRSYM    DATA     BYTE      IP0
      000000C0H.5 SFRSYM    DATA     BIT       PADC1
      000000C0H   SFRSYM    DATA     BYTE      IP1
      000000C8H   SFRSYM    DATA     BYTE      IP2
      00000098H.2 SFRSYM    DATA     BIT       RB8
      000000D8H   SFRSYM    DATA     BYTE      IP3
      000000A8H.0 SFRSYM    DATA     BIT       EX0
      00000098H.3 SFRSYM    DATA     BIT       TB8
      000000A8H.2 SFRSYM    DATA     BIT       EX1
      000000D0H.0 SFRSYM    DATA     BIT       P
      000000F9H   SFRSYM    DATA     BYTE      PI_LPF_CR
      00000098H.5 SFRSYM    DATA     BIT       SM2
      000000D8H.6 SFRSYM    DATA     BIT       PDMA0
      000000D8H.7 SFRSYM    DATA     BIT       PDMA1
      000000C2H   SFRSYM    DATA     WORD      MDU_MA
      000000D0H.3 SFRSYM    DATA     BIT       RS0
      000000CAH   SFRSYM    DATA     WORD      MDU_MB
      000000D0H.4 SFRSYM    DATA     BIT       RS1
      000000C1H   SFRSYM    DATA     BYTE      MDU_CR
      000000F8H.7 SFRSYM    DATA     BIT       MOE
      000000C0H.6 SFRSYM    DATA     BIT       PCMP0
      000000C0H.7 SFRSYM    DATA     BIT       PCMP1
      000000F8H.4 SFRSYM    DATA     BIT       OISWXH
      00000098H.4 SFRSYM    DATA     BIT       REN
      000000D7H   SFRSYM    DATA     BYTE      CMP_SR
      000000F8H.5 SFRSYM    DATA     BIT       OISWXL
      000000C8H.6 SFRSYM    DATA     BIT       PTSD0
      000000D8H.4 SFRSYM    DATA     BIT       PSPI0
      000000C8H.7 SFRSYM    DATA     BIT       PTSD1
      000000B8H.6 SFRSYM    DATA     BIT       PDRV0
      000000D8H.5 SFRSYM    DATA     BIT       PSPI1
      000000B8H.7 SFRSYM    DATA     BIT       PDRV1
      000000D1H   SFRSYM    DATA     BYTE      P1_IE
      000000D3H   SFRSYM    DATA     BYTE      P2_IE
      000000D2H   SFRSYM    DATA     BYTE      P1_IF
      000000D4H   SFRSYM    DATA     BYTE      P2_IF
      000000ACH   SFRSYM    DATA     WORD      TIM2__DR
      000000C8H.4 SFRSYM    DATA     BIT       PTIM4S0
      000000FCH   SFRSYM    DATA     BYTE      P0_OE
      000000A4H   SFRSYM    DATA     WORD      TIM3__DR
      000000C8H.5 SFRSYM    DATA     BIT       PTIM4S1
      000000FDH   SFRSYM    DATA     BYTE      P1_OE
      00000094H   SFRSYM    DATA     WORD      TIM4__DR
      000000D0H.5 SFRSYM    DATA     BIT       F0
      000000FEH   SFRSYM    DATA     BYTE      P2_OE
      000000D0H.1 SFRSYM    DATA     BIT       F1
      000000FFH   SFRSYM    DATA     BYTE      P3_OE
      00000080H.0 SFRSYM    DATA     BIT       GP00
      000000E9H   SFRSYM    DATA     BYTE      P4_OE
      00000090H.0 SFRSYM    DATA     BIT       GP10
      00000080H.1 SFRSYM    DATA     BIT       GP01
      000000A0H.0 SFRSYM    DATA     BIT       GP20
      00000090H.1 SFRSYM    DATA     BIT       GP11
      00000080H.2 SFRSYM    DATA     BIT       GP02
      000000B0H.0 SFRSYM    DATA     BIT       GP30
      000000A0H.1 SFRSYM    DATA     BIT       GP21
      00000090H.2 SFRSYM    DATA     BIT       GP12
LX51 LINKER/LOCATER V4.66.100.0                                                       10/12/2023  14:31:55  PAGE 64


      00000080H.3 SFRSYM    DATA     BIT       GP03
      000000B8H.0 SFRSYM    DATA     BIT       PLVW0
      000000A8H.1 SFRSYM    DATA     BIT       TSDIE
      000000D0H   SFRSYM    DATA     BYTE      PSW
      000000E8H.0 SFRSYM    DATA     BIT       GP40
      000000B0H.1 SFRSYM    DATA     BIT       GP31
      000000A0H.2 SFRSYM    DATA     BIT       GP22
      00000090H.3 SFRSYM    DATA     BIT       GP13
      00000080H.4 SFRSYM    DATA     BIT       GP04
      000000B8H.1 SFRSYM    DATA     BIT       PLVW1
      000000A8H.3 SFRSYM    DATA     BIT       SPIIE
      00000088H.5 SFRSYM    DATA     BIT       TSDIF
      000000E8H.1 SFRSYM    DATA     BIT       GP41
      000000B0H.2 SFRSYM    DATA     BIT       GP32
      000000A0H.3 SFRSYM    DATA     BIT       GP23
      00000090H.4 SFRSYM    DATA     BIT       GP14
      00000080H.5 SFRSYM    DATA     BIT       GP05
      000000C4H   SFRSYM    DATA     BYTE      MDU_DA0
      000000E8H.2 SFRSYM    DATA     BIT       GP42
      000000B0H.3 SFRSYM    DATA     BIT       GP33
      000000A0H.4 SFRSYM    DATA     BIT       GP24
      00000090H.5 SFRSYM    DATA     BIT       GP15
      00000080H.6 SFRSYM    DATA     BIT       GP06
      000000CCH   SFRSYM    DATA     BYTE      MDU_DB0
      000000C5H   SFRSYM    DATA     BYTE      MDU_DA1
      00000088H.0 SFRSYM    DATA     BIT       IT00

      010037D4H   BLOCK     CODE     ---       LVL=0
      010037D4H   LINE      CODE     ---       #247
      010037D4H   LINE      CODE     ---       #248
      010037D4H   LINE      CODE     ---       #252
      010037DFH   LINE      CODE     ---       #253
      010037E3H   LINE      CODE     ---       #255
      010037ECH   LINE      CODE     ---       #256
      010037F1H   LINE      CODE     ---       #258
      010037F8H   LINE      CODE     ---       #259
      ---         BLOCKEND  ---      ---       LVL=0

      0100385EH   BLOCK     CODE     ---       LVL=0
      0100385EH   LINE      CODE     ---       #262
      0100385EH   LINE      CODE     ---       #263
      0100385EH   LINE      CODE     ---       #268
      01003866H   LINE      CODE     ---       #269
      01003868H   LINE      CODE     ---       #275
      01003871H   LINE      CODE     ---       #276
      01003876H   LINE      CODE     ---       #278
      0100387DH   LINE      CODE     ---       #279
      ---         BLOCKEND  ---      ---       LVL=0

      0100394BH   BLOCK     CODE     ---       LVL=0
      0100394BH   LINE      CODE     ---       #282
      0100394BH   LINE      CODE     ---       #283
      0100394BH   LINE      CODE     ---       #284
      01003951H   LINE      CODE     ---       #285
      ---         BLOCKEND  ---      ---       LVL=0

      01003927H   BLOCK     CODE     ---       LVL=0
      01003927H   LINE      CODE     ---       #288
      01003927H   LINE      CODE     ---       #289
      01003927H   LINE      CODE     ---       #290
      0100392BH   LINE      CODE     ---       #291
      0100392FH   LINE      CODE     ---       #292
      01003933H   LINE      CODE     ---       #293
      ---         BLOCKEND  ---      ---       LVL=0

LX51 LINKER/LOCATER V4.66.100.0                                                       10/12/2023  14:31:55  PAGE 65


      010009BFH   BLOCK     CODE     ---       LVL=0
      010009BFH   LINE      CODE     ---       #308
      010009BFH   LINE      CODE     ---       #309
      010009BFH   LINE      CODE     ---       #311
      010009C7H   LINE      CODE     ---       #314
      010009CBH   LINE      CODE     ---       #315
      010009CBH   LINE      CODE     ---       #321
      010009CFH   LINE      CODE     ---       #445
      010009D5H   LINE      CODE     ---       #446
      010009D5H   LINE      CODE     ---       #447
      010009DDH   LINE      CODE     ---       #448
      010009DDH   LINE      CODE     ---       #449
      010009E3H   LINE      CODE     ---       #450
      010009E7H   LINE      CODE     ---       #451
      010009E7H   LINE      CODE     ---       #453
      010009EBH   LINE      CODE     ---       #454
      010009EBH   LINE      CODE     ---       #456
      010009F4H   LINE      CODE     ---       #457
      010009FAH   LINE      CODE     ---       #459
      010009FDH   LINE      CODE     ---       #460
      01000A09H   LINE      CODE     ---       #461
      01000A09H   LINE      CODE     ---       #463
      01000A09H   LINE      CODE     ---       #464
      01000A1AH   LINE      CODE     ---       #466
      01000A27H   LINE      CODE     ---       #467
      01000A36H   LINE      CODE     ---       #469
      01000A46H   LINE      CODE     ---       #471
      01000A58H   LINE      CODE     ---       #472
      01000A65H   LINE      CODE     ---       #473
      01000A74H   LINE      CODE     ---       #475
      01000A84H   LINE      CODE     ---       #477
      01000A96H   LINE      CODE     ---       #478
      01000AA3H   LINE      CODE     ---       #479
      01000AB2H   LINE      CODE     ---       #481
      01000AC2H   LINE      CODE     ---       #484
      01000AC9H   LINE      CODE     ---       #485
      01000ACCH   LINE      CODE     ---       #486
      01000AD9H   LINE      CODE     ---       #487
      01000AE6H   LINE      CODE     ---       #489
      01000AF5H   LINE      CODE     ---       #490
      01000AF5H   LINE      CODE     ---       #491
      01000AFAH   LINE      CODE     ---       #492
      01000AFFH   LINE      CODE     ---       #494
      01000B06H   LINE      CODE     ---       #495
      01000B06H   LINE      CODE     ---       #498
      01000B0DH   LINE      CODE     ---       #499
      01000B10H   LINE      CODE     ---       #500
      01000B1DH   LINE      CODE     ---       #501
      01000B2AH   LINE      CODE     ---       #503
      01000B39H   LINE      CODE     ---       #504
      01000B39H   LINE      CODE     ---       #505
      01000B3EH   LINE      CODE     ---       #506
      01000B43H   LINE      CODE     ---       #508
      01000B4AH   LINE      CODE     ---       #509
      01000B4AH   LINE      CODE     ---       #512
      01000B51H   LINE      CODE     ---       #513
      01000B54H   LINE      CODE     ---       #514
      01000B61H   LINE      CODE     ---       #516
      01000B6EH   LINE      CODE     ---       #518
      01000B7DH   LINE      CODE     ---       #519
      01000B7DH   LINE      CODE     ---       #520
      01000B82H   LINE      CODE     ---       #521
      01000B87H   LINE      CODE     ---       #523
      01000B8EH   LINE      CODE     ---       #524
      01000B8EH   LINE      CODE     ---       #527
LX51 LINKER/LOCATER V4.66.100.0                                                       10/12/2023  14:31:55  PAGE 66


      01000B95H   LINE      CODE     ---       #528
      01000B95H   LINE      CODE     ---       #529
      01000B9CH   LINE      CODE     ---       #530
      01000BA1H   LINE      CODE     ---       #531
      01000BACH   LINE      CODE     ---       #532
      01000BAEH   LINE      CODE     ---       #533
      01000BB1H   LINE      CODE     ---       #535
      01000BB5H   LINE      CODE     ---       #537
      01000BB5H   LINE      CODE     ---       #538
      01000BB8H   LINE      CODE     ---       #539
      01000BBDH   LINE      CODE     ---       #540
      01000BBDH   LINE      CODE     ---       #541
      01000BC8H   LINE      CODE     ---       #542
      01000BC8H   LINE      CODE     ---       #545
      01000BCEH   LINE      CODE     ---       #546
      01000BCEH   LINE      CODE     ---       #564
      01000BD5H   LINE      CODE     ---       #565
      01000BDFH   LINE      CODE     ---       #567
      01000BE6H   LINE      CODE     ---       #569
      01000BE6H   LINE      CODE     ---       #571
      01000BEEH   LINE      CODE     ---       #572
      01000BEEH   LINE      CODE     ---       #574
      01000BF6H   LINE      CODE     ---       #575
      01000BF6H   LINE      CODE     ---       #576
      01000BF9H   LINE      CODE     ---       #578
      01000BFCH   LINE      CODE     ---       #579
      01000BFFH   LINE      CODE     ---       #580
      01000BFFH   LINE      CODE     ---       #596
      01000C0AH   LINE      CODE     ---       #597
      01000C0AH   LINE      CODE     ---       #598
      01000C0DH   LINE      CODE     ---       #604
      01000C15H   LINE      CODE     ---       #605
      01000C15H   LINE      CODE     ---       #606
      01000C18H   LINE      CODE     ---       #607
      01000C1BH   LINE      CODE     ---       #608
      01000C1BH   LINE      CODE     ---       #609
      01000C1BH   LINE      CODE     ---       #610
      01000C1BH   LINE      CODE     ---       #611
      01000C1BH   LINE      CODE     ---       #612
      01000C1EH   LINE      CODE     ---       #613
      01000C2AH   LINE      CODE     ---       #614
      01000C2AH   LINE      CODE     ---       #618
      01000C42H   LINE      CODE     ---       #619
      01000C4CH   LINE      CODE     ---       #641
      01000C4FH   LINE      CODE     ---       #642
      01000C54H   LINE      CODE     ---       #662
      01000C54H   LINE      CODE     ---       #665
      01000C64H   LINE      CODE     ---       #666
      01000C71H   LINE      CODE     ---       #667
      01000C7AH   LINE      CODE     ---       #668
      01000C84H   LINE      CODE     ---       #670
      01000C93H   LINE      CODE     ---       #671
      01000C9BH   LINE      CODE     ---       #672
      01000CA4H   LINE      CODE     ---       #673
      01000CABH   LINE      CODE     ---       #675
      01000CC4H   LINE      CODE     ---       #676
      01000CC9H   LINE      CODE     ---       #678
      01000CC9H   LINE      CODE     ---       #681
      01000CD2H   LINE      CODE     ---       #682
      01000CD8H   LINE      CODE     ---       #684
      01000CDBH   LINE      CODE     ---       #685
      01000CE3H   LINE      CODE     ---       #686
      01000CE3H   LINE      CODE     ---       #705
      01000CF9H   LINE      CODE     ---       #706
      01000CF9H   LINE      CODE     ---       #707
LX51 LINKER/LOCATER V4.66.100.0                                                       10/12/2023  14:31:55  PAGE 67


      01000CFFH   LINE      CODE     ---       #708
      01000D03H   LINE      CODE     ---       #709
      01000D06H   LINE      CODE     ---       #711
      01000D06H   LINE      CODE     ---       #712
      01000D0BH   LINE      CODE     ---       #714
      01000D13H   LINE      CODE     ---       #715
      01000D13H   LINE      CODE     ---       #716
      01000D1AH   LINE      CODE     ---       #717
      01000D1AH   LINE      CODE     ---       #718
      01000D20H   LINE      CODE     ---       #719
      01000D24H   LINE      CODE     ---       #720
      01000D28H   LINE      CODE     ---       #721
      01000D2AH   LINE      CODE     ---       #722
      01000D2EH   LINE      CODE     ---       #723
      01000D2EH   LINE      CODE     ---       #724
      01000D34H   LINE      CODE     ---       #725
      01000D38H   LINE      CODE     ---       #726
      01000D3CH   LINE      CODE     ---       #727
      01000D3EH   LINE      CODE     ---       #729
      01000D3EH   LINE      CODE     ---       #730
      01000D44H   LINE      CODE     ---       #731
      01000D48H   LINE      CODE     ---       #732
      01000D4CH   LINE      CODE     ---       #733
      01000D4CH   LINE      CODE     ---       #734
      01000D50H   LINE      CODE     ---       #735
      01000D57H   LINE      CODE     ---       #737
      01000D5AH   LINE      CODE     ---       #738
      01000D5FH   LINE      CODE     ---       #739
      01000D5FH   LINE      CODE     ---       #740
      01000D63H   LINE      CODE     ---       #741
      01000D6AH   LINE      CODE     ---       #742
      01000D71H   LINE      CODE     ---       #743
      01000D71H   LINE      CODE     ---       #744
      01000D77H   LINE      CODE     ---       #745
      01000D7BH   LINE      CODE     ---       #746
      01000D7FH   LINE      CODE     ---       #747
      01000D83H   LINE      CODE     ---       #748
      01000D86H   LINE      CODE     ---       #749
      01000D8AH   LINE      CODE     ---       #750
      01000D8AH   LINE      CODE     ---       #751
      01000D8EH   LINE      CODE     ---       #752
      01000D94H   LINE      CODE     ---       #753
      01000D98H   LINE      CODE     ---       #754
      01000D9BH   LINE      CODE     ---       #756
      01000D9BH   LINE      CODE     ---       #757
      01000D9FH   LINE      CODE     ---       #758
      01000DA5H   LINE      CODE     ---       #759
      01000DA9H   LINE      CODE     ---       #760
      01000DA9H   LINE      CODE     ---       #761
      01000DACH   LINE      CODE     ---       #762
      01000DB4H   LINE      CODE     ---       #763
      01000DB4H   LINE      CODE     ---       #764
      01000DBBH   LINE      CODE     ---       #765
      01000DBBH   LINE      CODE     ---       #766
      01000DC1H   LINE      CODE     ---       #767
      01000DC5H   LINE      CODE     ---       #768
      01000DC9H   LINE      CODE     ---       #769
      01000DCDH   LINE      CODE     ---       #770
      01000DD0H   LINE      CODE     ---       #771
      01000DD4H   LINE      CODE     ---       #772
      01000DD4H   LINE      CODE     ---       #773
      01000DDAH   LINE      CODE     ---       #774
      01000DDEH   LINE      CODE     ---       #775
      01000DE2H   LINE      CODE     ---       #776
      01000DE6H   LINE      CODE     ---       #777
LX51 LINKER/LOCATER V4.66.100.0                                                       10/12/2023  14:31:55  PAGE 68


      01000DEDH   LINE      CODE     ---       #778
      01000DEFH   LINE      CODE     ---       #780
      01000DEFH   LINE      CODE     ---       #781
      01000DF5H   LINE      CODE     ---       #782
      01000DF9H   LINE      CODE     ---       #783
      01000DFDH   LINE      CODE     ---       #784
      01000E01H   LINE      CODE     ---       #785
      01000E08H   LINE      CODE     ---       #786
      01000E08H   LINE      CODE     ---       #787
      01000E0AH   LINE      CODE     ---       #788
      01000E0FH   LINE      CODE     ---       #789
      01000E0FH   LINE      CODE     ---       #790
      01000E16H   LINE      CODE     ---       #791
      01000E16H   LINE      CODE     ---       #792
      01000E1CH   LINE      CODE     ---       #793
      01000E20H   LINE      CODE     ---       #794
      01000E24H   LINE      CODE     ---       #795
      01000E28H   LINE      CODE     ---       #796
      01000E2FH   LINE      CODE     ---       #797
      01000E31H   LINE      CODE     ---       #798
      01000E35H   LINE      CODE     ---       #799
      01000E35H   LINE      CODE     ---       #800
      01000E3BH   LINE      CODE     ---       #801
      01000E3FH   LINE      CODE     ---       #802
      01000E43H   LINE      CODE     ---       #803
      01000E45H   LINE      CODE     ---       #805
      01000E45H   LINE      CODE     ---       #806
      01000E4BH   LINE      CODE     ---       #807
      01000E4FH   LINE      CODE     ---       #808
      01000E53H   LINE      CODE     ---       #809
      01000E53H   LINE      CODE     ---       #810
      01000E55H   LINE      CODE     ---       #812
      01000E55H   LINE      CODE     ---       #813
      01000E59H   LINE      CODE     ---       #814
      01000E5DH   LINE      CODE     ---       #815
      01000E63H   LINE      CODE     ---       #816
      01000E63H   LINE      CODE     ---       #817
      01000E63H   LINE      CODE     ---       #830
      01000E6AH   LINE      CODE     ---       #831
      01000E6AH   LINE      CODE     ---       #832
      01000E78H   LINE      CODE     ---       #833
      01000E78H   LINE      CODE     ---       #834
      01000E7AH   LINE      CODE     ---       #835
      01000E7FH   LINE      CODE     ---       #837
      01000E7FH   LINE      CODE     ---       #838
      01000E7FH   LINE      CODE     ---       #852
      01000E8BH   LINE      CODE     ---       #853
      01000E8FH   LINE      CODE     ---       #860
      01000E94H   LINE      CODE     ---       #861
      01000E94H   LINE      CODE     ---       #882
      01000E9AH   LINE      CODE     ---       #883
      01000E9CH   LINE      CODE     ---       #885
      01000E9CH   LINE      CODE     ---       #886
      01000EA1H   LINE      CODE     ---       #887
      01000EA1H   LINE      CODE     ---       #891
      01000EACH   LINE      CODE     ---       #892
      01000EACH   LINE      CODE     ---       #893
      01000EBFH   LINE      CODE     ---       #894
      01000EC7H   LINE      CODE     ---       #895
      01000ED3H   LINE      CODE     ---       #896
      01000ED7H   LINE      CODE     ---       #897
      01000ED9H   LINE      CODE     ---       #899
      01000EDFH   LINE      CODE     ---       #906
      01000EEAH   LINE      CODE     ---       #907
      01000EECH   LINE      CODE     ---       #909
LX51 LINKER/LOCATER V4.66.100.0                                                       10/12/2023  14:31:55  PAGE 69


      01000EEFH   LINE      CODE     ---       #910
      01000EEFH   LINE      CODE     ---       #911
      01000EFCH   LINE      CODE     ---       #912
      01000EFCH   LINE      CODE     ---       #913
      01000F04H   LINE      CODE     ---       #914
      01000F06H   LINE      CODE     ---       #916
      01000F06H   LINE      CODE     ---       #917
      01000F0AH   LINE      CODE     ---       #918
      01000F0AH   LINE      CODE     ---       #919
      01000F0AH   LINE      CODE     ---       #921
      01000F12H   LINE      CODE     ---       #922
      01000F14H   LINE      CODE     ---       #924
      01000F1EH   LINE      CODE     ---       #925
      01000F24H   LINE      CODE     ---       #929
      01000F26H   LINE      CODE     ---       #930
      01000F2EH   LINE      CODE     ---       #931
      01000F2EH   LINE      CODE     ---       #934
      01000F3EH   LINE      CODE     ---       #936
      01000F46H   LINE      CODE     ---       #937
      01000F51H   LINE      CODE     ---       #938
      01000F5FH   LINE      CODE     ---       #939
      01000F6DH   LINE      CODE     ---       #940
      01000F7AH   LINE      CODE     ---       #941
      01000F87H   LINE      CODE     ---       #943
      01000F87H   LINE      CODE     ---       #1121
      01000F87H   LINE      CODE     ---       #1148
      01000F8EH   LINE      CODE     ---       #1149
      01000F8EH   LINE      CODE     ---       #1150
      01000F8FH   LINE      CODE     ---       #1153
      01000F98H   LINE      CODE     ---       #1154
      01000F9EH   LINE      CODE     ---       #1156
      01000FA2H   LINE      CODE     ---       #1158
      01000FABH   LINE      CODE     ---       #1159
      01000FADH   LINE      CODE     ---       #1161
      01000FBBH   LINE      CODE     ---       #1162
      01000FC1H   LINE      CODE     ---       #1164
      01000FC5H   LINE      CODE     ---       #1166
      01000FCEH   LINE      CODE     ---       #1167
      01000FD0H   LINE      CODE     ---       #1179
      01000FD0H   LINE      CODE     ---       #1207
      01000FD8H   LINE      CODE     ---       #1208
      01000FD8H   LINE      CODE     ---       #1211
      01000FE7H   LINE      CODE     ---       #1212
      01000FEBH   LINE      CODE     ---       #1214
      01000FEDH   LINE      CODE     ---       #1215
      01000FEFH   LINE      CODE     ---       #1217
      01000FF1H   LINE      CODE     ---       #1220
      01000FF9H   LINE      CODE     ---       #1221
      01000FF9H   LINE      CODE     ---       #1224
      01001008H   LINE      CODE     ---       #1225
      0100100CH   LINE      CODE     ---       #1227
      0100100EH   LINE      CODE     ---       #1228
      01001010H   LINE      CODE     ---       #1230
      01001012H   LINE      CODE     ---       #1238
      01001018H   LINE      CODE     ---       #1239
      01001018H   LINE      CODE     ---       #1240
      0100101EH   LINE      CODE     ---       #1242
      01001034H   LINE      CODE     ---       #1243
      01001034H   LINE      CODE     ---       #1244
      0100103AH   LINE      CODE     ---       #1245
      0100103FH   LINE      CODE     ---       #1247
      01001044H   LINE      CODE     ---       #1248
      01001044H   LINE      CODE     ---       #1249
      01001044H   LINE      CODE     ---       #1250
      ---         BLOCKEND  ---      ---       LVL=0
LX51 LINKER/LOCATER V4.66.100.0                                                       10/12/2023  14:31:55  PAGE 70



      ---         MODULE    ---      ---       USERCALCULATE
      020001EEH   PUBLIC    XDATA    WORD      MaxSpdX10ms
      020001ECH   PUBLIC    XDATA    INT       FocIXMax_Max
      020001EAH   PUBLIC    XDATA    INT       FocIXMax
      020001E8H   PUBLIC    XDATA    WORD      VspIBusAlt
      020001E6H   PUBLIC    XDATA    WORD      UltraSpdX10ms
      020001E5H   PUBLIC    XDATA    BYTE      NormalSpdFiltCnt
      020001E1H   PUBLIC    XDATA    LONG      VspRPMAlt
      020001DDH   PUBLIC    XDATA    LONG      VspRPMCmd
      020001DCH   PUBLIC    XDATA    BYTE      HighSpdRestartCnt
      020001DBH   PUBLIC    XDATA    BYTE      HighSpdInhibitLv
      020001D9H   PUBLIC    XDATA    WORD      NormalSpdX10ms
      020001D7H   PUBLIC    XDATA    INT       FocIC
      020001D5H   PUBLIC    XDATA    INT       FocIB
      020001D3H   PUBLIC    XDATA    INT       FocIA
      020001D1H   PUBLIC    XDATA    WORD      HighSpdInhibitX10ms
      020001D0H   PUBLIC    XDATA    BYTE      MaxSpdFiltCnt
      020001CEH   PUBLIC    XDATA    INT       IXMaxOCCnt
      01001EAEH   PUBLIC    CODE     ---       SpeedRestriction
      01002ADAH   PUBLIC    CODE     ---       CheckHeatTemper
      01002A09H   PUBLIC    CODE     ---       CheckTemper
      02000286H   PUBLIC    XDATA    BYTE      ?_CalTemperOffset?BYTE
      0100368AH   PUBLIC    CODE     ---       _CalTemperOffset
      01002173H   PUBLIC    CODE     ---       CheckCurrent
      000000B0H.4 SFRSYM    DATA     BIT       GP34
      000000A0H.5 SFRSYM    DATA     BIT       GP25
      00000090H.6 SFRSYM    DATA     BIT       GP16
      00000080H.7 SFRSYM    DATA     BIT       GP07
      000000CDH   SFRSYM    DATA     BYTE      MDU_DB1
      000000C6H   SFRSYM    DATA     BYTE      MDU_DA2
      00000088H.1 SFRSYM    DATA     BIT       IT01
      00000088H.3 SFRSYM    DATA     BIT       IT10
      000000B0H.5 SFRSYM    DATA     BIT       GP35
      000000A0H.6 SFRSYM    DATA     BIT       GP26
      00000090H.7 SFRSYM    DATA     BIT       GP17
      00000080H   SFRSYM    DATA     BYTE      P0
      000000F6H   SFRSYM    DATA     WORD      PI_UKMIN
      000000C7H   SFRSYM    DATA     BYTE      MDU_DA3
      00000088H.4 SFRSYM    DATA     BIT       IT11
      000000C9H   SFRSYM    DATA     BYTE      RST_SR
      000000D9H   SFRSYM    DATA     BYTE      EVT_FILT
      000000B0H.6 SFRSYM    DATA     BIT       GP36
      000000A0H.7 SFRSYM    DATA     BIT       GP27
      00000090H   SFRSYM    DATA     BYTE      P1
      000000B0H.7 SFRSYM    DATA     BIT       GP37
      000000A0H   SFRSYM    DATA     BYTE      P2
      000000F4H   SFRSYM    DATA     WORD      PI_UKMAX
      000000B0H   SFRSYM    DATA     BYTE      P3
      000000E8H   SFRSYM    DATA     BYTE      P4
      000000D0H.6 SFRSYM    DATA     BIT       AC
      000000A8H.7 SFRSYM    DATA     BIT       EA
      000000D5H   SFRSYM    DATA     BYTE      CMP_CR0
      000000D6H   SFRSYM    DATA     BYTE      CMP_CR1
      000000DAH   SFRSYM    DATA     BYTE      CMP_CR2
      000000B8H.2 SFRSYM    DATA     BIT       PX00
      000000DCH   SFRSYM    DATA     BYTE      CMP_CR3
      000000F8H.0 SFRSYM    DATA     BIT       OISUH
      000000EAH   SFRSYM    DATA     WORD      PI_EK
      000000B8H.3 SFRSYM    DATA     BIT       PX01
      000000B8H.4 SFRSYM    DATA     BIT       PX10
      000000F8H.2 SFRSYM    DATA     BIT       OISVH
      000000B8H.5 SFRSYM    DATA     BIT       PX11
      000000F8H.1 SFRSYM    DATA     BIT       OISUL
      000000DDH   SFRSYM    DATA     BYTE      LPF_K
LX51 LINKER/LOCATER V4.66.100.0                                                       10/12/2023  14:31:55  PAGE 71


      000000F2H   SFRSYM    DATA     WORD      PI_KI
      000000A8H   SFRSYM    DATA     BYTE      IE
      000000F8H.3 SFRSYM    DATA     BIT       OISVL
      000000EEH   SFRSYM    DATA     WORD      PI_KP
      000000AAH   SFRSYM    DATA     WORD      TIM2__CNTR
      000000A2H   SFRSYM    DATA     WORD      TIM3__CNTR
      00000092H   SFRSYM    DATA     WORD      TIM4__CNTR
      000000ECH   SFRSYM    DATA     WORD      PI_UK
      000000DEH   SFRSYM    DATA     WORD      LPF_X
      00000098H.0 SFRSYM    DATA     BIT       RI
      00000098H.6 SFRSYM    DATA     BIT       UT_MOD0
      000000E6H   SFRSYM    DATA     WORD      LPF_Y
      00000098H.7 SFRSYM    DATA     BIT       UT_MOD1
      000000D0H.7 SFRSYM    DATA     BIT       CY
      00000098H.1 SFRSYM    DATA     BIT       TI
      000000C0H.2 SFRSYM    DATA     BIT       PTIM10
      00000084H   SFRSYM    DATA     BYTE      FLA_KEY
      000000C0H.0 SFRSYM    DATA     BIT       PTIM20
      000000C0H.3 SFRSYM    DATA     BIT       PTIM11
      00000098H   SFRSYM    DATA     BYTE      UT_CR
      000000C8H.2 SFRSYM    DATA     BIT       PTIM30
      000000C0H.1 SFRSYM    DATA     BIT       PTIM21
      00000099H   SFRSYM    DATA     BYTE      UT_DR
      000000C8H.3 SFRSYM    DATA     BIT       PTIM31
      000000D0H.2 SFRSYM    DATA     BIT       OV
      0000009AH   SFRSYM    DATA     WORD      UT_BAUD
      000000C4H   SFRSYM    DATA     WORD      MDU_DA01
      000000CCH   SFRSYM    DATA     WORD      MDU_DB01
      00000087H   SFRSYM    DATA     BYTE      PCON
      000000C6H   SFRSYM    DATA     WORD      MDU_DA23
      00000088H   SFRSYM    DATA     BYTE      TCON
      00000082H   SFRSYM    DATA     WORD      DPTR
      000000D8H.0 SFRSYM    DATA     BIT       PUART0
      000000D8H.1 SFRSYM    DATA     BIT       PUART1
      000000D8H.2 SFRSYM    DATA     BIT       PI2C0
      00000088H.2 SFRSYM    DATA     BIT       IF0
      000000D8H.3 SFRSYM    DATA     BIT       PI2C1
      000000AEH   SFRSYM    DATA     WORD      TIM2__ARR
      000000A1H   SFRSYM    DATA     BYTE      TIM2_CR0
      000000A6H   SFRSYM    DATA     WORD      TIM3__ARR
      0000009CH   SFRSYM    DATA     BYTE      TIM3_CR0
      000000A9H   SFRSYM    DATA     BYTE      TIM2_CR1
      00000096H   SFRSYM    DATA     WORD      TIM4__ARR
      0000009EH   SFRSYM    DATA     BYTE      TIM4_CR0
      0000009DH   SFRSYM    DATA     BYTE      TIM3_CR1
      000000F8H   SFRSYM    DATA     BYTE      DRV_OUT
      0000009FH   SFRSYM    DATA     BYTE      TIM4_CR1
      000000DBH   SFRSYM    DATA     BYTE      LVSR
      000000A8H.4 SFRSYM    DATA     BIT       ES0
      00000085H   SFRSYM    DATA     BYTE      FLA_CR
      000000C0H.4 SFRSYM    DATA     BIT       PADC0
      000000B8H   SFRSYM    DATA     BYTE      IP0
      000000C0H.5 SFRSYM    DATA     BIT       PADC1
      000000C0H   SFRSYM    DATA     BYTE      IP1
      000000C8H   SFRSYM    DATA     BYTE      IP2
      00000098H.2 SFRSYM    DATA     BIT       RB8
      000000D8H   SFRSYM    DATA     BYTE      IP3
      000000A8H.0 SFRSYM    DATA     BIT       EX0
      00000098H.3 SFRSYM    DATA     BIT       TB8
      000000A8H.2 SFRSYM    DATA     BIT       EX1
      000000D0H.0 SFRSYM    DATA     BIT       P
      000000F9H   SFRSYM    DATA     BYTE      PI_LPF_CR
      00000098H.5 SFRSYM    DATA     BIT       SM2
      000000D8H.6 SFRSYM    DATA     BIT       PDMA0
      000000D8H.7 SFRSYM    DATA     BIT       PDMA1
LX51 LINKER/LOCATER V4.66.100.0                                                       10/12/2023  14:31:55  PAGE 72


      000000C2H   SFRSYM    DATA     WORD      MDU_MA
      000000D0H.3 SFRSYM    DATA     BIT       RS0
      000000CAH   SFRSYM    DATA     WORD      MDU_MB
      000000D0H.4 SFRSYM    DATA     BIT       RS1
      000000C1H   SFRSYM    DATA     BYTE      MDU_CR
      000000F8H.7 SFRSYM    DATA     BIT       MOE
      000000C0H.6 SFRSYM    DATA     BIT       PCMP0
      000000C0H.7 SFRSYM    DATA     BIT       PCMP1
      000000F8H.4 SFRSYM    DATA     BIT       OISWXH
      00000098H.4 SFRSYM    DATA     BIT       REN
      000000D7H   SFRSYM    DATA     BYTE      CMP_SR
      000000F8H.5 SFRSYM    DATA     BIT       OISWXL
      000000C8H.6 SFRSYM    DATA     BIT       PTSD0
      000000D8H.4 SFRSYM    DATA     BIT       PSPI0
      000000C8H.7 SFRSYM    DATA     BIT       PTSD1
      000000B8H.6 SFRSYM    DATA     BIT       PDRV0
      000000D8H.5 SFRSYM    DATA     BIT       PSPI1
      000000B8H.7 SFRSYM    DATA     BIT       PDRV1
      000000D1H   SFRSYM    DATA     BYTE      P1_IE
      000000D3H   SFRSYM    DATA     BYTE      P2_IE
      000000D2H   SFRSYM    DATA     BYTE      P1_IF
      000000D4H   SFRSYM    DATA     BYTE      P2_IF
      000000ACH   SFRSYM    DATA     WORD      TIM2__DR
      000000C8H.4 SFRSYM    DATA     BIT       PTIM4S0
      000000FCH   SFRSYM    DATA     BYTE      P0_OE
      000000A4H   SFRSYM    DATA     WORD      TIM3__DR
      000000C8H.5 SFRSYM    DATA     BIT       PTIM4S1
      000000FDH   SFRSYM    DATA     BYTE      P1_OE
      00000094H   SFRSYM    DATA     WORD      TIM4__DR
      000000D0H.5 SFRSYM    DATA     BIT       F0
      000000FEH   SFRSYM    DATA     BYTE      P2_OE
      000000D0H.1 SFRSYM    DATA     BIT       F1
      000000FFH   SFRSYM    DATA     BYTE      P3_OE
      00000080H.0 SFRSYM    DATA     BIT       GP00
      000000E9H   SFRSYM    DATA     BYTE      P4_OE
      00000090H.0 SFRSYM    DATA     BIT       GP10
      00000080H.1 SFRSYM    DATA     BIT       GP01
      000000A0H.0 SFRSYM    DATA     BIT       GP20
      00000090H.1 SFRSYM    DATA     BIT       GP11
      00000080H.2 SFRSYM    DATA     BIT       GP02
      000000B0H.0 SFRSYM    DATA     BIT       GP30
      000000A0H.1 SFRSYM    DATA     BIT       GP21
      00000090H.2 SFRSYM    DATA     BIT       GP12
      00000080H.3 SFRSYM    DATA     BIT       GP03
      000000B8H.0 SFRSYM    DATA     BIT       PLVW0
      000000A8H.1 SFRSYM    DATA     BIT       TSDIE
      000000D0H   SFRSYM    DATA     BYTE      PSW
      000000E8H.0 SFRSYM    DATA     BIT       GP40
      000000B0H.1 SFRSYM    DATA     BIT       GP31
      000000A0H.2 SFRSYM    DATA     BIT       GP22
      00000090H.3 SFRSYM    DATA     BIT       GP13
      00000080H.4 SFRSYM    DATA     BIT       GP04
      000000B8H.1 SFRSYM    DATA     BIT       PLVW1
      000000A8H.3 SFRSYM    DATA     BIT       SPIIE
      00000088H.5 SFRSYM    DATA     BIT       TSDIF
      000000E8H.1 SFRSYM    DATA     BIT       GP41
      000000B0H.2 SFRSYM    DATA     BIT       GP32
      000000A0H.3 SFRSYM    DATA     BIT       GP23
      00000090H.4 SFRSYM    DATA     BIT       GP14
      00000080H.5 SFRSYM    DATA     BIT       GP05
      000000C4H   SFRSYM    DATA     BYTE      MDU_DA0
      000000E8H.2 SFRSYM    DATA     BIT       GP42
      000000B0H.3 SFRSYM    DATA     BIT       GP33
      000000A0H.4 SFRSYM    DATA     BIT       GP24
      00000090H.5 SFRSYM    DATA     BIT       GP15
LX51 LINKER/LOCATER V4.66.100.0                                                       10/12/2023  14:31:55  PAGE 73


      00000080H.6 SFRSYM    DATA     BIT       GP06
      000000CCH   SFRSYM    DATA     BYTE      MDU_DB0
      000000C5H   SFRSYM    DATA     BYTE      MDU_DA1
      00000088H.0 SFRSYM    DATA     BIT       IT00

      01002173H   BLOCK     CODE     ---       LVL=0
      01002173H   LINE      CODE     ---       #60
      01002173H   LINE      CODE     ---       #61
      01002173H   LINE      CODE     ---       #62
      01002182H   LINE      CODE     ---       #63
      01002191H   LINE      CODE     ---       #64
      010021B1H   LINE      CODE     ---       #66
      010021B9H   LINE      CODE     ---       #67
      010021CAH   LINE      CODE     ---       #69
      010021DEH   LINE      CODE     ---       #71
      010021E6H   LINE      CODE     ---       #72
      010021EFH   LINE      CODE     ---       #74
      010021FBH   LINE      CODE     ---       #76
      0100220BH   LINE      CODE     ---       #77
      01002214H   LINE      CODE     ---       #79
      01002220H   LINE      CODE     ---       #81
      0100222FH   LINE      CODE     ---       #82
      0100223CH   LINE      CODE     ---       #83
      01002244H   LINE      CODE     ---       #84
      01002258H   LINE      CODE     ---       #85
      0100225DH   LINE      CODE     ---       #87
      01002278H   LINE      CODE     ---       #88
      0100227DH   LINE      CODE     ---       #91
      0100227DH   LINE      CODE     ---       #93
      01002288H   LINE      CODE     ---       #94
      01002288H   LINE      CODE     ---       #95
      01002296H   LINE      CODE     ---       #96
      01002296H   LINE      CODE     ---       #97
      0100229EH   LINE      CODE     ---       #98
      0100229EH   LINE      CODE     ---       #99
      010022A2H   LINE      CODE     ---       #100
      010022A6H   LINE      CODE     ---       #101
      010022ACH   LINE      CODE     ---       #102
      010022AFH   LINE      CODE     ---       #103
      010022B2H   LINE      CODE     ---       #104
      010022B2H   LINE      CODE     ---       #105
      010022B2H   LINE      CODE     ---       #106
      010022B3H   LINE      CODE     ---       #108
      010022B3H   LINE      CODE     ---       #109
      010022B7H   LINE      CODE     ---       #110
      010022BFH   LINE      CODE     ---       #111
      010022BFH   LINE      CODE     ---       #112
      010022C0H   LINE      CODE     ---       #113
      010022C0H   LINE      CODE     ---       #114
      010022C0H   LINE      CODE     ---       #115
      010022C0H   LINE      CODE     ---       #116
      ---         BLOCKEND  ---      ---       LVL=0

      0100368AH   BLOCK     CODE     ---       LVL=0
      02000286H   SYMBOL    XDATA    WORD      base
      00000004H   SYMBOL    DATA     WORD      val
      00000002H   SYMBOL    DATA     WORD      warm
      0200028CH   SYMBOL    XDATA    WORD      cool
      0100368AH   LINE      CODE     ---       #120
      01003692H   LINE      CODE     ---       #121
      01003692H   LINE      CODE     ---       #122
      010036BDH   LINE      CODE     ---       #123
      ---         BLOCKEND  ---      ---       LVL=0

      01002A09H   BLOCK     CODE     ---       LVL=0
LX51 LINKER/LOCATER V4.66.100.0                                                       10/12/2023  14:31:55  PAGE 74


      01002A09H   LINE      CODE     ---       #137
      01002A09H   LINE      CODE     ---       #138
      01002A09H   LINE      CODE     ---       #142
      01002A1BH   LINE      CODE     ---       #143
      01002A1BH   LINE      CODE     ---       #145
      01002A23H   LINE      CODE     ---       #146
      01002A46H   LINE      CODE     ---       #148
      01002A55H   LINE      CODE     ---       #149
      01002A72H   LINE      CODE     ---       #151
      01002A81H   LINE      CODE     ---       #152
      01002A9EH   LINE      CODE     ---       #156
      01002AADH   LINE      CODE     ---       #157
      01002ACAH   LINE      CODE     ---       #160
      01002AD1H   LINE      CODE     ---       #161
      01002AD2H   LINE      CODE     ---       #164
      01002AD2H   LINE      CODE     ---       #165
      01002AD9H   LINE      CODE     ---       #174
      01002AD9H   LINE      CODE     ---       #175
      ---         BLOCKEND  ---      ---       LVL=0

      01002ADAH   BLOCK     CODE     ---       LVL=0
      01002ADAH   LINE      CODE     ---       #195
      01002ADAH   LINE      CODE     ---       #196
      01002ADAH   LINE      CODE     ---       #199
      01002AECH   LINE      CODE     ---       #200
      01002AECH   LINE      CODE     ---       #202
      01002AF4H   LINE      CODE     ---       #203
      01002B17H   LINE      CODE     ---       #205
      01002B26H   LINE      CODE     ---       #206
      01002B43H   LINE      CODE     ---       #208
      01002B52H   LINE      CODE     ---       #209
      01002B6FH   LINE      CODE     ---       #213
      01002B7EH   LINE      CODE     ---       #214
      01002B9BH   LINE      CODE     ---       #217
      01002BA2H   LINE      CODE     ---       #218
      01002BA3H   LINE      CODE     ---       #221
      01002BA3H   LINE      CODE     ---       #222
      01002BAAH   LINE      CODE     ---       #231
      01002BAAH   LINE      CODE     ---       #232
      ---         BLOCKEND  ---      ---       LVL=0

      01001EAEH   BLOCK     CODE     ---       LVL=0
      01001EAEH   LINE      CODE     ---       #386
      01001EAEH   LINE      CODE     ---       #387
      01001EAEH   LINE      CODE     ---       #389
      01001EB7H   LINE      CODE     ---       #390
      01001EB7H   LINE      CODE     ---       #392
      01001EB7H   LINE      CODE     ---       #393
      01001EC7H   LINE      CODE     ---       #394
      01001EC7H   LINE      CODE     ---       #395
      01001ED2H   LINE      CODE     ---       #396
      01001ED2H   LINE      CODE     ---       #397
      01001ED5H   LINE      CODE     ---       #398
      01001EDAH   LINE      CODE     ---       #399
      01001EE0H   LINE      CODE     ---       #400
      01001EE0H   LINE      CODE     ---       #402
      01001EF8H   LINE      CODE     ---       #403
      01001EF8H   LINE      CODE     ---       #404
      01001F02H   LINE      CODE     ---       #405
      01001F07H   LINE      CODE     ---       #406
      01001F07H   LINE      CODE     ---       #407
      01001F0AH   LINE      CODE     ---       #409
      01001F0AH   LINE      CODE     ---       #410
      01001F15H   LINE      CODE     ---       #411
      01001F15H   LINE      CODE     ---       #412
LX51 LINKER/LOCATER V4.66.100.0                                                       10/12/2023  14:31:55  PAGE 75


      01001F18H   LINE      CODE     ---       #413
      01001F1DH   LINE      CODE     ---       #414
      01001F23H   LINE      CODE     ---       #415
      01001F23H   LINE      CODE     ---       #417
      01001F29H   LINE      CODE     ---       #418
      01001F29H   LINE      CODE     ---       #419
      01001F3DH   LINE      CODE     ---       #420
      01001F3DH   LINE      CODE     ---       #421
      01001F46H   LINE      CODE     ---       #422
      01001F4CH   LINE      CODE     ---       #423
      01001F4CH   LINE      CODE     ---       #424
      01001F4EH   LINE      CODE     ---       #426
      01001F4EH   LINE      CODE     ---       #427
      01001F63H   LINE      CODE     ---       #428
      01001F63H   LINE      CODE     ---       #429
      01001F6CH   LINE      CODE     ---       #430
      01001F72H   LINE      CODE     ---       #431
      01001F72H   LINE      CODE     ---       #432
      01001F72H   LINE      CODE     ---       #434
      01001F7AH   LINE      CODE     ---       #435
      01001F7AH   LINE      CODE     ---       #436
      01001F83H   LINE      CODE     ---       #437
      01001F83H   LINE      CODE     ---       #438
      01001F85H   LINE      CODE     ---       #439
      01001F89H   LINE      CODE     ---       #440
      01001F8DH   LINE      CODE     ---       #441
      01001F93H   LINE      CODE     ---       #442
      01001F96H   LINE      CODE     ---       #443
      01001F96H   LINE      CODE     ---       #444
      01001F96H   LINE      CODE     ---       #445
      01001F96H   LINE      CODE     ---       #446
      01001F96H   LINE      CODE     ---       #447
      01001F98H   LINE      CODE     ---       #448
      01001F9FH   LINE      CODE     ---       #449
      01001F9FH   LINE      CODE     ---       #450
      01001FB4H   LINE      CODE     ---       #451
      01001FB4H   LINE      CODE     ---       #452
      01001FBBH   LINE      CODE     ---       #453
      01001FBFH   LINE      CODE     ---       #454
      01001FBFH   LINE      CODE     ---       #455
      01001FBFH   LINE      CODE     ---       #464
      01001FCEH   LINE      CODE     ---       #465
      01001FCEH   LINE      CODE     ---       #466
      01001FDCH   LINE      CODE     ---       #467
      01001FDCH   LINE      CODE     ---       #468
      01001FF1H   LINE      CODE     ---       #469
      01001FF1H   LINE      CODE     ---       #470
      01001FF8H   LINE      CODE     ---       #472
      01001FFCH   LINE      CODE     ---       #473
      01002002H   LINE      CODE     ---       #474
      01002005H   LINE      CODE     ---       #475
      01002008H   LINE      CODE     ---       #476
      01002008H   LINE      CODE     ---       #477
      01002008H   LINE      CODE     ---       #478
      01002009H   LINE      CODE     ---       #480
      01002010H   LINE      CODE     ---       #481
      ---         BLOCKEND  ---      ---       LVL=0

      ---         MODULE    ---      ---       USERSIGNAL
      020002A4H   PUBLIC    XDATA    BYTE      SparkErrCodeL
      020002A3H   PUBLIC    XDATA    BYTE      SparkErrCodeH
      020002A1H   PUBLIC    XDATA    WORD      SparkClock
      0200029FH   PUBLIC    XDATA    WORD      SparkOnPrd
      0200029EH   PUBLIC    XDATA    BYTE      SparkStepSum
      00000008H   PUBLIC    IDATA    WORD      TermTmr
LX51 LINKER/LOCATER V4.66.100.0                                                       10/12/2023  14:31:55  PAGE 76


      0200029DH   PUBLIC    XDATA    BYTE      SparkErrStep
      0200029CH   PUBLIC    XDATA    BYTE      SparkErrCode
      00000021H.5 PUBLIC    BIT      BIT       LightTurn
      0200029AH   PUBLIC    XDATA    WORD      SparkBlinkPrd
      000000B0H.4 SFRSYM    DATA     BIT       GP34
      000000A0H.5 SFRSYM    DATA     BIT       GP25
      00000090H.6 SFRSYM    DATA     BIT       GP16
      00000080H.7 SFRSYM    DATA     BIT       GP07
      000000CDH   SFRSYM    DATA     BYTE      MDU_DB1
      000000C6H   SFRSYM    DATA     BYTE      MDU_DA2
      00000088H.1 SFRSYM    DATA     BIT       IT01
      00000088H.3 SFRSYM    DATA     BIT       IT10
      000000B0H.5 SFRSYM    DATA     BIT       GP35
      000000A0H.6 SFRSYM    DATA     BIT       GP26
      00000090H.7 SFRSYM    DATA     BIT       GP17
      00000080H   SFRSYM    DATA     BYTE      P0
      000000F6H   SFRSYM    DATA     WORD      PI_UKMIN
      000000C7H   SFRSYM    DATA     BYTE      MDU_DA3
      00000088H.4 SFRSYM    DATA     BIT       IT11
      000000C9H   SFRSYM    DATA     BYTE      RST_SR
      000000D9H   SFRSYM    DATA     BYTE      EVT_FILT
      000000B0H.6 SFRSYM    DATA     BIT       GP36
      000000A0H.7 SFRSYM    DATA     BIT       GP27
      00000090H   SFRSYM    DATA     BYTE      P1
      000000B0H.7 SFRSYM    DATA     BIT       GP37
      000000A0H   SFRSYM    DATA     BYTE      P2
      000000F4H   SFRSYM    DATA     WORD      PI_UKMAX
      000000B0H   SFRSYM    DATA     BYTE      P3
      000000E8H   SFRSYM    DATA     BYTE      P4
      000000D0H.6 SFRSYM    DATA     BIT       AC
      000000A8H.7 SFRSYM    DATA     BIT       EA
      000000D5H   SFRSYM    DATA     BYTE      CMP_CR0
      000000D6H   SFRSYM    DATA     BYTE      CMP_CR1
      000000DAH   SFRSYM    DATA     BYTE      CMP_CR2
      000000B8H.2 SFRSYM    DATA     BIT       PX00
      000000DCH   SFRSYM    DATA     BYTE      CMP_CR3
      000000F8H.0 SFRSYM    DATA     BIT       OISUH
      000000EAH   SFRSYM    DATA     WORD      PI_EK
      000000B8H.3 SFRSYM    DATA     BIT       PX01
      000000B8H.4 SFRSYM    DATA     BIT       PX10
      000000F8H.2 SFRSYM    DATA     BIT       OISVH
      000000B8H.5 SFRSYM    DATA     BIT       PX11
      000000F8H.1 SFRSYM    DATA     BIT       OISUL
      000000DDH   SFRSYM    DATA     BYTE      LPF_K
      000000F2H   SFRSYM    DATA     WORD      PI_KI
      000000A8H   SFRSYM    DATA     BYTE      IE
      000000F8H.3 SFRSYM    DATA     BIT       OISVL
      000000EEH   SFRSYM    DATA     WORD      PI_KP
      000000AAH   SFRSYM    DATA     WORD      TIM2__CNTR
      000000A2H   SFRSYM    DATA     WORD      TIM3__CNTR
      00000092H   SFRSYM    DATA     WORD      TIM4__CNTR
      000000ECH   SFRSYM    DATA     WORD      PI_UK
      000000DEH   SFRSYM    DATA     WORD      LPF_X
      00000098H.0 SFRSYM    DATA     BIT       RI
      00000098H.6 SFRSYM    DATA     BIT       UT_MOD0
      000000E6H   SFRSYM    DATA     WORD      LPF_Y
      00000098H.7 SFRSYM    DATA     BIT       UT_MOD1
      000000D0H.7 SFRSYM    DATA     BIT       CY
      00000098H.1 SFRSYM    DATA     BIT       TI
      000000C0H.2 SFRSYM    DATA     BIT       PTIM10
      00000084H   SFRSYM    DATA     BYTE      FLA_KEY
      000000C0H.0 SFRSYM    DATA     BIT       PTIM20
      000000C0H.3 SFRSYM    DATA     BIT       PTIM11
      00000098H   SFRSYM    DATA     BYTE      UT_CR
      000000C8H.2 SFRSYM    DATA     BIT       PTIM30
LX51 LINKER/LOCATER V4.66.100.0                                                       10/12/2023  14:31:55  PAGE 77


      000000C0H.1 SFRSYM    DATA     BIT       PTIM21
      00000099H   SFRSYM    DATA     BYTE      UT_DR
      000000C8H.3 SFRSYM    DATA     BIT       PTIM31
      000000D0H.2 SFRSYM    DATA     BIT       OV
      0000009AH   SFRSYM    DATA     WORD      UT_BAUD
      000000C4H   SFRSYM    DATA     WORD      MDU_DA01
      000000CCH   SFRSYM    DATA     WORD      MDU_DB01
      00000087H   SFRSYM    DATA     BYTE      PCON
      000000C6H   SFRSYM    DATA     WORD      MDU_DA23
      00000088H   SFRSYM    DATA     BYTE      TCON
      00000082H   SFRSYM    DATA     WORD      DPTR
      000000D8H.0 SFRSYM    DATA     BIT       PUART0
      000000D8H.1 SFRSYM    DATA     BIT       PUART1
      000000D8H.2 SFRSYM    DATA     BIT       PI2C0
      00000088H.2 SFRSYM    DATA     BIT       IF0
      000000D8H.3 SFRSYM    DATA     BIT       PI2C1
      000000AEH   SFRSYM    DATA     WORD      TIM2__ARR
      000000A1H   SFRSYM    DATA     BYTE      TIM2_CR0
      000000A6H   SFRSYM    DATA     WORD      TIM3__ARR
      0000009CH   SFRSYM    DATA     BYTE      TIM3_CR0
      000000A9H   SFRSYM    DATA     BYTE      TIM2_CR1
      00000096H   SFRSYM    DATA     WORD      TIM4__ARR
      0000009EH   SFRSYM    DATA     BYTE      TIM4_CR0
      0000009DH   SFRSYM    DATA     BYTE      TIM3_CR1
      000000F8H   SFRSYM    DATA     BYTE      DRV_OUT
      0000009FH   SFRSYM    DATA     BYTE      TIM4_CR1
      000000DBH   SFRSYM    DATA     BYTE      LVSR
      000000A8H.4 SFRSYM    DATA     BIT       ES0
      00000085H   SFRSYM    DATA     BYTE      FLA_CR
      000000C0H.4 SFRSYM    DATA     BIT       PADC0
      000000B8H   SFRSYM    DATA     BYTE      IP0
      000000C0H.5 SFRSYM    DATA     BIT       PADC1
      000000C0H   SFRSYM    DATA     BYTE      IP1
      000000C8H   SFRSYM    DATA     BYTE      IP2
      00000098H.2 SFRSYM    DATA     BIT       RB8
      000000D8H   SFRSYM    DATA     BYTE      IP3
      000000A8H.0 SFRSYM    DATA     BIT       EX0
      00000098H.3 SFRSYM    DATA     BIT       TB8
      000000A8H.2 SFRSYM    DATA     BIT       EX1
      000000D0H.0 SFRSYM    DATA     BIT       P
      000000F9H   SFRSYM    DATA     BYTE      PI_LPF_CR
      00000098H.5 SFRSYM    DATA     BIT       SM2
      000000D8H.6 SFRSYM    DATA     BIT       PDMA0
      000000D8H.7 SFRSYM    DATA     BIT       PDMA1
      000000C2H   SFRSYM    DATA     WORD      MDU_MA
      000000D0H.3 SFRSYM    DATA     BIT       RS0
      000000CAH   SFRSYM    DATA     WORD      MDU_MB
      000000D0H.4 SFRSYM    DATA     BIT       RS1
      000000C1H   SFRSYM    DATA     BYTE      MDU_CR
      000000F8H.7 SFRSYM    DATA     BIT       MOE
      000000C0H.6 SFRSYM    DATA     BIT       PCMP0
      000000C0H.7 SFRSYM    DATA     BIT       PCMP1
      000000F8H.4 SFRSYM    DATA     BIT       OISWXH
      00000098H.4 SFRSYM    DATA     BIT       REN
      000000D7H   SFRSYM    DATA     BYTE      CMP_SR
      000000F8H.5 SFRSYM    DATA     BIT       OISWXL
      000000C8H.6 SFRSYM    DATA     BIT       PTSD0
      000000D8H.4 SFRSYM    DATA     BIT       PSPI0
      000000C8H.7 SFRSYM    DATA     BIT       PTSD1
      000000B8H.6 SFRSYM    DATA     BIT       PDRV0
      000000D8H.5 SFRSYM    DATA     BIT       PSPI1
      000000B8H.7 SFRSYM    DATA     BIT       PDRV1
      000000D1H   SFRSYM    DATA     BYTE      P1_IE
      000000D3H   SFRSYM    DATA     BYTE      P2_IE
      000000D2H   SFRSYM    DATA     BYTE      P1_IF
LX51 LINKER/LOCATER V4.66.100.0                                                       10/12/2023  14:31:55  PAGE 78


      000000D4H   SFRSYM    DATA     BYTE      P2_IF
      000000ACH   SFRSYM    DATA     WORD      TIM2__DR
      000000C8H.4 SFRSYM    DATA     BIT       PTIM4S0
      000000FCH   SFRSYM    DATA     BYTE      P0_OE
      000000A4H   SFRSYM    DATA     WORD      TIM3__DR
      000000C8H.5 SFRSYM    DATA     BIT       PTIM4S1
      000000FDH   SFRSYM    DATA     BYTE      P1_OE
      00000094H   SFRSYM    DATA     WORD      TIM4__DR
      000000D0H.5 SFRSYM    DATA     BIT       F0
      000000FEH   SFRSYM    DATA     BYTE      P2_OE
      000000D0H.1 SFRSYM    DATA     BIT       F1
      000000FFH   SFRSYM    DATA     BYTE      P3_OE
      00000080H.0 SFRSYM    DATA     BIT       GP00
      000000E9H   SFRSYM    DATA     BYTE      P4_OE
      00000090H.0 SFRSYM    DATA     BIT       GP10
      00000080H.1 SFRSYM    DATA     BIT       GP01
      000000A0H.0 SFRSYM    DATA     BIT       GP20
      00000090H.1 SFRSYM    DATA     BIT       GP11
      00000080H.2 SFRSYM    DATA     BIT       GP02
      000000B0H.0 SFRSYM    DATA     BIT       GP30
      000000A0H.1 SFRSYM    DATA     BIT       GP21
      00000090H.2 SFRSYM    DATA     BIT       GP12
      00000080H.3 SFRSYM    DATA     BIT       GP03
      000000B8H.0 SFRSYM    DATA     BIT       PLVW0
      000000A8H.1 SFRSYM    DATA     BIT       TSDIE
      000000D0H   SFRSYM    DATA     BYTE      PSW
      000000E8H.0 SFRSYM    DATA     BIT       GP40
      000000B0H.1 SFRSYM    DATA     BIT       GP31
      000000A0H.2 SFRSYM    DATA     BIT       GP22
      00000090H.3 SFRSYM    DATA     BIT       GP13
      00000080H.4 SFRSYM    DATA     BIT       GP04
      000000B8H.1 SFRSYM    DATA     BIT       PLVW1
      000000A8H.3 SFRSYM    DATA     BIT       SPIIE
      00000088H.5 SFRSYM    DATA     BIT       TSDIF
      000000E8H.1 SFRSYM    DATA     BIT       GP41
      000000B0H.2 SFRSYM    DATA     BIT       GP32
      000000A0H.3 SFRSYM    DATA     BIT       GP23
      00000090H.4 SFRSYM    DATA     BIT       GP14
      00000080H.5 SFRSYM    DATA     BIT       GP05
      000000C4H   SFRSYM    DATA     BYTE      MDU_DA0
      000000E8H.2 SFRSYM    DATA     BIT       GP42
      000000B0H.3 SFRSYM    DATA     BIT       GP33
      000000A0H.4 SFRSYM    DATA     BIT       GP24
      00000090H.5 SFRSYM    DATA     BIT       GP15
      00000080H.6 SFRSYM    DATA     BIT       GP06
      000000CCH   SFRSYM    DATA     BYTE      MDU_DB0
      000000C5H   SFRSYM    DATA     BYTE      MDU_DA1
      00000088H.0 SFRSYM    DATA     BIT       IT00

      ---         MODULE    ---      ---       USERFLASH
      020002ACH   PUBLIC    XDATA    ---       FlashReadLine
      020002ABH   PUBLIC    XDATA    BYTE      FaultOffset
      020002AAH   PUBLIC    XDATA    BYTE      FlashAddrOffset
      020002A9H   PUBLIC    XDATA    BYTE      FlashPieceNum
      020002A7H   PUBLIC    XDATA    WORD      FlashWriteTimes
      020002A6H   PUBLIC    XDATA    BYTE      FlashInitFlag
      020002A5H   PUBLIC    XDATA    BYTE      FlashSaveFlag
      01002EA3H   PUBLIC    CODE     ---       FlashLoopPro
      01002637H   PUBLIC    CODE     ---       DryerFlashInit
      01003245H   PUBLIC    CODE     ---       FlashEarseAndWrite
      01003453H   PUBLIC    CODE     ---       FlashWriteData
      000000B0H.4 SFRSYM    DATA     BIT       GP34
      000000A0H.5 SFRSYM    DATA     BIT       GP25
      00000090H.6 SFRSYM    DATA     BIT       GP16
      00000080H.7 SFRSYM    DATA     BIT       GP07
LX51 LINKER/LOCATER V4.66.100.0                                                       10/12/2023  14:31:55  PAGE 79


      000000CDH   SFRSYM    DATA     BYTE      MDU_DB1
      000000C6H   SFRSYM    DATA     BYTE      MDU_DA2
      00000088H.1 SFRSYM    DATA     BIT       IT01
      00000088H.3 SFRSYM    DATA     BIT       IT10
      000000B0H.5 SFRSYM    DATA     BIT       GP35
      000000A0H.6 SFRSYM    DATA     BIT       GP26
      00000090H.7 SFRSYM    DATA     BIT       GP17
      00000080H   SFRSYM    DATA     BYTE      P0
      000000F6H   SFRSYM    DATA     WORD      PI_UKMIN
      000000C7H   SFRSYM    DATA     BYTE      MDU_DA3
      00000088H.4 SFRSYM    DATA     BIT       IT11
      000000C9H   SFRSYM    DATA     BYTE      RST_SR
      000000D9H   SFRSYM    DATA     BYTE      EVT_FILT
      000000B0H.6 SFRSYM    DATA     BIT       GP36
      000000A0H.7 SFRSYM    DATA     BIT       GP27
      00000090H   SFRSYM    DATA     BYTE      P1
      000000B0H.7 SFRSYM    DATA     BIT       GP37
      000000A0H   SFRSYM    DATA     BYTE      P2
      000000F4H   SFRSYM    DATA     WORD      PI_UKMAX
      000000B0H   SFRSYM    DATA     BYTE      P3
      000000E8H   SFRSYM    DATA     BYTE      P4
      000000D0H.6 SFRSYM    DATA     BIT       AC
      000000A8H.7 SFRSYM    DATA     BIT       EA
      000000D5H   SFRSYM    DATA     BYTE      CMP_CR0
      000000D6H   SFRSYM    DATA     BYTE      CMP_CR1
      000000DAH   SFRSYM    DATA     BYTE      CMP_CR2
      000000B8H.2 SFRSYM    DATA     BIT       PX00
      000000DCH   SFRSYM    DATA     BYTE      CMP_CR3
      000000F8H.0 SFRSYM    DATA     BIT       OISUH
      000000EAH   SFRSYM    DATA     WORD      PI_EK
      000000B8H.3 SFRSYM    DATA     BIT       PX01
      000000B8H.4 SFRSYM    DATA     BIT       PX10
      000000F8H.2 SFRSYM    DATA     BIT       OISVH
      000000B8H.5 SFRSYM    DATA     BIT       PX11
      000000F8H.1 SFRSYM    DATA     BIT       OISUL
      000000DDH   SFRSYM    DATA     BYTE      LPF_K
      000000F2H   SFRSYM    DATA     WORD      PI_KI
      000000A8H   SFRSYM    DATA     BYTE      IE
      000000F8H.3 SFRSYM    DATA     BIT       OISVL
      000000EEH   SFRSYM    DATA     WORD      PI_KP
      000000AAH   SFRSYM    DATA     WORD      TIM2__CNTR
      000000A2H   SFRSYM    DATA     WORD      TIM3__CNTR
      00000092H   SFRSYM    DATA     WORD      TIM4__CNTR
      000000ECH   SFRSYM    DATA     WORD      PI_UK
      000000DEH   SFRSYM    DATA     WORD      LPF_X
      00000098H.0 SFRSYM    DATA     BIT       RI
      00000098H.6 SFRSYM    DATA     BIT       UT_MOD0
      000000E6H   SFRSYM    DATA     WORD      LPF_Y
      00000098H.7 SFRSYM    DATA     BIT       UT_MOD1
      000000D0H.7 SFRSYM    DATA     BIT       CY
      00000098H.1 SFRSYM    DATA     BIT       TI
      000000C0H.2 SFRSYM    DATA     BIT       PTIM10
      00000084H   SFRSYM    DATA     BYTE      FLA_KEY
      000000C0H.0 SFRSYM    DATA     BIT       PTIM20
      000000C0H.3 SFRSYM    DATA     BIT       PTIM11
      00000098H   SFRSYM    DATA     BYTE      UT_CR
      000000C8H.2 SFRSYM    DATA     BIT       PTIM30
      000000C0H.1 SFRSYM    DATA     BIT       PTIM21
      00000099H   SFRSYM    DATA     BYTE      UT_DR
      000000C8H.3 SFRSYM    DATA     BIT       PTIM31
      000000D0H.2 SFRSYM    DATA     BIT       OV
      0000009AH   SFRSYM    DATA     WORD      UT_BAUD
      000000C4H   SFRSYM    DATA     WORD      MDU_DA01
      000000CCH   SFRSYM    DATA     WORD      MDU_DB01
      00000087H   SFRSYM    DATA     BYTE      PCON
LX51 LINKER/LOCATER V4.66.100.0                                                       10/12/2023  14:31:55  PAGE 80


      000000C6H   SFRSYM    DATA     WORD      MDU_DA23
      00000088H   SFRSYM    DATA     BYTE      TCON
      00000082H   SFRSYM    DATA     WORD      DPTR
      000000D8H.0 SFRSYM    DATA     BIT       PUART0
      000000D8H.1 SFRSYM    DATA     BIT       PUART1
      000000D8H.2 SFRSYM    DATA     BIT       PI2C0
      00000088H.2 SFRSYM    DATA     BIT       IF0
      000000D8H.3 SFRSYM    DATA     BIT       PI2C1
      000000AEH   SFRSYM    DATA     WORD      TIM2__ARR
      000000A1H   SFRSYM    DATA     BYTE      TIM2_CR0
      000000A6H   SFRSYM    DATA     WORD      TIM3__ARR
      0000009CH   SFRSYM    DATA     BYTE      TIM3_CR0
      000000A9H   SFRSYM    DATA     BYTE      TIM2_CR1
      00000096H   SFRSYM    DATA     WORD      TIM4__ARR
      0000009EH   SFRSYM    DATA     BYTE      TIM4_CR0
      0000009DH   SFRSYM    DATA     BYTE      TIM3_CR1
      000000F8H   SFRSYM    DATA     BYTE      DRV_OUT
      0000009FH   SFRSYM    DATA     BYTE      TIM4_CR1
      000000DBH   SFRSYM    DATA     BYTE      LVSR
      000000A8H.4 SFRSYM    DATA     BIT       ES0
      00000085H   SFRSYM    DATA     BYTE      FLA_CR
      000000C0H.4 SFRSYM    DATA     BIT       PADC0
      000000B8H   SFRSYM    DATA     BYTE      IP0
      000000C0H.5 SFRSYM    DATA     BIT       PADC1
      000000C0H   SFRSYM    DATA     BYTE      IP1
      000000C8H   SFRSYM    DATA     BYTE      IP2
      00000098H.2 SFRSYM    DATA     BIT       RB8
      000000D8H   SFRSYM    DATA     BYTE      IP3
      000000A8H.0 SFRSYM    DATA     BIT       EX0
      00000098H.3 SFRSYM    DATA     BIT       TB8
      000000A8H.2 SFRSYM    DATA     BIT       EX1
      000000D0H.0 SFRSYM    DATA     BIT       P
      000000F9H   SFRSYM    DATA     BYTE      PI_LPF_CR
      00000098H.5 SFRSYM    DATA     BIT       SM2
      000000D8H.6 SFRSYM    DATA     BIT       PDMA0
      000000D8H.7 SFRSYM    DATA     BIT       PDMA1
      000000C2H   SFRSYM    DATA     WORD      MDU_MA
      000000D0H.3 SFRSYM    DATA     BIT       RS0
      000000CAH   SFRSYM    DATA     WORD      MDU_MB
      000000D0H.4 SFRSYM    DATA     BIT       RS1
      000000C1H   SFRSYM    DATA     BYTE      MDU_CR
      000000F8H.7 SFRSYM    DATA     BIT       MOE
      000000C0H.6 SFRSYM    DATA     BIT       PCMP0
      000000C0H.7 SFRSYM    DATA     BIT       PCMP1
      000000F8H.4 SFRSYM    DATA     BIT       OISWXH
      00000098H.4 SFRSYM    DATA     BIT       REN
      000000D7H   SFRSYM    DATA     BYTE      CMP_SR
      000000F8H.5 SFRSYM    DATA     BIT       OISWXL
      000000C8H.6 SFRSYM    DATA     BIT       PTSD0
      000000D8H.4 SFRSYM    DATA     BIT       PSPI0
      000000C8H.7 SFRSYM    DATA     BIT       PTSD1
      000000B8H.6 SFRSYM    DATA     BIT       PDRV0
      000000D8H.5 SFRSYM    DATA     BIT       PSPI1
      000000B8H.7 SFRSYM    DATA     BIT       PDRV1
      000000D1H   SFRSYM    DATA     BYTE      P1_IE
      000000D3H   SFRSYM    DATA     BYTE      P2_IE
      000000D2H   SFRSYM    DATA     BYTE      P1_IF
      000000D4H   SFRSYM    DATA     BYTE      P2_IF
      000000ACH   SFRSYM    DATA     WORD      TIM2__DR
      000000C8H.4 SFRSYM    DATA     BIT       PTIM4S0
      000000FCH   SFRSYM    DATA     BYTE      P0_OE
      000000A4H   SFRSYM    DATA     WORD      TIM3__DR
      000000C8H.5 SFRSYM    DATA     BIT       PTIM4S1
      000000FDH   SFRSYM    DATA     BYTE      P1_OE
      00000094H   SFRSYM    DATA     WORD      TIM4__DR
LX51 LINKER/LOCATER V4.66.100.0                                                       10/12/2023  14:31:55  PAGE 81


      000000D0H.5 SFRSYM    DATA     BIT       F0
      000000FEH   SFRSYM    DATA     BYTE      P2_OE
      000000D0H.1 SFRSYM    DATA     BIT       F1
      000000FFH   SFRSYM    DATA     BYTE      P3_OE
      00000080H.0 SFRSYM    DATA     BIT       GP00
      000000E9H   SFRSYM    DATA     BYTE      P4_OE
      00000090H.0 SFRSYM    DATA     BIT       GP10
      00000080H.1 SFRSYM    DATA     BIT       GP01
      000000A0H.0 SFRSYM    DATA     BIT       GP20
      00000090H.1 SFRSYM    DATA     BIT       GP11
      00000080H.2 SFRSYM    DATA     BIT       GP02
      000000B0H.0 SFRSYM    DATA     BIT       GP30
      000000A0H.1 SFRSYM    DATA     BIT       GP21
      00000090H.2 SFRSYM    DATA     BIT       GP12
      00000080H.3 SFRSYM    DATA     BIT       GP03
      000000B8H.0 SFRSYM    DATA     BIT       PLVW0
      000000A8H.1 SFRSYM    DATA     BIT       TSDIE
      000000D0H   SFRSYM    DATA     BYTE      PSW
      000000E8H.0 SFRSYM    DATA     BIT       GP40
      000000B0H.1 SFRSYM    DATA     BIT       GP31
      000000A0H.2 SFRSYM    DATA     BIT       GP22
      00000090H.3 SFRSYM    DATA     BIT       GP13
      00000080H.4 SFRSYM    DATA     BIT       GP04
      000000B8H.1 SFRSYM    DATA     BIT       PLVW1
      000000A8H.3 SFRSYM    DATA     BIT       SPIIE
      00000088H.5 SFRSYM    DATA     BIT       TSDIF
      000000E8H.1 SFRSYM    DATA     BIT       GP41
      000000B0H.2 SFRSYM    DATA     BIT       GP32
      000000A0H.3 SFRSYM    DATA     BIT       GP23
      00000090H.4 SFRSYM    DATA     BIT       GP14
      00000080H.5 SFRSYM    DATA     BIT       GP05
      000000C4H   SFRSYM    DATA     BYTE      MDU_DA0
      000000E8H.2 SFRSYM    DATA     BIT       GP42
      000000B0H.3 SFRSYM    DATA     BIT       GP33
      000000A0H.4 SFRSYM    DATA     BIT       GP24
      00000090H.5 SFRSYM    DATA     BIT       GP15
      00000080H.6 SFRSYM    DATA     BIT       GP06
      000000CCH   SFRSYM    DATA     BYTE      MDU_DB0
      000000C5H   SFRSYM    DATA     BYTE      MDU_DA1
      00000088H.0 SFRSYM    DATA     BIT       IT00

      01003453H   BLOCK     CODE     ---       LVL=0
      01003453H   LINE      CODE     ---       #56
      01003453H   LINE      CODE     ---       #57
      01003453H   LINE      CODE     ---       #59
      01003463H   LINE      CODE     ---       #60
      01003464H   LINE      CODE     ---       #61
      01003476H   LINE      CODE     ---       #62
      01003477H   LINE      CODE     ---       #63
      01003489H   LINE      CODE     ---       #64
      0100348AH   LINE      CODE     ---       #65
      0100349CH   LINE      CODE     ---       #66
      0100349DH   LINE      CODE     ---       #67
      ---         BLOCKEND  ---      ---       LVL=0

      01003245H   BLOCK     CODE     ---       LVL=0
      01003245H   LINE      CODE     ---       #71
      01003245H   LINE      CODE     ---       #72
      01003245H   LINE      CODE     ---       #74
      0100324CH   LINE      CODE     ---       #77
      01003255H   LINE      CODE     ---       #78
      0100325EH   LINE      CODE     ---       #81
      0100326CH   LINE      CODE     ---       #82
      01003278H   LINE      CODE     ---       #85
      01003281H   LINE      CODE     ---       #86
LX51 LINKER/LOCATER V4.66.100.0                                                       10/12/2023  14:31:55  PAGE 82


      0100328CH   LINE      CODE     ---       #87
      01003297H   LINE      CODE     ---       #88
      010032A2H   LINE      CODE     ---       #120
      ---         BLOCKEND  ---      ---       LVL=0

      01002637H   BLOCK     CODE     ---       LVL=0
      01002637H   BLOCK     CODE     NEAR LAB  LVL=1
      02000286H   SYMBOL    XDATA    BYTE      i
      ---         BLOCKEND  ---      ---       LVL=1
      01002637H   LINE      CODE     ---       #123
      01002637H   LINE      CODE     ---       #124
      01002637H   LINE      CODE     ---       #127
      01002639H   LINE      CODE     ---       #130
      01002642H   LINE      CODE     ---       #131
      01002642H   LINE      CODE     ---       #132
      01002644H   LINE      CODE     ---       #135
      01002652H   LINE      CODE     ---       #136
      01002675H   LINE      CODE     ---       #139
      0100267DH   LINE      CODE     ---       #140
      0100267DH   LINE      CODE     ---       #141
      01002685H   LINE      CODE     ---       #143
      01002688H   LINE      CODE     ---       #145
      0100268BH   LINE      CODE     ---       #147
      01002691H   LINE      CODE     ---       #148
      01002695H   LINE      CODE     ---       #149
      01002696H   LINE      CODE     ---       #152
      01002696H   LINE      CODE     ---       #154
      0100269CH   LINE      CODE     ---       #155
      010026AAH   LINE      CODE     ---       #156
      010026AAH   LINE      CODE     ---       #157
      010026BFH   LINE      CODE     ---       #158
      010026C7H   LINE      CODE     ---       #159
      010026CFH   LINE      CODE     ---       #162
      010026DCH   LINE      CODE     ---       #164
      010026F3H   LINE      CODE     ---       #167
      01002706H   LINE      CODE     ---       #168
      01002716H   LINE      CODE     ---       #169
      01002726H   LINE      CODE     ---       #172
      0100272CH   LINE      CODE     ---       #173
      0100272CH   LINE      CODE     ---       #174
      0100273AH   LINE      CODE     ---       #176
      0100273DH   LINE      CODE     ---       #178
      01002743H   LINE      CODE     ---       #179
      01002747H   LINE      CODE     ---       #180
      01002748H   LINE      CODE     ---       #183
      01002748H   LINE      CODE     ---       #184
      0100274EH   LINE      CODE     ---       #185
      01002753H   LINE      CODE     ---       #186
      01002753H   LINE      CODE     ---       #187
      01002753H   LINE      CODE     ---       #188
      01002753H   LINE      CODE     ---       #191
      ---         BLOCKEND  ---      ---       LVL=0

      01002EA3H   BLOCK     CODE     ---       LVL=0
      01002EA3H   LINE      CODE     ---       #195
      01002EA3H   LINE      CODE     ---       #196
      01002EA3H   LINE      CODE     ---       #198
      01002EAAH   LINE      CODE     ---       #199
      01002EAAH   LINE      CODE     ---       #200
      01002EB0H   LINE      CODE     ---       #201
      01002EB0H   LINE      CODE     ---       #202
      01002EB6H   LINE      CODE     ---       #203
      01002EB6H   LINE      CODE     ---       #204
      01002EB8H   LINE      CODE     ---       #205
      01002EB8H   LINE      CODE     ---       #206
LX51 LINKER/LOCATER V4.66.100.0                                                       10/12/2023  14:31:55  PAGE 83


      01002EB8H   LINE      CODE     ---       #207
      01002EB8H   LINE      CODE     ---       #210
      01002EC0H   LINE      CODE     ---       #211
      01002EC0H   LINE      CODE     ---       #212
      01002EC3H   LINE      CODE     ---       #213
      01002EC6H   LINE      CODE     ---       #214
      01002EC6H   LINE      CODE     ---       #216
      01002EC8H   LINE      CODE     ---       #217
      01002ED1H   LINE      CODE     ---       #218
      01002ED1H   LINE      CODE     ---       #219
      01002EDFH   LINE      CODE     ---       #221
      01002EE2H   LINE      CODE     ---       #223
      01002EE8H   LINE      CODE     ---       #224
      01002EECH   LINE      CODE     ---       #225
      01002EEEH   LINE      CODE     ---       #228
      01002EEEH   LINE      CODE     ---       #229
      01002EF1H   LINE      CODE     ---       #231
      01002EF7H   LINE      CODE     ---       #232
      01002EFCH   LINE      CODE     ---       #233
      01002EFCH   LINE      CODE     ---       #234
      01002EFEH   LINE      CODE     ---       #235
      01002EFEH   LINE      CODE     ---       #236
      01002EFEH   LINE      CODE     ---       #239
      01002F05H   LINE      CODE     ---       #240
      01002F05H   LINE      CODE     ---       #241
      01002F0BH   LINE      CODE     ---       #242
      01002F0BH   LINE      CODE     ---       #243
      01002F0FH   LINE      CODE     ---       #244
      01002F12H   LINE      CODE     ---       #245
      01002F12H   LINE      CODE     ---       #246
      01002F16H   LINE      CODE     ---       #247
      01002F1AH   LINE      CODE     ---       #249
      01002F1EH   LINE      CODE     ---       #250
      01002F22H   LINE      CODE     ---       #252
      01002F25H   LINE      CODE     ---       #253
      01002F28H   LINE      CODE     ---       #254
      01002F28H   LINE      CODE     ---       #255
      01002F28H   LINE      CODE     ---       #256
      01002F28H   LINE      CODE     ---       #257
      ---         BLOCKEND  ---      ---       LVL=0

      ---         MODULE    ---      ---       USERUART
      000000D6H   PUBLIC    IDATA    ---       UartTxLine
      000000D0H   PUBLIC    IDATA    ---       UartRxLine
      000000CFH   PUBLIC    IDATA    BYTE      UartTxData
      000000CEH   PUBLIC    IDATA    BYTE      UartTxFlag
      000000CDH   PUBLIC    IDATA    BYTE      UartRxData
      000000CCH   PUBLIC    IDATA    BYTE      UartRxFlag
      0200026CH   PUBLIC    XDATA    WORD      URXGoDuty
      0200026AH   PUBLIC    XDATA    WORD      UartRxIdleX1ms
      000000CBH   PUBLIC    IDATA    BYTE      UartNoRxErr
      02000268H   PUBLIC    XDATA    WORD      URXCmdPwr
      000000CAH   PUBLIC    IDATA    BYTE      UartErr
      02000264H   PUBLIC    XDATA    DWORD     URXCmdRpm
      02000260H   PUBLIC    XDATA    DWORD     URXCmdSpd
      000000C9H   PUBLIC    IDATA    BYTE      UartHeadErr
      0200025FH   PUBLIC    XDATA    BYTE      URXCmdVal
      000000C8H   PUBLIC    IDATA    BYTE      UTXSum
      000000C7H   PUBLIC    IDATA    BYTE      UartFrameErr
      000000C6H   PUBLIC    IDATA    BYTE      URXSum
      000000C5H   PUBLIC    IDATA    BYTE      UTXCnt
      000000C4H   PUBLIC    IDATA    BYTE      URXCnt
      0200025DH   PUBLIC    XDATA    WORD      UartRxInvalidX1ms
      000000C3H   PUBLIC    IDATA    BYTE      UartTimeOutErr
      000000C2H   PUBLIC    IDATA    BYTE      UartTxCnt
LX51 LINKER/LOCATER V4.66.100.0                                                       10/12/2023  14:31:55  PAGE 84


      000000C1H   PUBLIC    IDATA    BYTE      UartRxCnt
      0200025CH   PUBLIC    XDATA    BYTE      UTXMark
      0200025BH   PUBLIC    XDATA    BYTE      URXMark
      000000C0H   PUBLIC    IDATA    BYTE      UartTxTrig
      000000BFH   PUBLIC    IDATA    BYTE      UartSumErr
      000000B0H.4 SFRSYM    DATA     BIT       GP34
      000000A0H.5 SFRSYM    DATA     BIT       GP25
      00000090H.6 SFRSYM    DATA     BIT       GP16
      00000080H.7 SFRSYM    DATA     BIT       GP07
      000000CDH   SFRSYM    DATA     BYTE      MDU_DB1
      000000C6H   SFRSYM    DATA     BYTE      MDU_DA2
      00000088H.1 SFRSYM    DATA     BIT       IT01
      00000088H.3 SFRSYM    DATA     BIT       IT10
      000000B0H.5 SFRSYM    DATA     BIT       GP35
      000000A0H.6 SFRSYM    DATA     BIT       GP26
      00000090H.7 SFRSYM    DATA     BIT       GP17
      00000080H   SFRSYM    DATA     BYTE      P0
      000000F6H   SFRSYM    DATA     WORD      PI_UKMIN
      000000C7H   SFRSYM    DATA     BYTE      MDU_DA3
      00000088H.4 SFRSYM    DATA     BIT       IT11
      000000C9H   SFRSYM    DATA     BYTE      RST_SR
      000000D9H   SFRSYM    DATA     BYTE      EVT_FILT
      000000B0H.6 SFRSYM    DATA     BIT       GP36
      000000A0H.7 SFRSYM    DATA     BIT       GP27
      00000090H   SFRSYM    DATA     BYTE      P1
      000000B0H.7 SFRSYM    DATA     BIT       GP37
      000000A0H   SFRSYM    DATA     BYTE      P2
      000000F4H   SFRSYM    DATA     WORD      PI_UKMAX
      000000B0H   SFRSYM    DATA     BYTE      P3
      000000E8H   SFRSYM    DATA     BYTE      P4
      000000D0H.6 SFRSYM    DATA     BIT       AC
      000000A8H.7 SFRSYM    DATA     BIT       EA
      000000D5H   SFRSYM    DATA     BYTE      CMP_CR0
      000000D6H   SFRSYM    DATA     BYTE      CMP_CR1
      000000DAH   SFRSYM    DATA     BYTE      CMP_CR2
      000000B8H.2 SFRSYM    DATA     BIT       PX00
      000000DCH   SFRSYM    DATA     BYTE      CMP_CR3
      000000F8H.0 SFRSYM    DATA     BIT       OISUH
      000000EAH   SFRSYM    DATA     WORD      PI_EK
      000000B8H.3 SFRSYM    DATA     BIT       PX01
      000000B8H.4 SFRSYM    DATA     BIT       PX10
      000000F8H.2 SFRSYM    DATA     BIT       OISVH
      000000B8H.5 SFRSYM    DATA     BIT       PX11
      000000F8H.1 SFRSYM    DATA     BIT       OISUL
      000000DDH   SFRSYM    DATA     BYTE      LPF_K
      000000F2H   SFRSYM    DATA     WORD      PI_KI
      000000A8H   SFRSYM    DATA     BYTE      IE
      000000F8H.3 SFRSYM    DATA     BIT       OISVL
      000000EEH   SFRSYM    DATA     WORD      PI_KP
      000000AAH   SFRSYM    DATA     WORD      TIM2__CNTR
      000000A2H   SFRSYM    DATA     WORD      TIM3__CNTR
      00000092H   SFRSYM    DATA     WORD      TIM4__CNTR
      000000ECH   SFRSYM    DATA     WORD      PI_UK
      000000DEH   SFRSYM    DATA     WORD      LPF_X
      00000098H.0 SFRSYM    DATA     BIT       RI
      00000098H.6 SFRSYM    DATA     BIT       UT_MOD0
      000000E6H   SFRSYM    DATA     WORD      LPF_Y
      00000098H.7 SFRSYM    DATA     BIT       UT_MOD1
      000000D0H.7 SFRSYM    DATA     BIT       CY
      00000098H.1 SFRSYM    DATA     BIT       TI
      000000C0H.2 SFRSYM    DATA     BIT       PTIM10
      00000084H   SFRSYM    DATA     BYTE      FLA_KEY
      000000C0H.0 SFRSYM    DATA     BIT       PTIM20
      000000C0H.3 SFRSYM    DATA     BIT       PTIM11
      00000098H   SFRSYM    DATA     BYTE      UT_CR
LX51 LINKER/LOCATER V4.66.100.0                                                       10/12/2023  14:31:55  PAGE 85


      000000C8H.2 SFRSYM    DATA     BIT       PTIM30
      000000C0H.1 SFRSYM    DATA     BIT       PTIM21
      00000099H   SFRSYM    DATA     BYTE      UT_DR
      000000C8H.3 SFRSYM    DATA     BIT       PTIM31
      000000D0H.2 SFRSYM    DATA     BIT       OV
      0000009AH   SFRSYM    DATA     WORD      UT_BAUD
      000000C4H   SFRSYM    DATA     WORD      MDU_DA01
      000000CCH   SFRSYM    DATA     WORD      MDU_DB01
      00000087H   SFRSYM    DATA     BYTE      PCON
      000000C6H   SFRSYM    DATA     WORD      MDU_DA23
      00000088H   SFRSYM    DATA     BYTE      TCON
      00000082H   SFRSYM    DATA     WORD      DPTR
      000000D8H.0 SFRSYM    DATA     BIT       PUART0
      000000D8H.1 SFRSYM    DATA     BIT       PUART1
      000000D8H.2 SFRSYM    DATA     BIT       PI2C0
      00000088H.2 SFRSYM    DATA     BIT       IF0
      000000D8H.3 SFRSYM    DATA     BIT       PI2C1
      000000AEH   SFRSYM    DATA     WORD      TIM2__ARR
      000000A1H   SFRSYM    DATA     BYTE      TIM2_CR0
      000000A6H   SFRSYM    DATA     WORD      TIM3__ARR
      0000009CH   SFRSYM    DATA     BYTE      TIM3_CR0
      000000A9H   SFRSYM    DATA     BYTE      TIM2_CR1
      00000096H   SFRSYM    DATA     WORD      TIM4__ARR
      0000009EH   SFRSYM    DATA     BYTE      TIM4_CR0
      0000009DH   SFRSYM    DATA     BYTE      TIM3_CR1
      000000F8H   SFRSYM    DATA     BYTE      DRV_OUT
      0000009FH   SFRSYM    DATA     BYTE      TIM4_CR1
      000000DBH   SFRSYM    DATA     BYTE      LVSR
      000000A8H.4 SFRSYM    DATA     BIT       ES0
      00000085H   SFRSYM    DATA     BYTE      FLA_CR
      000000C0H.4 SFRSYM    DATA     BIT       PADC0
      000000B8H   SFRSYM    DATA     BYTE      IP0
      000000C0H.5 SFRSYM    DATA     BIT       PADC1
      000000C0H   SFRSYM    DATA     BYTE      IP1
      000000C8H   SFRSYM    DATA     BYTE      IP2
      00000098H.2 SFRSYM    DATA     BIT       RB8
      000000D8H   SFRSYM    DATA     BYTE      IP3
      000000A8H.0 SFRSYM    DATA     BIT       EX0
      00000098H.3 SFRSYM    DATA     BIT       TB8
      000000A8H.2 SFRSYM    DATA     BIT       EX1
      000000D0H.0 SFRSYM    DATA     BIT       P
      000000F9H   SFRSYM    DATA     BYTE      PI_LPF_CR
      00000098H.5 SFRSYM    DATA     BIT       SM2
      000000D8H.6 SFRSYM    DATA     BIT       PDMA0
      000000D8H.7 SFRSYM    DATA     BIT       PDMA1
      000000C2H   SFRSYM    DATA     WORD      MDU_MA
      000000D0H.3 SFRSYM    DATA     BIT       RS0
      000000CAH   SFRSYM    DATA     WORD      MDU_MB
      000000D0H.4 SFRSYM    DATA     BIT       RS1
      000000C1H   SFRSYM    DATA     BYTE      MDU_CR
      000000F8H.7 SFRSYM    DATA     BIT       MOE
      000000C0H.6 SFRSYM    DATA     BIT       PCMP0
      000000C0H.7 SFRSYM    DATA     BIT       PCMP1
      000000F8H.4 SFRSYM    DATA     BIT       OISWXH
      00000098H.4 SFRSYM    DATA     BIT       REN
      000000D7H   SFRSYM    DATA     BYTE      CMP_SR
      000000F8H.5 SFRSYM    DATA     BIT       OISWXL
      000000C8H.6 SFRSYM    DATA     BIT       PTSD0
      000000D8H.4 SFRSYM    DATA     BIT       PSPI0
      000000C8H.7 SFRSYM    DATA     BIT       PTSD1
      000000B8H.6 SFRSYM    DATA     BIT       PDRV0
      000000D8H.5 SFRSYM    DATA     BIT       PSPI1
      000000B8H.7 SFRSYM    DATA     BIT       PDRV1
      000000D1H   SFRSYM    DATA     BYTE      P1_IE
      000000D3H   SFRSYM    DATA     BYTE      P2_IE
LX51 LINKER/LOCATER V4.66.100.0                                                       10/12/2023  14:31:55  PAGE 86


      000000D2H   SFRSYM    DATA     BYTE      P1_IF
      000000D4H   SFRSYM    DATA     BYTE      P2_IF
      000000ACH   SFRSYM    DATA     WORD      TIM2__DR
      000000C8H.4 SFRSYM    DATA     BIT       PTIM4S0
      000000FCH   SFRSYM    DATA     BYTE      P0_OE
      000000A4H   SFRSYM    DATA     WORD      TIM3__DR
      000000C8H.5 SFRSYM    DATA     BIT       PTIM4S1
      000000FDH   SFRSYM    DATA     BYTE      P1_OE
      00000094H   SFRSYM    DATA     WORD      TIM4__DR
      000000D0H.5 SFRSYM    DATA     BIT       F0
      000000FEH   SFRSYM    DATA     BYTE      P2_OE
      000000D0H.1 SFRSYM    DATA     BIT       F1
      000000FFH   SFRSYM    DATA     BYTE      P3_OE
      00000080H.0 SFRSYM    DATA     BIT       GP00
      000000E9H   SFRSYM    DATA     BYTE      P4_OE
      00000090H.0 SFRSYM    DATA     BIT       GP10
      00000080H.1 SFRSYM    DATA     BIT       GP01
      000000A0H.0 SFRSYM    DATA     BIT       GP20
      00000090H.1 SFRSYM    DATA     BIT       GP11
      00000080H.2 SFRSYM    DATA     BIT       GP02
      000000B0H.0 SFRSYM    DATA     BIT       GP30
      000000A0H.1 SFRSYM    DATA     BIT       GP21
      00000090H.2 SFRSYM    DATA     BIT       GP12
      00000080H.3 SFRSYM    DATA     BIT       GP03
      000000B8H.0 SFRSYM    DATA     BIT       PLVW0
      000000A8H.1 SFRSYM    DATA     BIT       TSDIE
      000000D0H   SFRSYM    DATA     BYTE      PSW
      000000E8H.0 SFRSYM    DATA     BIT       GP40
      000000B0H.1 SFRSYM    DATA     BIT       GP31
      000000A0H.2 SFRSYM    DATA     BIT       GP22
      00000090H.3 SFRSYM    DATA     BIT       GP13
      00000080H.4 SFRSYM    DATA     BIT       GP04
      000000B8H.1 SFRSYM    DATA     BIT       PLVW1
      000000A8H.3 SFRSYM    DATA     BIT       SPIIE
      00000088H.5 SFRSYM    DATA     BIT       TSDIF
      000000E8H.1 SFRSYM    DATA     BIT       GP41
      000000B0H.2 SFRSYM    DATA     BIT       GP32
      000000A0H.3 SFRSYM    DATA     BIT       GP23
      00000090H.4 SFRSYM    DATA     BIT       GP14
      00000080H.5 SFRSYM    DATA     BIT       GP05
      000000C4H   SFRSYM    DATA     BYTE      MDU_DA0
      000000E8H.2 SFRSYM    DATA     BIT       GP42
      000000B0H.3 SFRSYM    DATA     BIT       GP33
      000000A0H.4 SFRSYM    DATA     BIT       GP24
      00000090H.5 SFRSYM    DATA     BIT       GP15
      00000080H.6 SFRSYM    DATA     BIT       GP06
      000000CCH   SFRSYM    DATA     BYTE      MDU_DB0
      000000C5H   SFRSYM    DATA     BYTE      MDU_DA1
      00000088H.0 SFRSYM    DATA     BIT       IT00

      ---         MODULE    ---      ---       FOCCONTROL
      020002C5H   PUBLIC    XDATA    BYTE      mcState
      020002C3H   PUBLIC    XDATA    WORD      TimeCnt
      020002C2H   PUBLIC    XDATA    ---       McStaSet
      01001D0EH   PUBLIC    CODE     ---       MC_Control
      000000B0H.4 SFRSYM    DATA     BIT       GP34
      000000A0H.5 SFRSYM    DATA     BIT       GP25
      00000090H.6 SFRSYM    DATA     BIT       GP16
      00000080H.7 SFRSYM    DATA     BIT       GP07
      000000CDH   SFRSYM    DATA     BYTE      MDU_DB1
      000000C6H   SFRSYM    DATA     BYTE      MDU_DA2
      00000088H.1 SFRSYM    DATA     BIT       IT01
      00000088H.3 SFRSYM    DATA     BIT       IT10
      000000B0H.5 SFRSYM    DATA     BIT       GP35
      000000A0H.6 SFRSYM    DATA     BIT       GP26
LX51 LINKER/LOCATER V4.66.100.0                                                       10/12/2023  14:31:55  PAGE 87


      00000090H.7 SFRSYM    DATA     BIT       GP17
      00000080H   SFRSYM    DATA     BYTE      P0
      000000F6H   SFRSYM    DATA     WORD      PI_UKMIN
      000000C7H   SFRSYM    DATA     BYTE      MDU_DA3
      00000088H.4 SFRSYM    DATA     BIT       IT11
      000000C9H   SFRSYM    DATA     BYTE      RST_SR
      000000D9H   SFRSYM    DATA     BYTE      EVT_FILT
      000000B0H.6 SFRSYM    DATA     BIT       GP36
      000000A0H.7 SFRSYM    DATA     BIT       GP27
      00000090H   SFRSYM    DATA     BYTE      P1
      000000B0H.7 SFRSYM    DATA     BIT       GP37
      000000A0H   SFRSYM    DATA     BYTE      P2
      000000F4H   SFRSYM    DATA     WORD      PI_UKMAX
      000000B0H   SFRSYM    DATA     BYTE      P3
      000000E8H   SFRSYM    DATA     BYTE      P4
      000000D0H.6 SFRSYM    DATA     BIT       AC
      000000A8H.7 SFRSYM    DATA     BIT       EA
      000000D5H   SFRSYM    DATA     BYTE      CMP_CR0
      000000D6H   SFRSYM    DATA     BYTE      CMP_CR1
      000000DAH   SFRSYM    DATA     BYTE      CMP_CR2
      000000B8H.2 SFRSYM    DATA     BIT       PX00
      000000DCH   SFRSYM    DATA     BYTE      CMP_CR3
      000000F8H.0 SFRSYM    DATA     BIT       OISUH
      000000EAH   SFRSYM    DATA     WORD      PI_EK
      000000B8H.3 SFRSYM    DATA     BIT       PX01
      000000B8H.4 SFRSYM    DATA     BIT       PX10
      000000F8H.2 SFRSYM    DATA     BIT       OISVH
      000000B8H.5 SFRSYM    DATA     BIT       PX11
      000000F8H.1 SFRSYM    DATA     BIT       OISUL
      000000DDH   SFRSYM    DATA     BYTE      LPF_K
      000000F2H   SFRSYM    DATA     WORD      PI_KI
      000000A8H   SFRSYM    DATA     BYTE      IE
      000000F8H.3 SFRSYM    DATA     BIT       OISVL
      000000EEH   SFRSYM    DATA     WORD      PI_KP
      000000AAH   SFRSYM    DATA     WORD      TIM2__CNTR
      000000A2H   SFRSYM    DATA     WORD      TIM3__CNTR
      00000092H   SFRSYM    DATA     WORD      TIM4__CNTR
      000000ECH   SFRSYM    DATA     WORD      PI_UK
      000000DEH   SFRSYM    DATA     WORD      LPF_X
      00000098H.0 SFRSYM    DATA     BIT       RI
      00000098H.6 SFRSYM    DATA     BIT       UT_MOD0
      000000E6H   SFRSYM    DATA     WORD      LPF_Y
      00000098H.7 SFRSYM    DATA     BIT       UT_MOD1
      000000D0H.7 SFRSYM    DATA     BIT       CY
      00000098H.1 SFRSYM    DATA     BIT       TI
      000000C0H.2 SFRSYM    DATA     BIT       PTIM10
      00000084H   SFRSYM    DATA     BYTE      FLA_KEY
      000000C0H.0 SFRSYM    DATA     BIT       PTIM20
      000000C0H.3 SFRSYM    DATA     BIT       PTIM11
      00000098H   SFRSYM    DATA     BYTE      UT_CR
      000000C8H.2 SFRSYM    DATA     BIT       PTIM30
      000000C0H.1 SFRSYM    DATA     BIT       PTIM21
      00000099H   SFRSYM    DATA     BYTE      UT_DR
      000000C8H.3 SFRSYM    DATA     BIT       PTIM31
      000000D0H.2 SFRSYM    DATA     BIT       OV
      0000009AH   SFRSYM    DATA     WORD      UT_BAUD
      000000C4H   SFRSYM    DATA     WORD      MDU_DA01
      000000CCH   SFRSYM    DATA     WORD      MDU_DB01
      00000087H   SFRSYM    DATA     BYTE      PCON
      000000C6H   SFRSYM    DATA     WORD      MDU_DA23
      00000088H   SFRSYM    DATA     BYTE      TCON
      00000082H   SFRSYM    DATA     WORD      DPTR
      000000D8H.0 SFRSYM    DATA     BIT       PUART0
      000000D8H.1 SFRSYM    DATA     BIT       PUART1
      000000D8H.2 SFRSYM    DATA     BIT       PI2C0
LX51 LINKER/LOCATER V4.66.100.0                                                       10/12/2023  14:31:55  PAGE 88


      00000088H.2 SFRSYM    DATA     BIT       IF0
      000000D8H.3 SFRSYM    DATA     BIT       PI2C1
      000000AEH   SFRSYM    DATA     WORD      TIM2__ARR
      000000A1H   SFRSYM    DATA     BYTE      TIM2_CR0
      000000A6H   SFRSYM    DATA     WORD      TIM3__ARR
      0000009CH   SFRSYM    DATA     BYTE      TIM3_CR0
      000000A9H   SFRSYM    DATA     BYTE      TIM2_CR1
      00000096H   SFRSYM    DATA     WORD      TIM4__ARR
      0000009EH   SFRSYM    DATA     BYTE      TIM4_CR0
      0000009DH   SFRSYM    DATA     BYTE      TIM3_CR1
      000000F8H   SFRSYM    DATA     BYTE      DRV_OUT
      0000009FH   SFRSYM    DATA     BYTE      TIM4_CR1
      000000DBH   SFRSYM    DATA     BYTE      LVSR
      000000A8H.4 SFRSYM    DATA     BIT       ES0
      00000085H   SFRSYM    DATA     BYTE      FLA_CR
      000000C0H.4 SFRSYM    DATA     BIT       PADC0
      000000B8H   SFRSYM    DATA     BYTE      IP0
      000000C0H.5 SFRSYM    DATA     BIT       PADC1
      000000C0H   SFRSYM    DATA     BYTE      IP1
      000000C8H   SFRSYM    DATA     BYTE      IP2
      00000098H.2 SFRSYM    DATA     BIT       RB8
      000000D8H   SFRSYM    DATA     BYTE      IP3
      000000A8H.0 SFRSYM    DATA     BIT       EX0
      00000098H.3 SFRSYM    DATA     BIT       TB8
      000000A8H.2 SFRSYM    DATA     BIT       EX1
      000000D0H.0 SFRSYM    DATA     BIT       P
      000000F9H   SFRSYM    DATA     BYTE      PI_LPF_CR
      00000098H.5 SFRSYM    DATA     BIT       SM2
      000000D8H.6 SFRSYM    DATA     BIT       PDMA0
      000000D8H.7 SFRSYM    DATA     BIT       PDMA1
      000000C2H   SFRSYM    DATA     WORD      MDU_MA
      000000D0H.3 SFRSYM    DATA     BIT       RS0
      000000CAH   SFRSYM    DATA     WORD      MDU_MB
      000000D0H.4 SFRSYM    DATA     BIT       RS1
      000000C1H   SFRSYM    DATA     BYTE      MDU_CR
      000000F8H.7 SFRSYM    DATA     BIT       MOE
      000000C0H.6 SFRSYM    DATA     BIT       PCMP0
      000000C0H.7 SFRSYM    DATA     BIT       PCMP1
      000000F8H.4 SFRSYM    DATA     BIT       OISWXH
      00000098H.4 SFRSYM    DATA     BIT       REN
      000000D7H   SFRSYM    DATA     BYTE      CMP_SR
      000000F8H.5 SFRSYM    DATA     BIT       OISWXL
      000000C8H.6 SFRSYM    DATA     BIT       PTSD0
      000000D8H.4 SFRSYM    DATA     BIT       PSPI0
      000000C8H.7 SFRSYM    DATA     BIT       PTSD1
      000000B8H.6 SFRSYM    DATA     BIT       PDRV0
      000000D8H.5 SFRSYM    DATA     BIT       PSPI1
      000000B8H.7 SFRSYM    DATA     BIT       PDRV1
      000000D1H   SFRSYM    DATA     BYTE      P1_IE
      000000D3H   SFRSYM    DATA     BYTE      P2_IE
      000000D2H   SFRSYM    DATA     BYTE      P1_IF
      000000D4H   SFRSYM    DATA     BYTE      P2_IF
      000000ACH   SFRSYM    DATA     WORD      TIM2__DR
      000000C8H.4 SFRSYM    DATA     BIT       PTIM4S0
      000000FCH   SFRSYM    DATA     BYTE      P0_OE
      000000A4H   SFRSYM    DATA     WORD      TIM3__DR
      000000C8H.5 SFRSYM    DATA     BIT       PTIM4S1
      000000FDH   SFRSYM    DATA     BYTE      P1_OE
      00000094H   SFRSYM    DATA     WORD      TIM4__DR
      000000D0H.5 SFRSYM    DATA     BIT       F0
      000000FEH   SFRSYM    DATA     BYTE      P2_OE
      000000D0H.1 SFRSYM    DATA     BIT       F1
      000000FFH   SFRSYM    DATA     BYTE      P3_OE
      00000080H.0 SFRSYM    DATA     BIT       GP00
      000000E9H   SFRSYM    DATA     BYTE      P4_OE
LX51 LINKER/LOCATER V4.66.100.0                                                       10/12/2023  14:31:55  PAGE 89


      00000090H.0 SFRSYM    DATA     BIT       GP10
      00000080H.1 SFRSYM    DATA     BIT       GP01
      000000A0H.0 SFRSYM    DATA     BIT       GP20
      00000090H.1 SFRSYM    DATA     BIT       GP11
      00000080H.2 SFRSYM    DATA     BIT       GP02
      000000B0H.0 SFRSYM    DATA     BIT       GP30
      000000A0H.1 SFRSYM    DATA     BIT       GP21
      00000090H.2 SFRSYM    DATA     BIT       GP12
      00000080H.3 SFRSYM    DATA     BIT       GP03
      000000B8H.0 SFRSYM    DATA     BIT       PLVW0
      000000A8H.1 SFRSYM    DATA     BIT       TSDIE
      000000D0H   SFRSYM    DATA     BYTE      PSW
      000000E8H.0 SFRSYM    DATA     BIT       GP40
      000000B0H.1 SFRSYM    DATA     BIT       GP31
      000000A0H.2 SFRSYM    DATA     BIT       GP22
      00000090H.3 SFRSYM    DATA     BIT       GP13
      00000080H.4 SFRSYM    DATA     BIT       GP04
      000000B8H.1 SFRSYM    DATA     BIT       PLVW1
      000000A8H.3 SFRSYM    DATA     BIT       SPIIE
      00000088H.5 SFRSYM    DATA     BIT       TSDIF
      000000E8H.1 SFRSYM    DATA     BIT       GP41
      000000B0H.2 SFRSYM    DATA     BIT       GP32
      000000A0H.3 SFRSYM    DATA     BIT       GP23
      00000090H.4 SFRSYM    DATA     BIT       GP14
      00000080H.5 SFRSYM    DATA     BIT       GP05
      000000C4H   SFRSYM    DATA     BYTE      MDU_DA0
      000000E8H.2 SFRSYM    DATA     BIT       GP42
      000000B0H.3 SFRSYM    DATA     BIT       GP33
      000000A0H.4 SFRSYM    DATA     BIT       GP24
      00000090H.5 SFRSYM    DATA     BIT       GP15
      00000080H.6 SFRSYM    DATA     BIT       GP06
      000000CCH   SFRSYM    DATA     BYTE      MDU_DB0
      000000C5H   SFRSYM    DATA     BYTE      MDU_DA1
      00000088H.0 SFRSYM    DATA     BIT       IT00

      01001D0EH   BLOCK     CODE     ---       LVL=0
      01001D0EH   LINE      CODE     ---       #28
      01001D0EH   LINE      CODE     ---       #29
      01001D0EH   LINE      CODE     ---       #30
      01001D45H   LINE      CODE     ---       #31
      01001D45H   LINE      CODE     ---       #32
      01001D45H   LINE      CODE     ---       #33
      01001D48H   LINE      CODE     ---       #34
      01001D6BH   LINE      CODE     ---       #35
      01001D6BH   LINE      CODE     ---       #36
      01001D70H   LINE      CODE     ---       #37
      01001D77H   LINE      CODE     ---       #38
      01001D7BH   LINE      CODE     ---       #39
      01001D7FH   LINE      CODE     ---       #40
      01001D7FH   LINE      CODE     ---       #41
      01001D80H   LINE      CODE     ---       #43
      01001D80H   LINE      CODE     ---       #44
      01001D83H   LINE      CODE     ---       #45
      01001D89H   LINE      CODE     ---       #46
      01001D92H   LINE      CODE     ---       #47
      01001D93H   LINE      CODE     ---       #49
      01001D93H   LINE      CODE     ---       #50
      01001D96H   LINE      CODE     ---       #52
      01001DA3H   LINE      CODE     ---       #53
      01001DA3H   LINE      CODE     ---       #54
      01001DA5H   LINE      CODE     ---       #55
      01001DABH   LINE      CODE     ---       #56
      01001DB2H   LINE      CODE     ---       #57
      01001DB2H   LINE      CODE     ---       #59
      01001DB3H   LINE      CODE     ---       #61
LX51 LINKER/LOCATER V4.66.100.0                                                       10/12/2023  14:31:55  PAGE 90


      01001DB3H   LINE      CODE     ---       #63
      01001DB9H   LINE      CODE     ---       #64
      01001DC0H   LINE      CODE     ---       #65
      01001DC8H   LINE      CODE     ---       #71
      01001DC9H   LINE      CODE     ---       #73
      01001DC9H   LINE      CODE     ---       #75
      01001DD0H   LINE      CODE     ---       #76
      01001DD6H   LINE      CODE     ---       #77
      01001DDFH   LINE      CODE     ---       #89
      01001DE0H   LINE      CODE     ---       #91
      01001DE0H   LINE      CODE     ---       #92
      01001DE3H   LINE      CODE     ---       #98
      01001DF0H   LINE      CODE     ---       #99
      01001DF0H   LINE      CODE     ---       #100
      01001DF6H   LINE      CODE     ---       #101
      01001DF6H   LINE      CODE     ---       #103
      01001DF7H   LINE      CODE     ---       #105
      01001DF7H   LINE      CODE     ---       #106
      01001DFAH   LINE      CODE     ---       #107
      01001DFBH   LINE      CODE     ---       #109
      01001DFBH   LINE      CODE     ---       #113
      01001DFBH   LINE      CODE     ---       #115
      01001DFBH   LINE      CODE     ---       #116
      01001E04H   LINE      CODE     ---       #117
      01001E04H   LINE      CODE     ---       #118
      01001E0AH   LINE      CODE     ---       #119
      01001E13H   LINE      CODE     ---       #120
      01001E1AH   LINE      CODE     ---       #122
      01001E1CH   LINE      CODE     ---       #123
      01001E23H   LINE      CODE     ---       #124
      01001E28H   LINE      CODE     ---       #125
      01001E28H   LINE      CODE     ---       #126
      01001E29H   LINE      CODE     ---       #128
      01001E29H   LINE      CODE     ---       #138
      01001E29H   LINE      CODE     ---       #139
      01001E33H   LINE      CODE     ---       #140
      01001E33H   LINE      CODE     ---       #141
      01001E35H   LINE      CODE     ---       #142
      01001E39H   LINE      CODE     ---       #143
      01001E40H   LINE      CODE     ---       #144
      01001E4FH   LINE      CODE     ---       #145
      01001E65H   LINE      CODE     ---       #146
      01001E7BH   LINE      CODE     ---       #147
      01001E82H   LINE      CODE     ---       #148
      01001E84H   LINE      CODE     ---       #149
      01001E8AH   LINE      CODE     ---       #150
      01001E94H   LINE      CODE     ---       #151
      01001E94H   LINE      CODE     ---       #152
      01001E94H   LINE      CODE     ---       #154
      01001E95H   LINE      CODE     ---       #156
      01001E95H   LINE      CODE     ---       #157
      01001E9FH   LINE      CODE     ---       #158
      01001E9FH   LINE      CODE     ---       #159
      01001EA1H   LINE      CODE     ---       #160
      01001EA8H   LINE      CODE     ---       #161
      01001EADH   LINE      CODE     ---       #162
      01001EADH   LINE      CODE     ---       #163
      01001EADH   LINE      CODE     ---       #165
      01001EADH   LINE      CODE     ---       #166
      01001EADH   LINE      CODE     ---       #167
      01001EADH   LINE      CODE     ---       #168
      ---         BLOCKEND  ---      ---       LVL=0

      ---         MODULE    ---      ---       FOCCONTROLFUNCTION
      02000246H   PUBLIC    XDATA    ---       mcCurOffset
LX51 LINKER/LOCATER V4.66.100.0                                                       10/12/2023  14:31:55  PAGE 91


      0100389BH   PUBLIC    CODE     ---       Motor_Init
      0100361EH   PUBLIC    CODE     ---       Motor_Ready
      01002935H   PUBLIC    CODE     ---       GetCurrentOffset
      0100317CH   PUBLIC    CODE     ---       VariablesPreInit
      01002754H   PUBLIC    CODE     ---       MotorcontrolInit
      01002BABH   PUBLIC    CODE     ---       Motor_Open
      01002F29H   PUBLIC    CODE     ---       Motor_Align
      0100284FH   PUBLIC    CODE     ---       Motor_Charge
      010022C1H   PUBLIC    CODE     ---       FOC_Init
      000000B0H.4 SFRSYM    DATA     BIT       GP34
      000000A0H.5 SFRSYM    DATA     BIT       GP25
      00000090H.6 SFRSYM    DATA     BIT       GP16
      00000080H.7 SFRSYM    DATA     BIT       GP07
      000000CDH   SFRSYM    DATA     BYTE      MDU_DB1
      000000C6H   SFRSYM    DATA     BYTE      MDU_DA2
      00000088H.1 SFRSYM    DATA     BIT       IT01
      00000088H.3 SFRSYM    DATA     BIT       IT10
      000000B0H.5 SFRSYM    DATA     BIT       GP35
      000000A0H.6 SFRSYM    DATA     BIT       GP26
      00000090H.7 SFRSYM    DATA     BIT       GP17
      00000080H   SFRSYM    DATA     BYTE      P0
      000000F6H   SFRSYM    DATA     WORD      PI_UKMIN
      000000C7H   SFRSYM    DATA     BYTE      MDU_DA3
      00000088H.4 SFRSYM    DATA     BIT       IT11
      000000C9H   SFRSYM    DATA     BYTE      RST_SR
      000000D9H   SFRSYM    DATA     BYTE      EVT_FILT
      000000B0H.6 SFRSYM    DATA     BIT       GP36
      000000A0H.7 SFRSYM    DATA     BIT       GP27
      00000090H   SFRSYM    DATA     BYTE      P1
      000000B0H.7 SFRSYM    DATA     BIT       GP37
      000000A0H   SFRSYM    DATA     BYTE      P2
      000000F4H   SFRSYM    DATA     WORD      PI_UKMAX
      000000B0H   SFRSYM    DATA     BYTE      P3
      000000E8H   SFRSYM    DATA     BYTE      P4
      000000D0H.6 SFRSYM    DATA     BIT       AC
      000000A8H.7 SFRSYM    DATA     BIT       EA
      000000D5H   SFRSYM    DATA     BYTE      CMP_CR0
      000000D6H   SFRSYM    DATA     BYTE      CMP_CR1
      000000DAH   SFRSYM    DATA     BYTE      CMP_CR2
      000000B8H.2 SFRSYM    DATA     BIT       PX00
      000000DCH   SFRSYM    DATA     BYTE      CMP_CR3
      000000F8H.0 SFRSYM    DATA     BIT       OISUH
      000000EAH   SFRSYM    DATA     WORD      PI_EK
      000000B8H.3 SFRSYM    DATA     BIT       PX01
      000000B8H.4 SFRSYM    DATA     BIT       PX10
      000000F8H.2 SFRSYM    DATA     BIT       OISVH
      000000B8H.5 SFRSYM    DATA     BIT       PX11
      000000F8H.1 SFRSYM    DATA     BIT       OISUL
      000000DDH   SFRSYM    DATA     BYTE      LPF_K
      000000F2H   SFRSYM    DATA     WORD      PI_KI
      000000A8H   SFRSYM    DATA     BYTE      IE
      000000F8H.3 SFRSYM    DATA     BIT       OISVL
      000000EEH   SFRSYM    DATA     WORD      PI_KP
      000000AAH   SFRSYM    DATA     WORD      TIM2__CNTR
      000000A2H   SFRSYM    DATA     WORD      TIM3__CNTR
      00000092H   SFRSYM    DATA     WORD      TIM4__CNTR
      000000ECH   SFRSYM    DATA     WORD      PI_UK
      000000DEH   SFRSYM    DATA     WORD      LPF_X
      00000098H.0 SFRSYM    DATA     BIT       RI
      00000098H.6 SFRSYM    DATA     BIT       UT_MOD0
      000000E6H   SFRSYM    DATA     WORD      LPF_Y
      00000098H.7 SFRSYM    DATA     BIT       UT_MOD1
      000000D0H.7 SFRSYM    DATA     BIT       CY
      00000098H.1 SFRSYM    DATA     BIT       TI
      000000C0H.2 SFRSYM    DATA     BIT       PTIM10
LX51 LINKER/LOCATER V4.66.100.0                                                       10/12/2023  14:31:55  PAGE 92


      00000084H   SFRSYM    DATA     BYTE      FLA_KEY
      000000C0H.0 SFRSYM    DATA     BIT       PTIM20
      000000C0H.3 SFRSYM    DATA     BIT       PTIM11
      00000098H   SFRSYM    DATA     BYTE      UT_CR
      000000C8H.2 SFRSYM    DATA     BIT       PTIM30
      000000C0H.1 SFRSYM    DATA     BIT       PTIM21
      00000099H   SFRSYM    DATA     BYTE      UT_DR
      000000C8H.3 SFRSYM    DATA     BIT       PTIM31
      000000D0H.2 SFRSYM    DATA     BIT       OV
      0000009AH   SFRSYM    DATA     WORD      UT_BAUD
      000000C4H   SFRSYM    DATA     WORD      MDU_DA01
      000000CCH   SFRSYM    DATA     WORD      MDU_DB01
      00000087H   SFRSYM    DATA     BYTE      PCON
      000000C6H   SFRSYM    DATA     WORD      MDU_DA23
      00000088H   SFRSYM    DATA     BYTE      TCON
      00000082H   SFRSYM    DATA     WORD      DPTR
      000000D8H.0 SFRSYM    DATA     BIT       PUART0
      000000D8H.1 SFRSYM    DATA     BIT       PUART1
      000000D8H.2 SFRSYM    DATA     BIT       PI2C0
      00000088H.2 SFRSYM    DATA     BIT       IF0
      000000D8H.3 SFRSYM    DATA     BIT       PI2C1
      000000AEH   SFRSYM    DATA     WORD      TIM2__ARR
      000000A1H   SFRSYM    DATA     BYTE      TIM2_CR0
      000000A6H   SFRSYM    DATA     WORD      TIM3__ARR
      0000009CH   SFRSYM    DATA     BYTE      TIM3_CR0
      000000A9H   SFRSYM    DATA     BYTE      TIM2_CR1
      00000096H   SFRSYM    DATA     WORD      TIM4__ARR
      0000009EH   SFRSYM    DATA     BYTE      TIM4_CR0
      0000009DH   SFRSYM    DATA     BYTE      TIM3_CR1
      000000F8H   SFRSYM    DATA     BYTE      DRV_OUT
      0000009FH   SFRSYM    DATA     BYTE      TIM4_CR1
      000000DBH   SFRSYM    DATA     BYTE      LVSR
      000000A8H.4 SFRSYM    DATA     BIT       ES0
      00000085H   SFRSYM    DATA     BYTE      FLA_CR
      000000C0H.4 SFRSYM    DATA     BIT       PADC0
      000000B8H   SFRSYM    DATA     BYTE      IP0
      000000C0H.5 SFRSYM    DATA     BIT       PADC1
      000000C0H   SFRSYM    DATA     BYTE      IP1
      000000C8H   SFRSYM    DATA     BYTE      IP2
      00000098H.2 SFRSYM    DATA     BIT       RB8
      000000D8H   SFRSYM    DATA     BYTE      IP3
      000000A8H.0 SFRSYM    DATA     BIT       EX0
      00000098H.3 SFRSYM    DATA     BIT       TB8
      000000A8H.2 SFRSYM    DATA     BIT       EX1
      000000D0H.0 SFRSYM    DATA     BIT       P
      000000F9H   SFRSYM    DATA     BYTE      PI_LPF_CR
      00000098H.5 SFRSYM    DATA     BIT       SM2
      000000D8H.6 SFRSYM    DATA     BIT       PDMA0
      000000D8H.7 SFRSYM    DATA     BIT       PDMA1
      000000C2H   SFRSYM    DATA     WORD      MDU_MA
      000000D0H.3 SFRSYM    DATA     BIT       RS0
      000000CAH   SFRSYM    DATA     WORD      MDU_MB
      000000D0H.4 SFRSYM    DATA     BIT       RS1
      000000C1H   SFRSYM    DATA     BYTE      MDU_CR
      000000F8H.7 SFRSYM    DATA     BIT       MOE
      000000C0H.6 SFRSYM    DATA     BIT       PCMP0
      000000C0H.7 SFRSYM    DATA     BIT       PCMP1
      000000F8H.4 SFRSYM    DATA     BIT       OISWXH
      00000098H.4 SFRSYM    DATA     BIT       REN
      000000D7H   SFRSYM    DATA     BYTE      CMP_SR
      000000F8H.5 SFRSYM    DATA     BIT       OISWXL
      000000C8H.6 SFRSYM    DATA     BIT       PTSD0
      000000D8H.4 SFRSYM    DATA     BIT       PSPI0
      000000C8H.7 SFRSYM    DATA     BIT       PTSD1
      000000B8H.6 SFRSYM    DATA     BIT       PDRV0
LX51 LINKER/LOCATER V4.66.100.0                                                       10/12/2023  14:31:55  PAGE 93


      000000D8H.5 SFRSYM    DATA     BIT       PSPI1
      000000B8H.7 SFRSYM    DATA     BIT       PDRV1
      000000D1H   SFRSYM    DATA     BYTE      P1_IE
      000000D3H   SFRSYM    DATA     BYTE      P2_IE
      000000D2H   SFRSYM    DATA     BYTE      P1_IF
      000000D4H   SFRSYM    DATA     BYTE      P2_IF
      000000ACH   SFRSYM    DATA     WORD      TIM2__DR
      000000C8H.4 SFRSYM    DATA     BIT       PTIM4S0
      000000FCH   SFRSYM    DATA     BYTE      P0_OE
      000000A4H   SFRSYM    DATA     WORD      TIM3__DR
      000000C8H.5 SFRSYM    DATA     BIT       PTIM4S1
      000000FDH   SFRSYM    DATA     BYTE      P1_OE
      00000094H   SFRSYM    DATA     WORD      TIM4__DR
      000000D0H.5 SFRSYM    DATA     BIT       F0
      000000FEH   SFRSYM    DATA     BYTE      P2_OE
      000000D0H.1 SFRSYM    DATA     BIT       F1
      000000FFH   SFRSYM    DATA     BYTE      P3_OE
      00000080H.0 SFRSYM    DATA     BIT       GP00
      000000E9H   SFRSYM    DATA     BYTE      P4_OE
      00000090H.0 SFRSYM    DATA     BIT       GP10
      00000080H.1 SFRSYM    DATA     BIT       GP01
      000000A0H.0 SFRSYM    DATA     BIT       GP20
      00000090H.1 SFRSYM    DATA     BIT       GP11
      00000080H.2 SFRSYM    DATA     BIT       GP02
      000000B0H.0 SFRSYM    DATA     BIT       GP30
      000000A0H.1 SFRSYM    DATA     BIT       GP21
      00000090H.2 SFRSYM    DATA     BIT       GP12
      00000080H.3 SFRSYM    DATA     BIT       GP03
      000000B8H.0 SFRSYM    DATA     BIT       PLVW0
      000000A8H.1 SFRSYM    DATA     BIT       TSDIE
      000000D0H   SFRSYM    DATA     BYTE      PSW
      000000E8H.0 SFRSYM    DATA     BIT       GP40
      000000B0H.1 SFRSYM    DATA     BIT       GP31
      000000A0H.2 SFRSYM    DATA     BIT       GP22
      00000090H.3 SFRSYM    DATA     BIT       GP13
      00000080H.4 SFRSYM    DATA     BIT       GP04
      000000B8H.1 SFRSYM    DATA     BIT       PLVW1
      000000A8H.3 SFRSYM    DATA     BIT       SPIIE
      00000088H.5 SFRSYM    DATA     BIT       TSDIF
      000000E8H.1 SFRSYM    DATA     BIT       GP41
      000000B0H.2 SFRSYM    DATA     BIT       GP32
      000000A0H.3 SFRSYM    DATA     BIT       GP23
      00000090H.4 SFRSYM    DATA     BIT       GP14
      00000080H.5 SFRSYM    DATA     BIT       GP05
      000000C4H   SFRSYM    DATA     BYTE      MDU_DA0
      000000E8H.2 SFRSYM    DATA     BIT       GP42
      000000B0H.3 SFRSYM    DATA     BIT       GP33
      000000A0H.4 SFRSYM    DATA     BIT       GP24
      00000090H.5 SFRSYM    DATA     BIT       GP15
      00000080H.6 SFRSYM    DATA     BIT       GP06
      000000CCH   SFRSYM    DATA     BYTE      MDU_DB0
      000000C5H   SFRSYM    DATA     BYTE      MDU_DA1
      00000088H.0 SFRSYM    DATA     BIT       IT00

      010022C1H   BLOCK     CODE     ---       LVL=0
      010022C1H   LINE      CODE     ---       #29
      010022C1H   LINE      CODE     ---       #30
      010022C1H   LINE      CODE     ---       #32
      010022C8H   LINE      CODE     ---       #33
      010022CCH   LINE      CODE     ---       #35
      010022D1H   LINE      CODE     ---       #36
      010022D3H   LINE      CODE     ---       #37
      010022D9H   LINE      CODE     ---       #38
      010022DDH   LINE      CODE     ---       #40
      010022E3H   LINE      CODE     ---       #41
LX51 LINKER/LOCATER V4.66.100.0                                                       10/12/2023  14:31:55  PAGE 94


      010022E9H   LINE      CODE     ---       #42
      010022EFH   LINE      CODE     ---       #43
      010022F3H   LINE      CODE     ---       #44
      010022FCH   LINE      CODE     ---       #45
      01002302H   LINE      CODE     ---       #48
      0100230CH   LINE      CODE     ---       #49
      01002314H   LINE      CODE     ---       #51
      0100231CH   LINE      CODE     ---       #52
      01002324H   LINE      CODE     ---       #55
      0100232EH   LINE      CODE     ---       #56
      01002336H   LINE      CODE     ---       #57
      01002340H   LINE      CODE     ---       #58
      01002345H   LINE      CODE     ---       #59
      0100234EH   LINE      CODE     ---       #60
      01002356H   LINE      CODE     ---       #61
      01002360H   LINE      CODE     ---       #64
      01002365H   LINE      CODE     ---       #68
      01002365H   LINE      CODE     ---       #69
      0100236CH   LINE      CODE     ---       #70
      01002376H   LINE      CODE     ---       #71
      0100237EH   LINE      CODE     ---       #72
      0100237EH   LINE      CODE     ---       #81
      01002385H   LINE      CODE     ---       #84
      0100238CH   LINE      CODE     ---       #85
      0100238CH   LINE      CODE     ---       #86
      01002393H   LINE      CODE     ---       #87
      01002395H   LINE      CODE     ---       #89
      01002395H   LINE      CODE     ---       #90
      0100239CH   LINE      CODE     ---       #91
      0100239CH   LINE      CODE     ---       #109
      0100239CH   LINE      CODE     ---       #110
      010023A3H   LINE      CODE     ---       #111
      010023A6H   LINE      CODE     ---       #112
      010023AAH   LINE      CODE     ---       #113
      010023AAH   LINE      CODE     ---       #126
      010023AAH   LINE      CODE     ---       #127
      010023B1H   LINE      CODE     ---       #128
      010023B7H   LINE      CODE     ---       #129
      010023BDH   LINE      CODE     ---       #131
      010023C4H   LINE      CODE     ---       #132
      010023C7H   LINE      CODE     ---       #133
      010023C7H   LINE      CODE     ---       #205
      010023C7H   LINE      CODE     ---       #206
      010023CEH   LINE      CODE     ---       #207
      010023CEH   LINE      CODE     ---       #209
      010023CEH   LINE      CODE     ---       #211
      010023D5H   LINE      CODE     ---       #212
      010023E4H   LINE      CODE     ---       #214
      010023E4H   LINE      CODE     ---       #238
      010023E4H   LINE      CODE     ---       #239
      010023E4H   LINE      CODE     ---       #247
      010023EBH   LINE      CODE     ---       #248
      ---         BLOCKEND  ---      ---       LVL=0

      0100284FH   BLOCK     CODE     ---       LVL=0
      0100284FH   LINE      CODE     ---       #256
      0100284FH   LINE      CODE     ---       #257
      0100284FH   LINE      CODE     ---       #258
      01002856H   LINE      CODE     ---       #259
      01002856H   LINE      CODE     ---       #260
      0100285AH   LINE      CODE     ---       #266
      0100285AH   LINE      CODE     ---       #267
      0100287CH   LINE      CODE     ---       #268
      0100287CH   LINE      CODE     ---       #275
      01002883H   LINE      CODE     ---       #276
LX51 LINKER/LOCATER V4.66.100.0                                                       10/12/2023  14:31:55  PAGE 95


      0100288AH   LINE      CODE     ---       #277
      0100288AH   LINE      CODE     ---       #278
      010028A3H   LINE      CODE     ---       #279
      010028A3H   LINE      CODE     ---       #280
      010028AAH   LINE      CODE     ---       #286
      010028AAH   LINE      CODE     ---       #287
      010028C0H   LINE      CODE     ---       #288
      010028C0H   LINE      CODE     ---       #290
      010028C2H   LINE      CODE     ---       #291
      010028C2H   LINE      CODE     ---       #292
      010028DDH   LINE      CODE     ---       #293
      010028DDH   LINE      CODE     ---       #294
      010028E5H   LINE      CODE     ---       #300
      010028E5H   LINE      CODE     ---       #301
      010028FBH   LINE      CODE     ---       #302
      010028FBH   LINE      CODE     ---       #304
      010028FBH   LINE      CODE     ---       #305
      01002916H   LINE      CODE     ---       #306
      01002916H   LINE      CODE     ---       #307
      0100291EH   LINE      CODE     ---       #313
      0100291EH   LINE      CODE     ---       #314
      01002934H   LINE      CODE     ---       #315
      01002934H   LINE      CODE     ---       #317
      01002934H   LINE      CODE     ---       #318
      ---         BLOCKEND  ---      ---       LVL=0

      01002F29H   BLOCK     CODE     ---       LVL=0
      01002F29H   LINE      CODE     ---       #325
      01002F29H   LINE      CODE     ---       #326
      01002F29H   LINE      CODE     ---       #327
      01002F30H   LINE      CODE     ---       #328
      01002F30H   LINE      CODE     ---       #329
      01002F34H   LINE      CODE     ---       #332
      01002F37H   LINE      CODE     ---       #335
      01002F3EH   LINE      CODE     ---       #336
      01002F46H   LINE      CODE     ---       #338
      01002F4DH   LINE      CODE     ---       #339
      01002F53H   LINE      CODE     ---       #341
      01002F5DH   LINE      CODE     ---       #342
      01002F64H   LINE      CODE     ---       #350
      01002F64H   LINE      CODE     ---       #356
      01002F64H   LINE      CODE     ---       #357
      01002F6BH   LINE      CODE     ---       #358
      01002F6BH   LINE      CODE     ---       #360
      01002F6BH   LINE      CODE     ---       #364
      01002F6BH   LINE      CODE     ---       #365
      01002F7DH   LINE      CODE     ---       #366
      01002F7DH   LINE      CODE     ---       #372
      01002F8CH   LINE      CODE     ---       #375
      01002FA2H   LINE      CODE     ---       #376
      01002FA4H   LINE      CODE     ---       #378
      01002FA4H   LINE      CODE     ---       #379
      ---         BLOCKEND  ---      ---       LVL=0

      01002BABH   BLOCK     CODE     ---       LVL=0
      01002BABH   BLOCK     CODE     NEAR LAB  LVL=1
      02000244H   SYMBOL    XDATA    BYTE      OpenRampCycles
      ---         BLOCKEND  ---      ---       LVL=1
      01002BABH   LINE      CODE     ---       #387
      01002BABH   LINE      CODE     ---       #388
      01002BABH   LINE      CODE     ---       #390
      01002BB5H   LINE      CODE     ---       #391
      01002BB5H   LINE      CODE     ---       #392
      01002BB9H   LINE      CODE     ---       #400
      01002BB9H   LINE      CODE     ---       #401
LX51 LINKER/LOCATER V4.66.100.0                                                       10/12/2023  14:31:55  PAGE 96


      01002BC0H   LINE      CODE     ---       #402
      01002BC0H   LINE      CODE     ---       #406
      01002BC0H   LINE      CODE     ---       #407
      01002BD2H   LINE      CODE     ---       #408
      01002BD2H   LINE      CODE     ---       #415
      01002BE1H   LINE      CODE     ---       #417
      01002BE8H   LINE      CODE     ---       #418
      01002BF2H   LINE      CODE     ---       #420
      01002BFCH   LINE      CODE     ---       #421
      01002C03H   LINE      CODE     ---       #427
      01002C0DH   LINE      CODE     ---       #428
      01002C14H   LINE      CODE     ---       #432
      01002C14H   LINE      CODE     ---       #433
      01002C1DH   LINE      CODE     ---       #434
      01002C24H   LINE      CODE     ---       #435
      01002C2CH   LINE      CODE     ---       #437
      01002C33H   LINE      CODE     ---       #438
      01002C37H   LINE      CODE     ---       #439
      01002C3BH   LINE      CODE     ---       #440
      01002C3BH   LINE      CODE     ---       #468
      01002C3BH   LINE      CODE     ---       #495
      01002C3BH   LINE      CODE     ---       #498
      01002C3BH   LINE      CODE     ---       #499
      01002C44H   LINE      CODE     ---       #500
      01002C44H   LINE      CODE     ---       #507
      01002C4AH   LINE      CODE     ---       #508
      01002C4AH   LINE      CODE     ---       #511
      01002C59H   LINE      CODE     ---       #512
      ---         BLOCKEND  ---      ---       LVL=0
      02000245H   SYMBOL    XDATA    BYTE      OpenRampCycles

      01002754H   BLOCK     CODE     ---       LVL=0
      01002754H   LINE      CODE     ---       #700
      01002754H   LINE      CODE     ---       #701
      01002754H   LINE      CODE     ---       #703
      01002763H   LINE      CODE     ---       #706
      01002772H   LINE      CODE     ---       #709
      01002781H   LINE      CODE     ---       #712
      01002790H   LINE      CODE     ---       #715
      0100279FH   LINE      CODE     ---       #718
      010027AEH   LINE      CODE     ---       #721
      010027BDH   LINE      CODE     ---       #722
      010027C7H   LINE      CODE     ---       #723
      010027D1H   LINE      CODE     ---       #724
      010027DBH   LINE      CODE     ---       #727
      010027EAH   LINE      CODE     ---       #728
      010027F4H   LINE      CODE     ---       #731
      01002803H   LINE      CODE     ---       #732
      0100280BH   LINE      CODE     ---       #735
      01002819H   LINE      CODE     ---       #738
      01002828H   LINE      CODE     ---       #741
      01002837H   LINE      CODE     ---       #744
      0100283CH   LINE      CODE     ---       #747
      01002840H   LINE      CODE     ---       #748
      01002844H   LINE      CODE     ---       #749
      0100284EH   LINE      CODE     ---       #750
      ---         BLOCKEND  ---      ---       LVL=0

      0100317CH   BLOCK     CODE     ---       LVL=0
      0100317CH   LINE      CODE     ---       #758
      0100317CH   LINE      CODE     ---       #759
      0100317CH   LINE      CODE     ---       #761
      0100318BH   LINE      CODE     ---       #764
      0100319AH   LINE      CODE     ---       #767
      010031A9H   LINE      CODE     ---       #768
LX51 LINKER/LOCATER V4.66.100.0                                                       10/12/2023  14:31:55  PAGE 97


      010031B3H   LINE      CODE     ---       #770
      010031C2H   LINE      CODE     ---       #773
      010031C7H   LINE      CODE     ---       #775
      010031D1H   LINE      CODE     ---       #777
      010031D6H   LINE      CODE     ---       #779
      010031E0H   LINE      CODE     ---       #780
      ---         BLOCKEND  ---      ---       LVL=0

      01002935H   BLOCK     CODE     ---       LVL=0
      01002935H   LINE      CODE     ---       #788
      01002935H   LINE      CODE     ---       #789
      01002935H   LINE      CODE     ---       #790
      0100293EH   LINE      CODE     ---       #791
      0100293EH   LINE      CODE     ---       #792
      01002945H   LINE      CODE     ---       #793
      0100294CH   LINE      CODE     ---       #795
      0100294CH   LINE      CODE     ---       #796
      01002992H   LINE      CODE     ---       #797
      010029ADH   LINE      CODE     ---       #798
      010029E3H   LINE      CODE     ---       #799
      010029E3H   LINE      CODE     ---       #827
      010029F1H   LINE      CODE     ---       #828
      01002A02H   LINE      CODE     ---       #829
      01002A02H   LINE      CODE     ---       #830
      01002A08H   LINE      CODE     ---       #831
      01002A08H   LINE      CODE     ---       #832
      01002A08H   LINE      CODE     ---       #833
      ---         BLOCKEND  ---      ---       LVL=0

      0100361EH   BLOCK     CODE     ---       LVL=0
      0100361EH   LINE      CODE     ---       #841
      0100361EH   LINE      CODE     ---       #842
      0100361EH   LINE      CODE     ---       #843
      01003625H   LINE      CODE     ---       #844
      01003625H   LINE      CODE     ---       #845
      01003629H   LINE      CODE     ---       #846
      01003630H   LINE      CODE     ---       #847
      01003632H   LINE      CODE     ---       #848
      01003648H   LINE      CODE     ---       #849
      0100364DH   LINE      CODE     ---       #850
      01003653H   LINE      CODE     ---       #851
      01003653H   LINE      CODE     ---       #852
      ---         BLOCKEND  ---      ---       LVL=0

      0100389BH   BLOCK     CODE     ---       LVL=0
      0100389BH   LINE      CODE     ---       #859
      0100389BH   LINE      CODE     ---       #860
      0100389BH   LINE      CODE     ---       #861
      010038B1H   LINE      CODE     ---       #862
      010038B4H   LINE      CODE     ---       #863
      010038B7H   LINE      CODE     ---       #866
      ---         BLOCKEND  ---      ---       LVL=0

      ---         MODULE    ---      ---       BEMFDETECT
      020001F2H   PUBLIC    XDATA    ---       BEMFDetect
      000000B0H.4 SFRSYM    DATA     BIT       GP34
      000000A0H.5 SFRSYM    DATA     BIT       GP25
      00000090H.6 SFRSYM    DATA     BIT       GP16
      00000080H.7 SFRSYM    DATA     BIT       GP07
      000000CDH   SFRSYM    DATA     BYTE      MDU_DB1
      000000C6H   SFRSYM    DATA     BYTE      MDU_DA2
      00000088H.1 SFRSYM    DATA     BIT       IT01
      00000088H.3 SFRSYM    DATA     BIT       IT10
      000000B0H.5 SFRSYM    DATA     BIT       GP35
      000000A0H.6 SFRSYM    DATA     BIT       GP26
LX51 LINKER/LOCATER V4.66.100.0                                                       10/12/2023  14:31:55  PAGE 98


      00000090H.7 SFRSYM    DATA     BIT       GP17
      00000080H   SFRSYM    DATA     BYTE      P0
      000000F6H   SFRSYM    DATA     WORD      PI_UKMIN
      000000C7H   SFRSYM    DATA     BYTE      MDU_DA3
      00000088H.4 SFRSYM    DATA     BIT       IT11
      000000C9H   SFRSYM    DATA     BYTE      RST_SR
      000000D9H   SFRSYM    DATA     BYTE      EVT_FILT
      000000B0H.6 SFRSYM    DATA     BIT       GP36
      000000A0H.7 SFRSYM    DATA     BIT       GP27
      00000090H   SFRSYM    DATA     BYTE      P1
      000000B0H.7 SFRSYM    DATA     BIT       GP37
      000000A0H   SFRSYM    DATA     BYTE      P2
      000000F4H   SFRSYM    DATA     WORD      PI_UKMAX
      000000B0H   SFRSYM    DATA     BYTE      P3
      000000E8H   SFRSYM    DATA     BYTE      P4
      000000D0H.6 SFRSYM    DATA     BIT       AC
      000000A8H.7 SFRSYM    DATA     BIT       EA
      000000D5H   SFRSYM    DATA     BYTE      CMP_CR0
      000000D6H   SFRSYM    DATA     BYTE      CMP_CR1
      000000DAH   SFRSYM    DATA     BYTE      CMP_CR2
      000000B8H.2 SFRSYM    DATA     BIT       PX00
      000000DCH   SFRSYM    DATA     BYTE      CMP_CR3
      000000F8H.0 SFRSYM    DATA     BIT       OISUH
      000000EAH   SFRSYM    DATA     WORD      PI_EK
      000000B8H.3 SFRSYM    DATA     BIT       PX01
      000000B8H.4 SFRSYM    DATA     BIT       PX10
      000000F8H.2 SFRSYM    DATA     BIT       OISVH
      000000B8H.5 SFRSYM    DATA     BIT       PX11
      000000F8H.1 SFRSYM    DATA     BIT       OISUL
      000000DDH   SFRSYM    DATA     BYTE      LPF_K
      000000F2H   SFRSYM    DATA     WORD      PI_KI
      000000A8H   SFRSYM    DATA     BYTE      IE
      000000F8H.3 SFRSYM    DATA     BIT       OISVL
      000000EEH   SFRSYM    DATA     WORD      PI_KP
      000000AAH   SFRSYM    DATA     WORD      TIM2__CNTR
      000000A2H   SFRSYM    DATA     WORD      TIM3__CNTR
      00000092H   SFRSYM    DATA     WORD      TIM4__CNTR
      000000ECH   SFRSYM    DATA     WORD      PI_UK
      000000DEH   SFRSYM    DATA     WORD      LPF_X
      00000098H.0 SFRSYM    DATA     BIT       RI
      00000098H.6 SFRSYM    DATA     BIT       UT_MOD0
      000000E6H   SFRSYM    DATA     WORD      LPF_Y
      00000098H.7 SFRSYM    DATA     BIT       UT_MOD1
      000000D0H.7 SFRSYM    DATA     BIT       CY
      00000098H.1 SFRSYM    DATA     BIT       TI
      000000C0H.2 SFRSYM    DATA     BIT       PTIM10
      00000084H   SFRSYM    DATA     BYTE      FLA_KEY
      000000C0H.0 SFRSYM    DATA     BIT       PTIM20
      000000C0H.3 SFRSYM    DATA     BIT       PTIM11
      00000098H   SFRSYM    DATA     BYTE      UT_CR
      000000C8H.2 SFRSYM    DATA     BIT       PTIM30
      000000C0H.1 SFRSYM    DATA     BIT       PTIM21
      00000099H   SFRSYM    DATA     BYTE      UT_DR
      000000C8H.3 SFRSYM    DATA     BIT       PTIM31
      000000D0H.2 SFRSYM    DATA     BIT       OV
      0000009AH   SFRSYM    DATA     WORD      UT_BAUD
      000000C4H   SFRSYM    DATA     WORD      MDU_DA01
      000000CCH   SFRSYM    DATA     WORD      MDU_DB01
      00000087H   SFRSYM    DATA     BYTE      PCON
      000000C6H   SFRSYM    DATA     WORD      MDU_DA23
      00000088H   SFRSYM    DATA     BYTE      TCON
      00000082H   SFRSYM    DATA     WORD      DPTR
      000000D8H.0 SFRSYM    DATA     BIT       PUART0
      000000D8H.1 SFRSYM    DATA     BIT       PUART1
      000000D8H.2 SFRSYM    DATA     BIT       PI2C0
LX51 LINKER/LOCATER V4.66.100.0                                                       10/12/2023  14:31:55  PAGE 99


      00000088H.2 SFRSYM    DATA     BIT       IF0
      000000D8H.3 SFRSYM    DATA     BIT       PI2C1
      000000AEH   SFRSYM    DATA     WORD      TIM2__ARR
      000000A1H   SFRSYM    DATA     BYTE      TIM2_CR0
      000000A6H   SFRSYM    DATA     WORD      TIM3__ARR
      0000009CH   SFRSYM    DATA     BYTE      TIM3_CR0
      000000A9H   SFRSYM    DATA     BYTE      TIM2_CR1
      00000096H   SFRSYM    DATA     WORD      TIM4__ARR
      0000009EH   SFRSYM    DATA     BYTE      TIM4_CR0
      0000009DH   SFRSYM    DATA     BYTE      TIM3_CR1
      000000F8H   SFRSYM    DATA     BYTE      DRV_OUT
      0000009FH   SFRSYM    DATA     BYTE      TIM4_CR1
      000000DBH   SFRSYM    DATA     BYTE      LVSR
      000000A8H.4 SFRSYM    DATA     BIT       ES0
      00000085H   SFRSYM    DATA     BYTE      FLA_CR
      000000C0H.4 SFRSYM    DATA     BIT       PADC0
      000000B8H   SFRSYM    DATA     BYTE      IP0
      000000C0H.5 SFRSYM    DATA     BIT       PADC1
      000000C0H   SFRSYM    DATA     BYTE      IP1
      000000C8H   SFRSYM    DATA     BYTE      IP2
      00000098H.2 SFRSYM    DATA     BIT       RB8
      000000D8H   SFRSYM    DATA     BYTE      IP3
      000000A8H.0 SFRSYM    DATA     BIT       EX0
      00000098H.3 SFRSYM    DATA     BIT       TB8
      000000A8H.2 SFRSYM    DATA     BIT       EX1
      000000D0H.0 SFRSYM    DATA     BIT       P
      000000F9H   SFRSYM    DATA     BYTE      PI_LPF_CR
      00000098H.5 SFRSYM    DATA     BIT       SM2
      000000D8H.6 SFRSYM    DATA     BIT       PDMA0
      000000D8H.7 SFRSYM    DATA     BIT       PDMA1
      000000C2H   SFRSYM    DATA     WORD      MDU_MA
      000000D0H.3 SFRSYM    DATA     BIT       RS0
      000000CAH   SFRSYM    DATA     WORD      MDU_MB
      000000D0H.4 SFRSYM    DATA     BIT       RS1
      000000C1H   SFRSYM    DATA     BYTE      MDU_CR
      000000F8H.7 SFRSYM    DATA     BIT       MOE
      000000C0H.6 SFRSYM    DATA     BIT       PCMP0
      000000C0H.7 SFRSYM    DATA     BIT       PCMP1
      000000F8H.4 SFRSYM    DATA     BIT       OISWXH
      00000098H.4 SFRSYM    DATA     BIT       REN
      000000D7H   SFRSYM    DATA     BYTE      CMP_SR
      000000F8H.5 SFRSYM    DATA     BIT       OISWXL
      000000C8H.6 SFRSYM    DATA     BIT       PTSD0
      000000D8H.4 SFRSYM    DATA     BIT       PSPI0
      000000C8H.7 SFRSYM    DATA     BIT       PTSD1
      000000B8H.6 SFRSYM    DATA     BIT       PDRV0
      000000D8H.5 SFRSYM    DATA     BIT       PSPI1
      000000B8H.7 SFRSYM    DATA     BIT       PDRV1
      000000D1H   SFRSYM    DATA     BYTE      P1_IE
      000000D3H   SFRSYM    DATA     BYTE      P2_IE
      000000D2H   SFRSYM    DATA     BYTE      P1_IF
      000000D4H   SFRSYM    DATA     BYTE      P2_IF
      000000ACH   SFRSYM    DATA     WORD      TIM2__DR
      000000C8H.4 SFRSYM    DATA     BIT       PTIM4S0
      000000FCH   SFRSYM    DATA     BYTE      P0_OE
      000000A4H   SFRSYM    DATA     WORD      TIM3__DR
      000000C8H.5 SFRSYM    DATA     BIT       PTIM4S1
      000000FDH   SFRSYM    DATA     BYTE      P1_OE
      00000094H   SFRSYM    DATA     WORD      TIM4__DR
      000000D0H.5 SFRSYM    DATA     BIT       F0
      000000FEH   SFRSYM    DATA     BYTE      P2_OE
      000000D0H.1 SFRSYM    DATA     BIT       F1
      000000FFH   SFRSYM    DATA     BYTE      P3_OE
      00000080H.0 SFRSYM    DATA     BIT       GP00
      000000E9H   SFRSYM    DATA     BYTE      P4_OE
LX51 LINKER/LOCATER V4.66.100.0                                                       10/12/2023  14:31:55  PAGE 100


      00000090H.0 SFRSYM    DATA     BIT       GP10
      00000080H.1 SFRSYM    DATA     BIT       GP01
      000000A0H.0 SFRSYM    DATA     BIT       GP20
      00000090H.1 SFRSYM    DATA     BIT       GP11
      00000080H.2 SFRSYM    DATA     BIT       GP02
      000000B0H.0 SFRSYM    DATA     BIT       GP30
      000000A0H.1 SFRSYM    DATA     BIT       GP21
      00000090H.2 SFRSYM    DATA     BIT       GP12
      00000080H.3 SFRSYM    DATA     BIT       GP03
      000000B8H.0 SFRSYM    DATA     BIT       PLVW0
      000000A8H.1 SFRSYM    DATA     BIT       TSDIE
      000000D0H   SFRSYM    DATA     BYTE      PSW
      000000E8H.0 SFRSYM    DATA     BIT       GP40
      000000B0H.1 SFRSYM    DATA     BIT       GP31
      000000A0H.2 SFRSYM    DATA     BIT       GP22
      00000090H.3 SFRSYM    DATA     BIT       GP13
      00000080H.4 SFRSYM    DATA     BIT       GP04
      000000B8H.1 SFRSYM    DATA     BIT       PLVW1
      000000A8H.3 SFRSYM    DATA     BIT       SPIIE
      00000088H.5 SFRSYM    DATA     BIT       TSDIF
      000000E8H.1 SFRSYM    DATA     BIT       GP41
      000000B0H.2 SFRSYM    DATA     BIT       GP32
      000000A0H.3 SFRSYM    DATA     BIT       GP23
      00000090H.4 SFRSYM    DATA     BIT       GP14
      00000080H.5 SFRSYM    DATA     BIT       GP05
      000000C4H   SFRSYM    DATA     BYTE      MDU_DA0
      000000E8H.2 SFRSYM    DATA     BIT       GP42
      000000B0H.3 SFRSYM    DATA     BIT       GP33
      000000A0H.4 SFRSYM    DATA     BIT       GP24
      00000090H.5 SFRSYM    DATA     BIT       GP15
      00000080H.6 SFRSYM    DATA     BIT       GP06
      000000CCH   SFRSYM    DATA     BYTE      MDU_DB0
      000000C5H   SFRSYM    DATA     BYTE      MDU_DA1
      00000088H.0 SFRSYM    DATA     BIT       IT00
      00000007H   SYMBOL    DATA     BYTE      BEMFStatus
      00000007H   SYMBOL    DATA     BYTE      HallStatus
      020001F0H   SYMBOL    XDATA    BYTE      MC_FR
      020001F1H   SYMBOL    XDATA    BYTE      MC_HallStatus

      ---         MODULE    ---      ---       FOCTAILDECT
      02000214H   PUBLIC    XDATA    ---       TailWindDetect
      01003654H   PUBLIC    CODE     ---       FOCTailWindTimeLimit
      000000B0H.4 SFRSYM    DATA     BIT       GP34
      000000A0H.5 SFRSYM    DATA     BIT       GP25
      00000090H.6 SFRSYM    DATA     BIT       GP16
      00000080H.7 SFRSYM    DATA     BIT       GP07
      000000CDH   SFRSYM    DATA     BYTE      MDU_DB1
      000000C6H   SFRSYM    DATA     BYTE      MDU_DA2
      00000088H.1 SFRSYM    DATA     BIT       IT01
      00000088H.3 SFRSYM    DATA     BIT       IT10
      000000B0H.5 SFRSYM    DATA     BIT       GP35
      000000A0H.6 SFRSYM    DATA     BIT       GP26
      00000090H.7 SFRSYM    DATA     BIT       GP17
      00000080H   SFRSYM    DATA     BYTE      P0
      000000F6H   SFRSYM    DATA     WORD      PI_UKMIN
      000000C7H   SFRSYM    DATA     BYTE      MDU_DA3
      00000088H.4 SFRSYM    DATA     BIT       IT11
      000000C9H   SFRSYM    DATA     BYTE      RST_SR
      000000D9H   SFRSYM    DATA     BYTE      EVT_FILT
      000000B0H.6 SFRSYM    DATA     BIT       GP36
      000000A0H.7 SFRSYM    DATA     BIT       GP27
      00000090H   SFRSYM    DATA     BYTE      P1
      000000B0H.7 SFRSYM    DATA     BIT       GP37
      000000A0H   SFRSYM    DATA     BYTE      P2
      000000F4H   SFRSYM    DATA     WORD      PI_UKMAX
LX51 LINKER/LOCATER V4.66.100.0                                                       10/12/2023  14:31:55  PAGE 101


      000000B0H   SFRSYM    DATA     BYTE      P3
      000000E8H   SFRSYM    DATA     BYTE      P4
      000000D0H.6 SFRSYM    DATA     BIT       AC
      000000A8H.7 SFRSYM    DATA     BIT       EA
      000000D5H   SFRSYM    DATA     BYTE      CMP_CR0
      000000D6H   SFRSYM    DATA     BYTE      CMP_CR1
      000000DAH   SFRSYM    DATA     BYTE      CMP_CR2
      000000B8H.2 SFRSYM    DATA     BIT       PX00
      000000DCH   SFRSYM    DATA     BYTE      CMP_CR3
      000000F8H.0 SFRSYM    DATA     BIT       OISUH
      000000EAH   SFRSYM    DATA     WORD      PI_EK
      000000B8H.3 SFRSYM    DATA     BIT       PX01
      000000B8H.4 SFRSYM    DATA     BIT       PX10
      000000F8H.2 SFRSYM    DATA     BIT       OISVH
      000000B8H.5 SFRSYM    DATA     BIT       PX11
      000000F8H.1 SFRSYM    DATA     BIT       OISUL
      000000DDH   SFRSYM    DATA     BYTE      LPF_K
      000000F2H   SFRSYM    DATA     WORD      PI_KI
      000000A8H   SFRSYM    DATA     BYTE      IE
      000000F8H.3 SFRSYM    DATA     BIT       OISVL
      000000EEH   SFRSYM    DATA     WORD      PI_KP
      000000AAH   SFRSYM    DATA     WORD      TIM2__CNTR
      000000A2H   SFRSYM    DATA     WORD      TIM3__CNTR
      00000092H   SFRSYM    DATA     WORD      TIM4__CNTR
      000000ECH   SFRSYM    DATA     WORD      PI_UK
      000000DEH   SFRSYM    DATA     WORD      LPF_X
      00000098H.0 SFRSYM    DATA     BIT       RI
      00000098H.6 SFRSYM    DATA     BIT       UT_MOD0
      000000E6H   SFRSYM    DATA     WORD      LPF_Y
      00000098H.7 SFRSYM    DATA     BIT       UT_MOD1
      000000D0H.7 SFRSYM    DATA     BIT       CY
      00000098H.1 SFRSYM    DATA     BIT       TI
      000000C0H.2 SFRSYM    DATA     BIT       PTIM10
      00000084H   SFRSYM    DATA     BYTE      FLA_KEY
      000000C0H.0 SFRSYM    DATA     BIT       PTIM20
      000000C0H.3 SFRSYM    DATA     BIT       PTIM11
      00000098H   SFRSYM    DATA     BYTE      UT_CR
      000000C8H.2 SFRSYM    DATA     BIT       PTIM30
      000000C0H.1 SFRSYM    DATA     BIT       PTIM21
      00000099H   SFRSYM    DATA     BYTE      UT_DR
      000000C8H.3 SFRSYM    DATA     BIT       PTIM31
      000000D0H.2 SFRSYM    DATA     BIT       OV
      0000009AH   SFRSYM    DATA     WORD      UT_BAUD
      000000C4H   SFRSYM    DATA     WORD      MDU_DA01
      000000CCH   SFRSYM    DATA     WORD      MDU_DB01
      00000087H   SFRSYM    DATA     BYTE      PCON
      000000C6H   SFRSYM    DATA     WORD      MDU_DA23
      00000088H   SFRSYM    DATA     BYTE      TCON
      00000082H   SFRSYM    DATA     WORD      DPTR
      000000D8H.0 SFRSYM    DATA     BIT       PUART0
      000000D8H.1 SFRSYM    DATA     BIT       PUART1
      000000D8H.2 SFRSYM    DATA     BIT       PI2C0
      00000088H.2 SFRSYM    DATA     BIT       IF0
      000000D8H.3 SFRSYM    DATA     BIT       PI2C1
      000000AEH   SFRSYM    DATA     WORD      TIM2__ARR
      000000A1H   SFRSYM    DATA     BYTE      TIM2_CR0
      000000A6H   SFRSYM    DATA     WORD      TIM3__ARR
      0000009CH   SFRSYM    DATA     BYTE      TIM3_CR0
      000000A9H   SFRSYM    DATA     BYTE      TIM2_CR1
      00000096H   SFRSYM    DATA     WORD      TIM4__ARR
      0000009EH   SFRSYM    DATA     BYTE      TIM4_CR0
      0000009DH   SFRSYM    DATA     BYTE      TIM3_CR1
      000000F8H   SFRSYM    DATA     BYTE      DRV_OUT
      0000009FH   SFRSYM    DATA     BYTE      TIM4_CR1
      000000DBH   SFRSYM    DATA     BYTE      LVSR
LX51 LINKER/LOCATER V4.66.100.0                                                       10/12/2023  14:31:55  PAGE 102


      000000A8H.4 SFRSYM    DATA     BIT       ES0
      00000085H   SFRSYM    DATA     BYTE      FLA_CR
      000000C0H.4 SFRSYM    DATA     BIT       PADC0
      000000B8H   SFRSYM    DATA     BYTE      IP0
      000000C0H.5 SFRSYM    DATA     BIT       PADC1
      000000C0H   SFRSYM    DATA     BYTE      IP1
      000000C8H   SFRSYM    DATA     BYTE      IP2
      00000098H.2 SFRSYM    DATA     BIT       RB8
      000000D8H   SFRSYM    DATA     BYTE      IP3
      000000A8H.0 SFRSYM    DATA     BIT       EX0
      00000098H.3 SFRSYM    DATA     BIT       TB8
      000000A8H.2 SFRSYM    DATA     BIT       EX1
      000000D0H.0 SFRSYM    DATA     BIT       P
      000000F9H   SFRSYM    DATA     BYTE      PI_LPF_CR
      00000098H.5 SFRSYM    DATA     BIT       SM2
      000000D8H.6 SFRSYM    DATA     BIT       PDMA0
      000000D8H.7 SFRSYM    DATA     BIT       PDMA1
      000000C2H   SFRSYM    DATA     WORD      MDU_MA
      000000D0H.3 SFRSYM    DATA     BIT       RS0
      000000CAH   SFRSYM    DATA     WORD      MDU_MB
      000000D0H.4 SFRSYM    DATA     BIT       RS1
      000000C1H   SFRSYM    DATA     BYTE      MDU_CR
      000000F8H.7 SFRSYM    DATA     BIT       MOE
      000000C0H.6 SFRSYM    DATA     BIT       PCMP0
      000000C0H.7 SFRSYM    DATA     BIT       PCMP1
      000000F8H.4 SFRSYM    DATA     BIT       OISWXH
      00000098H.4 SFRSYM    DATA     BIT       REN
      000000D7H   SFRSYM    DATA     BYTE      CMP_SR
      000000F8H.5 SFRSYM    DATA     BIT       OISWXL
      000000C8H.6 SFRSYM    DATA     BIT       PTSD0
      000000D8H.4 SFRSYM    DATA     BIT       PSPI0
      000000C8H.7 SFRSYM    DATA     BIT       PTSD1
      000000B8H.6 SFRSYM    DATA     BIT       PDRV0
      000000D8H.5 SFRSYM    DATA     BIT       PSPI1
      000000B8H.7 SFRSYM    DATA     BIT       PDRV1
      000000D1H   SFRSYM    DATA     BYTE      P1_IE
      000000D3H   SFRSYM    DATA     BYTE      P2_IE
      000000D2H   SFRSYM    DATA     BYTE      P1_IF
      000000D4H   SFRSYM    DATA     BYTE      P2_IF
      000000ACH   SFRSYM    DATA     WORD      TIM2__DR
      000000C8H.4 SFRSYM    DATA     BIT       PTIM4S0
      000000FCH   SFRSYM    DATA     BYTE      P0_OE
      000000A4H   SFRSYM    DATA     WORD      TIM3__DR
      000000C8H.5 SFRSYM    DATA     BIT       PTIM4S1
      000000FDH   SFRSYM    DATA     BYTE      P1_OE
      00000094H   SFRSYM    DATA     WORD      TIM4__DR
      000000D0H.5 SFRSYM    DATA     BIT       F0
      000000FEH   SFRSYM    DATA     BYTE      P2_OE
      000000D0H.1 SFRSYM    DATA     BIT       F1
      000000FFH   SFRSYM    DATA     BYTE      P3_OE
      00000080H.0 SFRSYM    DATA     BIT       GP00
      000000E9H   SFRSYM    DATA     BYTE      P4_OE
      00000090H.0 SFRSYM    DATA     BIT       GP10
      00000080H.1 SFRSYM    DATA     BIT       GP01
      000000A0H.0 SFRSYM    DATA     BIT       GP20
      00000090H.1 SFRSYM    DATA     BIT       GP11
      00000080H.2 SFRSYM    DATA     BIT       GP02
      000000B0H.0 SFRSYM    DATA     BIT       GP30
      000000A0H.1 SFRSYM    DATA     BIT       GP21
      00000090H.2 SFRSYM    DATA     BIT       GP12
      00000080H.3 SFRSYM    DATA     BIT       GP03
      000000B8H.0 SFRSYM    DATA     BIT       PLVW0
      000000A8H.1 SFRSYM    DATA     BIT       TSDIE
      000000D0H   SFRSYM    DATA     BYTE      PSW
      000000E8H.0 SFRSYM    DATA     BIT       GP40
LX51 LINKER/LOCATER V4.66.100.0                                                       10/12/2023  14:31:55  PAGE 103


      000000B0H.1 SFRSYM    DATA     BIT       GP31
      000000A0H.2 SFRSYM    DATA     BIT       GP22
      00000090H.3 SFRSYM    DATA     BIT       GP13
      00000080H.4 SFRSYM    DATA     BIT       GP04
      000000B8H.1 SFRSYM    DATA     BIT       PLVW1
      000000A8H.3 SFRSYM    DATA     BIT       SPIIE
      00000088H.5 SFRSYM    DATA     BIT       TSDIF
      000000E8H.1 SFRSYM    DATA     BIT       GP41
      000000B0H.2 SFRSYM    DATA     BIT       GP32
      000000A0H.3 SFRSYM    DATA     BIT       GP23
      00000090H.4 SFRSYM    DATA     BIT       GP14
      00000080H.5 SFRSYM    DATA     BIT       GP05
      000000C4H   SFRSYM    DATA     BYTE      MDU_DA0
      000000E8H.2 SFRSYM    DATA     BIT       GP42
      000000B0H.3 SFRSYM    DATA     BIT       GP33
      000000A0H.4 SFRSYM    DATA     BIT       GP24
      00000090H.5 SFRSYM    DATA     BIT       GP15
      00000080H.6 SFRSYM    DATA     BIT       GP06
      000000CCH   SFRSYM    DATA     BYTE      MDU_DB0
      000000C5H   SFRSYM    DATA     BYTE      MDU_DA1
      00000088H.0 SFRSYM    DATA     BIT       IT00
      02000212H   SYMBOL    XDATA    INT       LatestTheta

      01003654H   BLOCK     CODE     ---       LVL=0
      01003654H   LINE      CODE     ---       #187
      01003654H   LINE      CODE     ---       #188
      01003654H   LINE      CODE     ---       #189
      0100365BH   LINE      CODE     ---       #190
      0100365BH   LINE      CODE     ---       #192
      0100366AH   LINE      CODE     ---       #193
      0100366AH   LINE      CODE     ---       #194
      01003676H   LINE      CODE     ---       #195
      01003677H   LINE      CODE     ---       #197
      01003677H   LINE      CODE     ---       #198
      0100367EH   LINE      CODE     ---       #199
      01003684H   LINE      CODE     ---       #200
      01003689H   LINE      CODE     ---       #201
      01003689H   LINE      CODE     ---       #202
      01003689H   LINE      CODE     ---       #203
      ---         BLOCKEND  ---      ---       LVL=0

      ---         MODULE    ---      ---       RPD
      0200017EH   PUBLIC    XDATA    ---       RPDPara
      0200017DH   PUBLIC    XDATA    BYTE      RPD_Status
      000000B0H.4 SFRSYM    DATA     BIT       GP34
      000000A0H.5 SFRSYM    DATA     BIT       GP25
      00000090H.6 SFRSYM    DATA     BIT       GP16
      00000080H.7 SFRSYM    DATA     BIT       GP07
      000000CDH   SFRSYM    DATA     BYTE      MDU_DB1
      000000C6H   SFRSYM    DATA     BYTE      MDU_DA2
      00000088H.1 SFRSYM    DATA     BIT       IT01
      00000088H.3 SFRSYM    DATA     BIT       IT10
      000000B0H.5 SFRSYM    DATA     BIT       GP35
      000000A0H.6 SFRSYM    DATA     BIT       GP26
      00000090H.7 SFRSYM    DATA     BIT       GP17
      00000080H   SFRSYM    DATA     BYTE      P0
      000000F6H   SFRSYM    DATA     WORD      PI_UKMIN
      000000C7H   SFRSYM    DATA     BYTE      MDU_DA3
      00000088H.4 SFRSYM    DATA     BIT       IT11
      000000C9H   SFRSYM    DATA     BYTE      RST_SR
      000000D9H   SFRSYM    DATA     BYTE      EVT_FILT
      000000B0H.6 SFRSYM    DATA     BIT       GP36
      000000A0H.7 SFRSYM    DATA     BIT       GP27
      00000090H   SFRSYM    DATA     BYTE      P1
      000000B0H.7 SFRSYM    DATA     BIT       GP37
LX51 LINKER/LOCATER V4.66.100.0                                                       10/12/2023  14:31:55  PAGE 104


      000000A0H   SFRSYM    DATA     BYTE      P2
      000000F4H   SFRSYM    DATA     WORD      PI_UKMAX
      000000B0H   SFRSYM    DATA     BYTE      P3
      000000E8H   SFRSYM    DATA     BYTE      P4
      000000D0H.6 SFRSYM    DATA     BIT       AC
      000000A8H.7 SFRSYM    DATA     BIT       EA
      000000D5H   SFRSYM    DATA     BYTE      CMP_CR0
      000000D6H   SFRSYM    DATA     BYTE      CMP_CR1
      000000DAH   SFRSYM    DATA     BYTE      CMP_CR2
      000000B8H.2 SFRSYM    DATA     BIT       PX00
      000000DCH   SFRSYM    DATA     BYTE      CMP_CR3
      000000F8H.0 SFRSYM    DATA     BIT       OISUH
      000000EAH   SFRSYM    DATA     WORD      PI_EK
      000000B8H.3 SFRSYM    DATA     BIT       PX01
      000000B8H.4 SFRSYM    DATA     BIT       PX10
      000000F8H.2 SFRSYM    DATA     BIT       OISVH
      000000B8H.5 SFRSYM    DATA     BIT       PX11
      000000F8H.1 SFRSYM    DATA     BIT       OISUL
      000000DDH   SFRSYM    DATA     BYTE      LPF_K
      000000F2H   SFRSYM    DATA     WORD      PI_KI
      000000A8H   SFRSYM    DATA     BYTE      IE
      000000F8H.3 SFRSYM    DATA     BIT       OISVL
      000000EEH   SFRSYM    DATA     WORD      PI_KP
      000000AAH   SFRSYM    DATA     WORD      TIM2__CNTR
      000000A2H   SFRSYM    DATA     WORD      TIM3__CNTR
      00000092H   SFRSYM    DATA     WORD      TIM4__CNTR
      000000ECH   SFRSYM    DATA     WORD      PI_UK
      000000DEH   SFRSYM    DATA     WORD      LPF_X
      00000098H.0 SFRSYM    DATA     BIT       RI
      00000098H.6 SFRSYM    DATA     BIT       UT_MOD0
      000000E6H   SFRSYM    DATA     WORD      LPF_Y
      00000098H.7 SFRSYM    DATA     BIT       UT_MOD1
      000000D0H.7 SFRSYM    DATA     BIT       CY
      00000098H.1 SFRSYM    DATA     BIT       TI
      000000C0H.2 SFRSYM    DATA     BIT       PTIM10
      00000084H   SFRSYM    DATA     BYTE      FLA_KEY
      000000C0H.0 SFRSYM    DATA     BIT       PTIM20
      000000C0H.3 SFRSYM    DATA     BIT       PTIM11
      00000098H   SFRSYM    DATA     BYTE      UT_CR
      000000C8H.2 SFRSYM    DATA     BIT       PTIM30
      000000C0H.1 SFRSYM    DATA     BIT       PTIM21
      00000099H   SFRSYM    DATA     BYTE      UT_DR
      000000C8H.3 SFRSYM    DATA     BIT       PTIM31
      000000D0H.2 SFRSYM    DATA     BIT       OV
      0000009AH   SFRSYM    DATA     WORD      UT_BAUD
      000000C4H   SFRSYM    DATA     WORD      MDU_DA01
      000000CCH   SFRSYM    DATA     WORD      MDU_DB01
      00000087H   SFRSYM    DATA     BYTE      PCON
      000000C6H   SFRSYM    DATA     WORD      MDU_DA23
      00000088H   SFRSYM    DATA     BYTE      TCON
      00000082H   SFRSYM    DATA     WORD      DPTR
      000000D8H.0 SFRSYM    DATA     BIT       PUART0
      000000D8H.1 SFRSYM    DATA     BIT       PUART1
      000000D8H.2 SFRSYM    DATA     BIT       PI2C0
      00000088H.2 SFRSYM    DATA     BIT       IF0
      000000D8H.3 SFRSYM    DATA     BIT       PI2C1
      000000AEH   SFRSYM    DATA     WORD      TIM2__ARR
      000000A1H   SFRSYM    DATA     BYTE      TIM2_CR0
      000000A6H   SFRSYM    DATA     WORD      TIM3__ARR
      0000009CH   SFRSYM    DATA     BYTE      TIM3_CR0
      000000A9H   SFRSYM    DATA     BYTE      TIM2_CR1
      00000096H   SFRSYM    DATA     WORD      TIM4__ARR
      0000009EH   SFRSYM    DATA     BYTE      TIM4_CR0
      0000009DH   SFRSYM    DATA     BYTE      TIM3_CR1
      000000F8H   SFRSYM    DATA     BYTE      DRV_OUT
LX51 LINKER/LOCATER V4.66.100.0                                                       10/12/2023  14:31:55  PAGE 105


      0000009FH   SFRSYM    DATA     BYTE      TIM4_CR1
      000000DBH   SFRSYM    DATA     BYTE      LVSR
      000000A8H.4 SFRSYM    DATA     BIT       ES0
      00000085H   SFRSYM    DATA     BYTE      FLA_CR
      000000C0H.4 SFRSYM    DATA     BIT       PADC0
      000000B8H   SFRSYM    DATA     BYTE      IP0
      000000C0H.5 SFRSYM    DATA     BIT       PADC1
      000000C0H   SFRSYM    DATA     BYTE      IP1
      000000C8H   SFRSYM    DATA     BYTE      IP2
      00000098H.2 SFRSYM    DATA     BIT       RB8
      000000D8H   SFRSYM    DATA     BYTE      IP3
      000000A8H.0 SFRSYM    DATA     BIT       EX0
      00000098H.3 SFRSYM    DATA     BIT       TB8
      000000A8H.2 SFRSYM    DATA     BIT       EX1
      000000D0H.0 SFRSYM    DATA     BIT       P
      000000F9H   SFRSYM    DATA     BYTE      PI_LPF_CR
      00000098H.5 SFRSYM    DATA     BIT       SM2
      000000D8H.6 SFRSYM    DATA     BIT       PDMA0
      000000D8H.7 SFRSYM    DATA     BIT       PDMA1
      000000C2H   SFRSYM    DATA     WORD      MDU_MA
      000000D0H.3 SFRSYM    DATA     BIT       RS0
      000000CAH   SFRSYM    DATA     WORD      MDU_MB
      000000D0H.4 SFRSYM    DATA     BIT       RS1
      000000C1H   SFRSYM    DATA     BYTE      MDU_CR
      000000F8H.7 SFRSYM    DATA     BIT       MOE
      000000C0H.6 SFRSYM    DATA     BIT       PCMP0
      000000C0H.7 SFRSYM    DATA     BIT       PCMP1
      000000F8H.4 SFRSYM    DATA     BIT       OISWXH
      00000098H.4 SFRSYM    DATA     BIT       REN
      000000D7H   SFRSYM    DATA     BYTE      CMP_SR
      000000F8H.5 SFRSYM    DATA     BIT       OISWXL
      000000C8H.6 SFRSYM    DATA     BIT       PTSD0
      000000D8H.4 SFRSYM    DATA     BIT       PSPI0
      000000C8H.7 SFRSYM    DATA     BIT       PTSD1
      000000B8H.6 SFRSYM    DATA     BIT       PDRV0
      000000D8H.5 SFRSYM    DATA     BIT       PSPI1
      000000B8H.7 SFRSYM    DATA     BIT       PDRV1
      000000D1H   SFRSYM    DATA     BYTE      P1_IE
      000000D3H   SFRSYM    DATA     BYTE      P2_IE
      000000D2H   SFRSYM    DATA     BYTE      P1_IF
      000000D4H   SFRSYM    DATA     BYTE      P2_IF
      000000ACH   SFRSYM    DATA     WORD      TIM2__DR
      000000C8H.4 SFRSYM    DATA     BIT       PTIM4S0
      000000FCH   SFRSYM    DATA     BYTE      P0_OE
      000000A4H   SFRSYM    DATA     WORD      TIM3__DR
      000000C8H.5 SFRSYM    DATA     BIT       PTIM4S1
      000000FDH   SFRSYM    DATA     BYTE      P1_OE
      00000094H   SFRSYM    DATA     WORD      TIM4__DR
      000000D0H.5 SFRSYM    DATA     BIT       F0
      000000FEH   SFRSYM    DATA     BYTE      P2_OE
      000000D0H.1 SFRSYM    DATA     BIT       F1
      000000FFH   SFRSYM    DATA     BYTE      P3_OE
      00000080H.0 SFRSYM    DATA     BIT       GP00
      000000E9H   SFRSYM    DATA     BYTE      P4_OE
      00000090H.0 SFRSYM    DATA     BIT       GP10
      00000080H.1 SFRSYM    DATA     BIT       GP01
      000000A0H.0 SFRSYM    DATA     BIT       GP20
      00000090H.1 SFRSYM    DATA     BIT       GP11
      00000080H.2 SFRSYM    DATA     BIT       GP02
      000000B0H.0 SFRSYM    DATA     BIT       GP30
      000000A0H.1 SFRSYM    DATA     BIT       GP21
      00000090H.2 SFRSYM    DATA     BIT       GP12
      00000080H.3 SFRSYM    DATA     BIT       GP03
      000000B8H.0 SFRSYM    DATA     BIT       PLVW0
      000000A8H.1 SFRSYM    DATA     BIT       TSDIE
LX51 LINKER/LOCATER V4.66.100.0                                                       10/12/2023  14:31:55  PAGE 106


      000000D0H   SFRSYM    DATA     BYTE      PSW
      000000E8H.0 SFRSYM    DATA     BIT       GP40
      000000B0H.1 SFRSYM    DATA     BIT       GP31
      000000A0H.2 SFRSYM    DATA     BIT       GP22
      00000090H.3 SFRSYM    DATA     BIT       GP13
      00000080H.4 SFRSYM    DATA     BIT       GP04
      000000B8H.1 SFRSYM    DATA     BIT       PLVW1
      000000A8H.3 SFRSYM    DATA     BIT       SPIIE
      00000088H.5 SFRSYM    DATA     BIT       TSDIF
      000000E8H.1 SFRSYM    DATA     BIT       GP41
      000000B0H.2 SFRSYM    DATA     BIT       GP32
      000000A0H.3 SFRSYM    DATA     BIT       GP23
      00000090H.4 SFRSYM    DATA     BIT       GP14
      00000080H.5 SFRSYM    DATA     BIT       GP05
      000000C4H   SFRSYM    DATA     BYTE      MDU_DA0
      000000E8H.2 SFRSYM    DATA     BIT       GP42
      000000B0H.3 SFRSYM    DATA     BIT       GP33
      000000A0H.4 SFRSYM    DATA     BIT       GP24
      00000090H.5 SFRSYM    DATA     BIT       GP15
      00000080H.6 SFRSYM    DATA     BIT       GP06
      000000CCH   SFRSYM    DATA     BYTE      MDU_DB0
      000000C5H   SFRSYM    DATA     BYTE      MDU_DA1
      00000088H.0 SFRSYM    DATA     BIT       IT00

      ---         MODULE    ---      ---       RSDDETECT
      000000B0H.4 SFRSYM    DATA     BIT       GP34
      000000A0H.5 SFRSYM    DATA     BIT       GP25
      00000090H.6 SFRSYM    DATA     BIT       GP16
      00000080H.7 SFRSYM    DATA     BIT       GP07
      000000CDH   SFRSYM    DATA     BYTE      MDU_DB1
      000000C6H   SFRSYM    DATA     BYTE      MDU_DA2
      00000088H.1 SFRSYM    DATA     BIT       IT01
      00000088H.3 SFRSYM    DATA     BIT       IT10
      000000B0H.5 SFRSYM    DATA     BIT       GP35
      000000A0H.6 SFRSYM    DATA     BIT       GP26
      00000090H.7 SFRSYM    DATA     BIT       GP17
      00000080H   SFRSYM    DATA     BYTE      P0
      000000F6H   SFRSYM    DATA     WORD      PI_UKMIN
      000000C7H   SFRSYM    DATA     BYTE      MDU_DA3
      00000088H.4 SFRSYM    DATA     BIT       IT11
      000000C9H   SFRSYM    DATA     BYTE      RST_SR
      000000D9H   SFRSYM    DATA     BYTE      EVT_FILT
      000000B0H.6 SFRSYM    DATA     BIT       GP36
      000000A0H.7 SFRSYM    DATA     BIT       GP27
      00000090H   SFRSYM    DATA     BYTE      P1
      000000B0H.7 SFRSYM    DATA     BIT       GP37
      000000A0H   SFRSYM    DATA     BYTE      P2
      000000F4H   SFRSYM    DATA     WORD      PI_UKMAX
      000000B0H   SFRSYM    DATA     BYTE      P3
      000000E8H   SFRSYM    DATA     BYTE      P4
      000000D0H.6 SFRSYM    DATA     BIT       AC
      000000A8H.7 SFRSYM    DATA     BIT       EA
      000000D5H   SFRSYM    DATA     BYTE      CMP_CR0
      000000D6H   SFRSYM    DATA     BYTE      CMP_CR1
      000000DAH   SFRSYM    DATA     BYTE      CMP_CR2
      000000B8H.2 SFRSYM    DATA     BIT       PX00
      000000DCH   SFRSYM    DATA     BYTE      CMP_CR3
      000000F8H.0 SFRSYM    DATA     BIT       OISUH
      000000EAH   SFRSYM    DATA     WORD      PI_EK
      000000B8H.3 SFRSYM    DATA     BIT       PX01
      000000B8H.4 SFRSYM    DATA     BIT       PX10
      000000F8H.2 SFRSYM    DATA     BIT       OISVH
      000000B8H.5 SFRSYM    DATA     BIT       PX11
      000000F8H.1 SFRSYM    DATA     BIT       OISUL
      000000DDH   SFRSYM    DATA     BYTE      LPF_K
LX51 LINKER/LOCATER V4.66.100.0                                                       10/12/2023  14:31:55  PAGE 107


      000000F2H   SFRSYM    DATA     WORD      PI_KI
      000000A8H   SFRSYM    DATA     BYTE      IE
      000000F8H.3 SFRSYM    DATA     BIT       OISVL
      000000EEH   SFRSYM    DATA     WORD      PI_KP
      000000AAH   SFRSYM    DATA     WORD      TIM2__CNTR
      000000A2H   SFRSYM    DATA     WORD      TIM3__CNTR
      00000092H   SFRSYM    DATA     WORD      TIM4__CNTR
      000000ECH   SFRSYM    DATA     WORD      PI_UK
      000000DEH   SFRSYM    DATA     WORD      LPF_X
      00000098H.0 SFRSYM    DATA     BIT       RI
      00000098H.6 SFRSYM    DATA     BIT       UT_MOD0
      000000E6H   SFRSYM    DATA     WORD      LPF_Y
      00000098H.7 SFRSYM    DATA     BIT       UT_MOD1
      000000D0H.7 SFRSYM    DATA     BIT       CY
      00000098H.1 SFRSYM    DATA     BIT       TI
      000000C0H.2 SFRSYM    DATA     BIT       PTIM10
      00000084H   SFRSYM    DATA     BYTE      FLA_KEY
      000000C0H.0 SFRSYM    DATA     BIT       PTIM20
      000000C0H.3 SFRSYM    DATA     BIT       PTIM11
      00000098H   SFRSYM    DATA     BYTE      UT_CR
      000000C8H.2 SFRSYM    DATA     BIT       PTIM30
      000000C0H.1 SFRSYM    DATA     BIT       PTIM21
      00000099H   SFRSYM    DATA     BYTE      UT_DR
      000000C8H.3 SFRSYM    DATA     BIT       PTIM31
      000000D0H.2 SFRSYM    DATA     BIT       OV
      0000009AH   SFRSYM    DATA     WORD      UT_BAUD
      000000C4H   SFRSYM    DATA     WORD      MDU_DA01
      000000CCH   SFRSYM    DATA     WORD      MDU_DB01
      00000087H   SFRSYM    DATA     BYTE      PCON
      000000C6H   SFRSYM    DATA     WORD      MDU_DA23
      00000088H   SFRSYM    DATA     BYTE      TCON
      00000082H   SFRSYM    DATA     WORD      DPTR
      000000D8H.0 SFRSYM    DATA     BIT       PUART0
      000000D8H.1 SFRSYM    DATA     BIT       PUART1
      000000D8H.2 SFRSYM    DATA     BIT       PI2C0
      00000088H.2 SFRSYM    DATA     BIT       IF0
      000000D8H.3 SFRSYM    DATA     BIT       PI2C1
      000000AEH   SFRSYM    DATA     WORD      TIM2__ARR
      000000A1H   SFRSYM    DATA     BYTE      TIM2_CR0
      000000A6H   SFRSYM    DATA     WORD      TIM3__ARR
      0000009CH   SFRSYM    DATA     BYTE      TIM3_CR0
      000000A9H   SFRSYM    DATA     BYTE      TIM2_CR1
      00000096H   SFRSYM    DATA     WORD      TIM4__ARR
      0000009EH   SFRSYM    DATA     BYTE      TIM4_CR0
      0000009DH   SFRSYM    DATA     BYTE      TIM3_CR1
      000000F8H   SFRSYM    DATA     BYTE      DRV_OUT
      0000009FH   SFRSYM    DATA     BYTE      TIM4_CR1
      000000DBH   SFRSYM    DATA     BYTE      LVSR
      000000A8H.4 SFRSYM    DATA     BIT       ES0
      00000085H   SFRSYM    DATA     BYTE      FLA_CR
      000000C0H.4 SFRSYM    DATA     BIT       PADC0
      000000B8H   SFRSYM    DATA     BYTE      IP0
      000000C0H.5 SFRSYM    DATA     BIT       PADC1
      000000C0H   SFRSYM    DATA     BYTE      IP1
      000000C8H   SFRSYM    DATA     BYTE      IP2
      00000098H.2 SFRSYM    DATA     BIT       RB8
      000000D8H   SFRSYM    DATA     BYTE      IP3
      000000A8H.0 SFRSYM    DATA     BIT       EX0
      00000098H.3 SFRSYM    DATA     BIT       TB8
      000000A8H.2 SFRSYM    DATA     BIT       EX1
      000000D0H.0 SFRSYM    DATA     BIT       P
      000000F9H   SFRSYM    DATA     BYTE      PI_LPF_CR
      00000098H.5 SFRSYM    DATA     BIT       SM2
      000000D8H.6 SFRSYM    DATA     BIT       PDMA0
      000000D8H.7 SFRSYM    DATA     BIT       PDMA1
LX51 LINKER/LOCATER V4.66.100.0                                                       10/12/2023  14:31:55  PAGE 108


      000000C2H   SFRSYM    DATA     WORD      MDU_MA
      000000D0H.3 SFRSYM    DATA     BIT       RS0
      000000CAH   SFRSYM    DATA     WORD      MDU_MB
      000000D0H.4 SFRSYM    DATA     BIT       RS1
      000000C1H   SFRSYM    DATA     BYTE      MDU_CR
      000000F8H.7 SFRSYM    DATA     BIT       MOE
      000000C0H.6 SFRSYM    DATA     BIT       PCMP0
      000000C0H.7 SFRSYM    DATA     BIT       PCMP1
      000000F8H.4 SFRSYM    DATA     BIT       OISWXH
      00000098H.4 SFRSYM    DATA     BIT       REN
      000000D7H   SFRSYM    DATA     BYTE      CMP_SR
      000000F8H.5 SFRSYM    DATA     BIT       OISWXL
      000000C8H.6 SFRSYM    DATA     BIT       PTSD0
      000000D8H.4 SFRSYM    DATA     BIT       PSPI0
      000000C8H.7 SFRSYM    DATA     BIT       PTSD1
      000000B8H.6 SFRSYM    DATA     BIT       PDRV0
      000000D8H.5 SFRSYM    DATA     BIT       PSPI1
      000000B8H.7 SFRSYM    DATA     BIT       PDRV1
      000000D1H   SFRSYM    DATA     BYTE      P1_IE
      000000D3H   SFRSYM    DATA     BYTE      P2_IE
      000000D2H   SFRSYM    DATA     BYTE      P1_IF
      000000D4H   SFRSYM    DATA     BYTE      P2_IF
      000000ACH   SFRSYM    DATA     WORD      TIM2__DR
      000000C8H.4 SFRSYM    DATA     BIT       PTIM4S0
      000000FCH   SFRSYM    DATA     BYTE      P0_OE
      000000A4H   SFRSYM    DATA     WORD      TIM3__DR
      000000C8H.5 SFRSYM    DATA     BIT       PTIM4S1
      000000FDH   SFRSYM    DATA     BYTE      P1_OE
      00000094H   SFRSYM    DATA     WORD      TIM4__DR
      000000D0H.5 SFRSYM    DATA     BIT       F0
      000000FEH   SFRSYM    DATA     BYTE      P2_OE
      000000D0H.1 SFRSYM    DATA     BIT       F1
      000000FFH   SFRSYM    DATA     BYTE      P3_OE
      00000080H.0 SFRSYM    DATA     BIT       GP00
      000000E9H   SFRSYM    DATA     BYTE      P4_OE
      00000090H.0 SFRSYM    DATA     BIT       GP10
      00000080H.1 SFRSYM    DATA     BIT       GP01
      000000A0H.0 SFRSYM    DATA     BIT       GP20
      00000090H.1 SFRSYM    DATA     BIT       GP11
      00000080H.2 SFRSYM    DATA     BIT       GP02
      000000B0H.0 SFRSYM    DATA     BIT       GP30
      000000A0H.1 SFRSYM    DATA     BIT       GP21
      00000090H.2 SFRSYM    DATA     BIT       GP12
      00000080H.3 SFRSYM    DATA     BIT       GP03
      000000B8H.0 SFRSYM    DATA     BIT       PLVW0
      000000A8H.1 SFRSYM    DATA     BIT       TSDIE
      000000D0H   SFRSYM    DATA     BYTE      PSW
      000000E8H.0 SFRSYM    DATA     BIT       GP40
      000000B0H.1 SFRSYM    DATA     BIT       GP31
      000000A0H.2 SFRSYM    DATA     BIT       GP22
      00000090H.3 SFRSYM    DATA     BIT       GP13
      00000080H.4 SFRSYM    DATA     BIT       GP04
      000000B8H.1 SFRSYM    DATA     BIT       PLVW1
      000000A8H.3 SFRSYM    DATA     BIT       SPIIE
      00000088H.5 SFRSYM    DATA     BIT       TSDIF
      000000E8H.1 SFRSYM    DATA     BIT       GP41
      000000B0H.2 SFRSYM    DATA     BIT       GP32
      000000A0H.3 SFRSYM    DATA     BIT       GP23
      00000090H.4 SFRSYM    DATA     BIT       GP14
      00000080H.5 SFRSYM    DATA     BIT       GP05
      000000C4H   SFRSYM    DATA     BYTE      MDU_DA0
      000000E8H.2 SFRSYM    DATA     BIT       GP42
      000000B0H.3 SFRSYM    DATA     BIT       GP33
      000000A0H.4 SFRSYM    DATA     BIT       GP24
      00000090H.5 SFRSYM    DATA     BIT       GP15
LX51 LINKER/LOCATER V4.66.100.0                                                       10/12/2023  14:31:55  PAGE 109


      00000080H.6 SFRSYM    DATA     BIT       GP06
      000000CCH   SFRSYM    DATA     BYTE      MDU_DB0
      000000C5H   SFRSYM    DATA     BYTE      MDU_DA1
      00000088H.0 SFRSYM    DATA     BIT       IT00

      ---         MODULE    ---      ---       KEYSCAN
      0200022BH   PUBLIC    XDATA    ---       KS
      01002CF7H   PUBLIC    CODE     ---       KeyInit
      000000B0H.4 SFRSYM    DATA     BIT       GP34
      000000A0H.5 SFRSYM    DATA     BIT       GP25
      00000090H.6 SFRSYM    DATA     BIT       GP16
      00000080H.7 SFRSYM    DATA     BIT       GP07
      000000CDH   SFRSYM    DATA     BYTE      MDU_DB1
      000000C6H   SFRSYM    DATA     BYTE      MDU_DA2
      00000088H.1 SFRSYM    DATA     BIT       IT01
      00000088H.3 SFRSYM    DATA     BIT       IT10
      000000B0H.5 SFRSYM    DATA     BIT       GP35
      000000A0H.6 SFRSYM    DATA     BIT       GP26
      00000090H.7 SFRSYM    DATA     BIT       GP17
      00000080H   SFRSYM    DATA     BYTE      P0
      000000F6H   SFRSYM    DATA     WORD      PI_UKMIN
      000000C7H   SFRSYM    DATA     BYTE      MDU_DA3
      00000088H.4 SFRSYM    DATA     BIT       IT11
      000000C9H   SFRSYM    DATA     BYTE      RST_SR
      000000D9H   SFRSYM    DATA     BYTE      EVT_FILT
      000000B0H.6 SFRSYM    DATA     BIT       GP36
      000000A0H.7 SFRSYM    DATA     BIT       GP27
      00000090H   SFRSYM    DATA     BYTE      P1
      000000B0H.7 SFRSYM    DATA     BIT       GP37
      000000A0H   SFRSYM    DATA     BYTE      P2
      000000F4H   SFRSYM    DATA     WORD      PI_UKMAX
      000000B0H   SFRSYM    DATA     BYTE      P3
      000000E8H   SFRSYM    DATA     BYTE      P4
      000000D0H.6 SFRSYM    DATA     BIT       AC
      000000A8H.7 SFRSYM    DATA     BIT       EA
      000000D5H   SFRSYM    DATA     BYTE      CMP_CR0
      000000D6H   SFRSYM    DATA     BYTE      CMP_CR1
      000000DAH   SFRSYM    DATA     BYTE      CMP_CR2
      000000B8H.2 SFRSYM    DATA     BIT       PX00
      000000DCH   SFRSYM    DATA     BYTE      CMP_CR3
      000000F8H.0 SFRSYM    DATA     BIT       OISUH
      000000EAH   SFRSYM    DATA     WORD      PI_EK
      000000B8H.3 SFRSYM    DATA     BIT       PX01
      000000B8H.4 SFRSYM    DATA     BIT       PX10
      000000F8H.2 SFRSYM    DATA     BIT       OISVH
      000000B8H.5 SFRSYM    DATA     BIT       PX11
      000000F8H.1 SFRSYM    DATA     BIT       OISUL
      000000DDH   SFRSYM    DATA     BYTE      LPF_K
      000000F2H   SFRSYM    DATA     WORD      PI_KI
      000000A8H   SFRSYM    DATA     BYTE      IE
      000000F8H.3 SFRSYM    DATA     BIT       OISVL
      000000EEH   SFRSYM    DATA     WORD      PI_KP
      000000AAH   SFRSYM    DATA     WORD      TIM2__CNTR
      000000A2H   SFRSYM    DATA     WORD      TIM3__CNTR
      00000092H   SFRSYM    DATA     WORD      TIM4__CNTR
      000000ECH   SFRSYM    DATA     WORD      PI_UK
      000000DEH   SFRSYM    DATA     WORD      LPF_X
      00000098H.0 SFRSYM    DATA     BIT       RI
      00000098H.6 SFRSYM    DATA     BIT       UT_MOD0
      000000E6H   SFRSYM    DATA     WORD      LPF_Y
      00000098H.7 SFRSYM    DATA     BIT       UT_MOD1
      000000D0H.7 SFRSYM    DATA     BIT       CY
      00000098H.1 SFRSYM    DATA     BIT       TI
      000000C0H.2 SFRSYM    DATA     BIT       PTIM10
      00000084H   SFRSYM    DATA     BYTE      FLA_KEY
LX51 LINKER/LOCATER V4.66.100.0                                                       10/12/2023  14:31:55  PAGE 110


      000000C0H.0 SFRSYM    DATA     BIT       PTIM20
      000000C0H.3 SFRSYM    DATA     BIT       PTIM11
      00000098H   SFRSYM    DATA     BYTE      UT_CR
      000000C8H.2 SFRSYM    DATA     BIT       PTIM30
      000000C0H.1 SFRSYM    DATA     BIT       PTIM21
      00000099H   SFRSYM    DATA     BYTE      UT_DR
      000000C8H.3 SFRSYM    DATA     BIT       PTIM31
      000000D0H.2 SFRSYM    DATA     BIT       OV
      0000009AH   SFRSYM    DATA     WORD      UT_BAUD
      000000C4H   SFRSYM    DATA     WORD      MDU_DA01
      000000CCH   SFRSYM    DATA     WORD      MDU_DB01
      00000087H   SFRSYM    DATA     BYTE      PCON
      000000C6H   SFRSYM    DATA     WORD      MDU_DA23
      00000088H   SFRSYM    DATA     BYTE      TCON
      00000082H   SFRSYM    DATA     WORD      DPTR
      000000D8H.0 SFRSYM    DATA     BIT       PUART0
      000000D8H.1 SFRSYM    DATA     BIT       PUART1
      000000D8H.2 SFRSYM    DATA     BIT       PI2C0
      00000088H.2 SFRSYM    DATA     BIT       IF0
      000000D8H.3 SFRSYM    DATA     BIT       PI2C1
      000000AEH   SFRSYM    DATA     WORD      TIM2__ARR
      000000A1H   SFRSYM    DATA     BYTE      TIM2_CR0
      000000A6H   SFRSYM    DATA     WORD      TIM3__ARR
      0000009CH   SFRSYM    DATA     BYTE      TIM3_CR0
      000000A9H   SFRSYM    DATA     BYTE      TIM2_CR1
      00000096H   SFRSYM    DATA     WORD      TIM4__ARR
      0000009EH   SFRSYM    DATA     BYTE      TIM4_CR0
      0000009DH   SFRSYM    DATA     BYTE      TIM3_CR1
      000000F8H   SFRSYM    DATA     BYTE      DRV_OUT
      0000009FH   SFRSYM    DATA     BYTE      TIM4_CR1
      000000DBH   SFRSYM    DATA     BYTE      LVSR
      000000A8H.4 SFRSYM    DATA     BIT       ES0
      00000085H   SFRSYM    DATA     BYTE      FLA_CR
      000000C0H.4 SFRSYM    DATA     BIT       PADC0
      000000B8H   SFRSYM    DATA     BYTE      IP0
      000000C0H.5 SFRSYM    DATA     BIT       PADC1
      000000C0H   SFRSYM    DATA     BYTE      IP1
      000000C8H   SFRSYM    DATA     BYTE      IP2
      00000098H.2 SFRSYM    DATA     BIT       RB8
      000000D8H   SFRSYM    DATA     BYTE      IP3
      000000A8H.0 SFRSYM    DATA     BIT       EX0
      00000098H.3 SFRSYM    DATA     BIT       TB8
      000000A8H.2 SFRSYM    DATA     BIT       EX1
      000000D0H.0 SFRSYM    DATA     BIT       P
      000000F9H   SFRSYM    DATA     BYTE      PI_LPF_CR
      00000098H.5 SFRSYM    DATA     BIT       SM2
      000000D8H.6 SFRSYM    DATA     BIT       PDMA0
      000000D8H.7 SFRSYM    DATA     BIT       PDMA1
      000000C2H   SFRSYM    DATA     WORD      MDU_MA
      000000D0H.3 SFRSYM    DATA     BIT       RS0
      000000CAH   SFRSYM    DATA     WORD      MDU_MB
      000000D0H.4 SFRSYM    DATA     BIT       RS1
      000000C1H   SFRSYM    DATA     BYTE      MDU_CR
      000000F8H.7 SFRSYM    DATA     BIT       MOE
      000000C0H.6 SFRSYM    DATA     BIT       PCMP0
      000000C0H.7 SFRSYM    DATA     BIT       PCMP1
      000000F8H.4 SFRSYM    DATA     BIT       OISWXH
      00000098H.4 SFRSYM    DATA     BIT       REN
      000000D7H   SFRSYM    DATA     BYTE      CMP_SR
      000000F8H.5 SFRSYM    DATA     BIT       OISWXL
      000000C8H.6 SFRSYM    DATA     BIT       PTSD0
      000000D8H.4 SFRSYM    DATA     BIT       PSPI0
      000000C8H.7 SFRSYM    DATA     BIT       PTSD1
      000000B8H.6 SFRSYM    DATA     BIT       PDRV0
      000000D8H.5 SFRSYM    DATA     BIT       PSPI1
LX51 LINKER/LOCATER V4.66.100.0                                                       10/12/2023  14:31:55  PAGE 111


      000000B8H.7 SFRSYM    DATA     BIT       PDRV1
      000000D1H   SFRSYM    DATA     BYTE      P1_IE
      000000D3H   SFRSYM    DATA     BYTE      P2_IE
      000000D2H   SFRSYM    DATA     BYTE      P1_IF
      000000D4H   SFRSYM    DATA     BYTE      P2_IF
      000000ACH   SFRSYM    DATA     WORD      TIM2__DR
      000000C8H.4 SFRSYM    DATA     BIT       PTIM4S0
      000000FCH   SFRSYM    DATA     BYTE      P0_OE
      000000A4H   SFRSYM    DATA     WORD      TIM3__DR
      000000C8H.5 SFRSYM    DATA     BIT       PTIM4S1
      000000FDH   SFRSYM    DATA     BYTE      P1_OE
      00000094H   SFRSYM    DATA     WORD      TIM4__DR
      000000D0H.5 SFRSYM    DATA     BIT       F0
      000000FEH   SFRSYM    DATA     BYTE      P2_OE
      000000D0H.1 SFRSYM    DATA     BIT       F1
      000000FFH   SFRSYM    DATA     BYTE      P3_OE
      00000080H.0 SFRSYM    DATA     BIT       GP00
      000000E9H   SFRSYM    DATA     BYTE      P4_OE
      00000090H.0 SFRSYM    DATA     BIT       GP10
      00000080H.1 SFRSYM    DATA     BIT       GP01
      000000A0H.0 SFRSYM    DATA     BIT       GP20
      00000090H.1 SFRSYM    DATA     BIT       GP11
      00000080H.2 SFRSYM    DATA     BIT       GP02
      000000B0H.0 SFRSYM    DATA     BIT       GP30
      000000A0H.1 SFRSYM    DATA     BIT       GP21
      00000090H.2 SFRSYM    DATA     BIT       GP12
      00000080H.3 SFRSYM    DATA     BIT       GP03
      000000B8H.0 SFRSYM    DATA     BIT       PLVW0
      000000A8H.1 SFRSYM    DATA     BIT       TSDIE
      000000D0H   SFRSYM    DATA     BYTE      PSW
      000000E8H.0 SFRSYM    DATA     BIT       GP40
      000000B0H.1 SFRSYM    DATA     BIT       GP31
      000000A0H.2 SFRSYM    DATA     BIT       GP22
      00000090H.3 SFRSYM    DATA     BIT       GP13
      00000080H.4 SFRSYM    DATA     BIT       GP04
      000000B8H.1 SFRSYM    DATA     BIT       PLVW1
      000000A8H.3 SFRSYM    DATA     BIT       SPIIE
      00000088H.5 SFRSYM    DATA     BIT       TSDIF
      000000E8H.1 SFRSYM    DATA     BIT       GP41
      000000B0H.2 SFRSYM    DATA     BIT       GP32
      000000A0H.3 SFRSYM    DATA     BIT       GP23
      00000090H.4 SFRSYM    DATA     BIT       GP14
      00000080H.5 SFRSYM    DATA     BIT       GP05
      000000C4H   SFRSYM    DATA     BYTE      MDU_DA0
      000000E8H.2 SFRSYM    DATA     BIT       GP42
      000000B0H.3 SFRSYM    DATA     BIT       GP33
      000000A0H.4 SFRSYM    DATA     BIT       GP24
      00000090H.5 SFRSYM    DATA     BIT       GP15
      00000080H.6 SFRSYM    DATA     BIT       GP06
      000000CCH   SFRSYM    DATA     BYTE      MDU_DB0
      000000C5H   SFRSYM    DATA     BYTE      MDU_DA1
      00000088H.0 SFRSYM    DATA     BIT       IT00

      01002CF7H   BLOCK     CODE     ---       LVL=0
      01002CF7H   LINE      CODE     ---       #25
      01002CF7H   LINE      CODE     ---       #26
      01002CF7H   LINE      CODE     ---       #27
      01002D06H   LINE      CODE     ---       #29
      01002D0BH   LINE      CODE     ---       #30
      01002D16H   LINE      CODE     ---       #32
      01002D51H   LINE      CODE     ---       #35
      01002D51H   LINE      CODE     ---       #36
      01002D59H   LINE      CODE     ---       #37
      01002D5FH   LINE      CODE     ---       #38
      01002D69H   LINE      CODE     ---       #39
LX51 LINKER/LOCATER V4.66.100.0                                                       10/12/2023  14:31:55  PAGE 112


      01002D6CH   LINE      CODE     ---       #40
      01002D6DH   LINE      CODE     ---       #42
      01002D6DH   LINE      CODE     ---       #43
      01002D73H   LINE      CODE     ---       #44
      01002D77H   LINE      CODE     ---       #45
      01002D7AH   LINE      CODE     ---       #46
      01002D88H   LINE      CODE     ---       #47
      01002D8AH   LINE      CODE     ---       #48
      01002D8AH   LINE      CODE     ---       #49
      ---         BLOCKEND  ---      ---       LVL=0

      ---         MODULE    ---      ---       LED
      00000021H.6 PUBLIC    BIT      BIT       LH_Gear
      020002C0H   PUBLIC    XDATA    WORD      KeyCount_Dd1
      020002BEH   PUBLIC    XDATA    WORD      KeyCount_Up
      020002BCH   PUBLIC    XDATA    WORD      KeyCount_Dd
      020002BAH   PUBLIC    XDATA    WORD      KeyCount_Long
      000000B0H.4 SFRSYM    DATA     BIT       GP34
      000000A0H.5 SFRSYM    DATA     BIT       GP25
      00000090H.6 SFRSYM    DATA     BIT       GP16
      00000080H.7 SFRSYM    DATA     BIT       GP07
      000000CDH   SFRSYM    DATA     BYTE      MDU_DB1
      000000C6H   SFRSYM    DATA     BYTE      MDU_DA2
      00000088H.1 SFRSYM    DATA     BIT       IT01
      00000088H.3 SFRSYM    DATA     BIT       IT10
      000000B0H.5 SFRSYM    DATA     BIT       GP35
      000000A0H.6 SFRSYM    DATA     BIT       GP26
      00000090H.7 SFRSYM    DATA     BIT       GP17
      00000080H   SFRSYM    DATA     BYTE      P0
      000000F6H   SFRSYM    DATA     WORD      PI_UKMIN
      000000C7H   SFRSYM    DATA     BYTE      MDU_DA3
      00000088H.4 SFRSYM    DATA     BIT       IT11
      000000C9H   SFRSYM    DATA     BYTE      RST_SR
      000000D9H   SFRSYM    DATA     BYTE      EVT_FILT
      000000B0H.6 SFRSYM    DATA     BIT       GP36
      000000A0H.7 SFRSYM    DATA     BIT       GP27
      00000090H   SFRSYM    DATA     BYTE      P1
      000000B0H.7 SFRSYM    DATA     BIT       GP37
      000000A0H   SFRSYM    DATA     BYTE      P2
      000000F4H   SFRSYM    DATA     WORD      PI_UKMAX
      000000B0H   SFRSYM    DATA     BYTE      P3
      000000E8H   SFRSYM    DATA     BYTE      P4
      000000D0H.6 SFRSYM    DATA     BIT       AC
      000000A8H.7 SFRSYM    DATA     BIT       EA
      000000D5H   SFRSYM    DATA     BYTE      CMP_CR0
      000000D6H   SFRSYM    DATA     BYTE      CMP_CR1
      000000DAH   SFRSYM    DATA     BYTE      CMP_CR2
      000000B8H.2 SFRSYM    DATA     BIT       PX00
      000000DCH   SFRSYM    DATA     BYTE      CMP_CR3
      000000F8H.0 SFRSYM    DATA     BIT       OISUH
      000000EAH   SFRSYM    DATA     WORD      PI_EK
      000000B8H.3 SFRSYM    DATA     BIT       PX01
      000000B8H.4 SFRSYM    DATA     BIT       PX10
      000000F8H.2 SFRSYM    DATA     BIT       OISVH
      000000B8H.5 SFRSYM    DATA     BIT       PX11
      000000F8H.1 SFRSYM    DATA     BIT       OISUL
      000000DDH   SFRSYM    DATA     BYTE      LPF_K
      000000F2H   SFRSYM    DATA     WORD      PI_KI
      000000A8H   SFRSYM    DATA     BYTE      IE
      000000F8H.3 SFRSYM    DATA     BIT       OISVL
      000000EEH   SFRSYM    DATA     WORD      PI_KP
      000000AAH   SFRSYM    DATA     WORD      TIM2__CNTR
      000000A2H   SFRSYM    DATA     WORD      TIM3__CNTR
      00000092H   SFRSYM    DATA     WORD      TIM4__CNTR
      000000ECH   SFRSYM    DATA     WORD      PI_UK
LX51 LINKER/LOCATER V4.66.100.0                                                       10/12/2023  14:31:55  PAGE 113


      000000DEH   SFRSYM    DATA     WORD      LPF_X
      00000098H.0 SFRSYM    DATA     BIT       RI
      00000098H.6 SFRSYM    DATA     BIT       UT_MOD0
      000000E6H   SFRSYM    DATA     WORD      LPF_Y
      00000098H.7 SFRSYM    DATA     BIT       UT_MOD1
      000000D0H.7 SFRSYM    DATA     BIT       CY
      00000098H.1 SFRSYM    DATA     BIT       TI
      000000C0H.2 SFRSYM    DATA     BIT       PTIM10
      00000084H   SFRSYM    DATA     BYTE      FLA_KEY
      000000C0H.0 SFRSYM    DATA     BIT       PTIM20
      000000C0H.3 SFRSYM    DATA     BIT       PTIM11
      00000098H   SFRSYM    DATA     BYTE      UT_CR
      000000C8H.2 SFRSYM    DATA     BIT       PTIM30
      000000C0H.1 SFRSYM    DATA     BIT       PTIM21
      00000099H   SFRSYM    DATA     BYTE      UT_DR
      000000C8H.3 SFRSYM    DATA     BIT       PTIM31
      000000D0H.2 SFRSYM    DATA     BIT       OV
      0000009AH   SFRSYM    DATA     WORD      UT_BAUD
      000000C4H   SFRSYM    DATA     WORD      MDU_DA01
      000000CCH   SFRSYM    DATA     WORD      MDU_DB01
      00000087H   SFRSYM    DATA     BYTE      PCON
      000000C6H   SFRSYM    DATA     WORD      MDU_DA23
      00000088H   SFRSYM    DATA     BYTE      TCON
      00000082H   SFRSYM    DATA     WORD      DPTR
      000000D8H.0 SFRSYM    DATA     BIT       PUART0
      000000D8H.1 SFRSYM    DATA     BIT       PUART1
      000000D8H.2 SFRSYM    DATA     BIT       PI2C0
      00000088H.2 SFRSYM    DATA     BIT       IF0
      000000D8H.3 SFRSYM    DATA     BIT       PI2C1
      000000AEH   SFRSYM    DATA     WORD      TIM2__ARR
      000000A1H   SFRSYM    DATA     BYTE      TIM2_CR0
      000000A6H   SFRSYM    DATA     WORD      TIM3__ARR
      0000009CH   SFRSYM    DATA     BYTE      TIM3_CR0
      000000A9H   SFRSYM    DATA     BYTE      TIM2_CR1
      00000096H   SFRSYM    DATA     WORD      TIM4__ARR
      0000009EH   SFRSYM    DATA     BYTE      TIM4_CR0
      0000009DH   SFRSYM    DATA     BYTE      TIM3_CR1
      000000F8H   SFRSYM    DATA     BYTE      DRV_OUT
      0000009FH   SFRSYM    DATA     BYTE      TIM4_CR1
      000000DBH   SFRSYM    DATA     BYTE      LVSR
      000000A8H.4 SFRSYM    DATA     BIT       ES0
      00000085H   SFRSYM    DATA     BYTE      FLA_CR
      000000C0H.4 SFRSYM    DATA     BIT       PADC0
      000000B8H   SFRSYM    DATA     BYTE      IP0
      000000C0H.5 SFRSYM    DATA     BIT       PADC1
      000000C0H   SFRSYM    DATA     BYTE      IP1
      000000C8H   SFRSYM    DATA     BYTE      IP2
      00000098H.2 SFRSYM    DATA     BIT       RB8
      000000D8H   SFRSYM    DATA     BYTE      IP3
      000000A8H.0 SFRSYM    DATA     BIT       EX0
      00000098H.3 SFRSYM    DATA     BIT       TB8
      000000A8H.2 SFRSYM    DATA     BIT       EX1
      000000D0H.0 SFRSYM    DATA     BIT       P
      000000F9H   SFRSYM    DATA     BYTE      PI_LPF_CR
      00000098H.5 SFRSYM    DATA     BIT       SM2
      000000D8H.6 SFRSYM    DATA     BIT       PDMA0
      000000D8H.7 SFRSYM    DATA     BIT       PDMA1
      000000C2H   SFRSYM    DATA     WORD      MDU_MA
      000000D0H.3 SFRSYM    DATA     BIT       RS0
      000000CAH   SFRSYM    DATA     WORD      MDU_MB
      000000D0H.4 SFRSYM    DATA     BIT       RS1
      000000C1H   SFRSYM    DATA     BYTE      MDU_CR
      000000F8H.7 SFRSYM    DATA     BIT       MOE
      000000C0H.6 SFRSYM    DATA     BIT       PCMP0
      000000C0H.7 SFRSYM    DATA     BIT       PCMP1
LX51 LINKER/LOCATER V4.66.100.0                                                       10/12/2023  14:31:55  PAGE 114


      000000F8H.4 SFRSYM    DATA     BIT       OISWXH
      00000098H.4 SFRSYM    DATA     BIT       REN
      000000D7H   SFRSYM    DATA     BYTE      CMP_SR
      000000F8H.5 SFRSYM    DATA     BIT       OISWXL
      000000C8H.6 SFRSYM    DATA     BIT       PTSD0
      000000D8H.4 SFRSYM    DATA     BIT       PSPI0
      000000C8H.7 SFRSYM    DATA     BIT       PTSD1
      000000B8H.6 SFRSYM    DATA     BIT       PDRV0
      000000D8H.5 SFRSYM    DATA     BIT       PSPI1
      000000B8H.7 SFRSYM    DATA     BIT       PDRV1
      000000D1H   SFRSYM    DATA     BYTE      P1_IE
      000000D3H   SFRSYM    DATA     BYTE      P2_IE
      000000D2H   SFRSYM    DATA     BYTE      P1_IF
      000000D4H   SFRSYM    DATA     BYTE      P2_IF
      000000ACH   SFRSYM    DATA     WORD      TIM2__DR
      000000C8H.4 SFRSYM    DATA     BIT       PTIM4S0
      000000FCH   SFRSYM    DATA     BYTE      P0_OE
      000000A4H   SFRSYM    DATA     WORD      TIM3__DR
      000000C8H.5 SFRSYM    DATA     BIT       PTIM4S1
      000000FDH   SFRSYM    DATA     BYTE      P1_OE
      00000094H   SFRSYM    DATA     WORD      TIM4__DR
      000000D0H.5 SFRSYM    DATA     BIT       F0
      000000FEH   SFRSYM    DATA     BYTE      P2_OE
      000000D0H.1 SFRSYM    DATA     BIT       F1
      000000FFH   SFRSYM    DATA     BYTE      P3_OE
      00000080H.0 SFRSYM    DATA     BIT       GP00
      000000E9H   SFRSYM    DATA     BYTE      P4_OE
      00000090H.0 SFRSYM    DATA     BIT       GP10
      00000080H.1 SFRSYM    DATA     BIT       GP01
      000000A0H.0 SFRSYM    DATA     BIT       GP20
      00000090H.1 SFRSYM    DATA     BIT       GP11
      00000080H.2 SFRSYM    DATA     BIT       GP02
      000000B0H.0 SFRSYM    DATA     BIT       GP30
      000000A0H.1 SFRSYM    DATA     BIT       GP21
      00000090H.2 SFRSYM    DATA     BIT       GP12
      00000080H.3 SFRSYM    DATA     BIT       GP03
      000000B8H.0 SFRSYM    DATA     BIT       PLVW0
      000000A8H.1 SFRSYM    DATA     BIT       TSDIE
      000000D0H   SFRSYM    DATA     BYTE      PSW
      000000E8H.0 SFRSYM    DATA     BIT       GP40
      000000B0H.1 SFRSYM    DATA     BIT       GP31
      000000A0H.2 SFRSYM    DATA     BIT       GP22
      00000090H.3 SFRSYM    DATA     BIT       GP13
      00000080H.4 SFRSYM    DATA     BIT       GP04
      000000B8H.1 SFRSYM    DATA     BIT       PLVW1
      000000A8H.3 SFRSYM    DATA     BIT       SPIIE
      00000088H.5 SFRSYM    DATA     BIT       TSDIF
      000000E8H.1 SFRSYM    DATA     BIT       GP41
      000000B0H.2 SFRSYM    DATA     BIT       GP32
      000000A0H.3 SFRSYM    DATA     BIT       GP23
      00000090H.4 SFRSYM    DATA     BIT       GP14
      00000080H.5 SFRSYM    DATA     BIT       GP05
      000000C4H   SFRSYM    DATA     BYTE      MDU_DA0
      000000E8H.2 SFRSYM    DATA     BIT       GP42
      000000B0H.3 SFRSYM    DATA     BIT       GP33
      000000A0H.4 SFRSYM    DATA     BIT       GP24
      00000090H.5 SFRSYM    DATA     BIT       GP15
      00000080H.6 SFRSYM    DATA     BIT       GP06
      000000CCH   SFRSYM    DATA     BYTE      MDU_DB0
      000000C5H   SFRSYM    DATA     BYTE      MDU_DA1
      00000088H.0 SFRSYM    DATA     BIT       IT00

      ---         MODULE    ---      ---       FLASH
      020002C8H   PUBLIC    XDATA    ---       Rom
      0000000AH   PUBLIC    IDATA    BYTE      FLASHUsingStatus
LX51 LINKER/LOCATER V4.66.100.0                                                       10/12/2023  14:31:55  PAGE 115


      0100352BH   PUBLIC    CODE     ---       _Get1ByteFromFlash
      000000B0H.4 SFRSYM    DATA     BIT       GP34
      000000A0H.5 SFRSYM    DATA     BIT       GP25
      00000090H.6 SFRSYM    DATA     BIT       GP16
      00000080H.7 SFRSYM    DATA     BIT       GP07
      000000CDH   SFRSYM    DATA     BYTE      MDU_DB1
      000000C6H   SFRSYM    DATA     BYTE      MDU_DA2
      00000088H.1 SFRSYM    DATA     BIT       IT01
      00000088H.3 SFRSYM    DATA     BIT       IT10
      000000B0H.5 SFRSYM    DATA     BIT       GP35
      000000A0H.6 SFRSYM    DATA     BIT       GP26
      00000090H.7 SFRSYM    DATA     BIT       GP17
      00000080H   SFRSYM    DATA     BYTE      P0
      000000F6H   SFRSYM    DATA     WORD      PI_UKMIN
      000000C7H   SFRSYM    DATA     BYTE      MDU_DA3
      00000088H.4 SFRSYM    DATA     BIT       IT11
      000000C9H   SFRSYM    DATA     BYTE      RST_SR
      000000D9H   SFRSYM    DATA     BYTE      EVT_FILT
      000000B0H.6 SFRSYM    DATA     BIT       GP36
      000000A0H.7 SFRSYM    DATA     BIT       GP27
      00000090H   SFRSYM    DATA     BYTE      P1
      000000B0H.7 SFRSYM    DATA     BIT       GP37
      000000A0H   SFRSYM    DATA     BYTE      P2
      000000F4H   SFRSYM    DATA     WORD      PI_UKMAX
      000000B0H   SFRSYM    DATA     BYTE      P3
      000000E8H   SFRSYM    DATA     BYTE      P4
      000000D0H.6 SFRSYM    DATA     BIT       AC
      000000A8H.7 SFRSYM    DATA     BIT       EA
      000000D5H   SFRSYM    DATA     BYTE      CMP_CR0
      000000D6H   SFRSYM    DATA     BYTE      CMP_CR1
      000000DAH   SFRSYM    DATA     BYTE      CMP_CR2
      000000B8H.2 SFRSYM    DATA     BIT       PX00
      000000DCH   SFRSYM    DATA     BYTE      CMP_CR3
      000000F8H.0 SFRSYM    DATA     BIT       OISUH
      000000EAH   SFRSYM    DATA     WORD      PI_EK
      000000B8H.3 SFRSYM    DATA     BIT       PX01
      000000B8H.4 SFRSYM    DATA     BIT       PX10
      000000F8H.2 SFRSYM    DATA     BIT       OISVH
      000000B8H.5 SFRSYM    DATA     BIT       PX11
      000000F8H.1 SFRSYM    DATA     BIT       OISUL
      000000DDH   SFRSYM    DATA     BYTE      LPF_K
      000000F2H   SFRSYM    DATA     WORD      PI_KI
      000000A8H   SFRSYM    DATA     BYTE      IE
      000000F8H.3 SFRSYM    DATA     BIT       OISVL
      000000EEH   SFRSYM    DATA     WORD      PI_KP
      000000AAH   SFRSYM    DATA     WORD      TIM2__CNTR
      000000A2H   SFRSYM    DATA     WORD      TIM3__CNTR
      00000092H   SFRSYM    DATA     WORD      TIM4__CNTR
      000000ECH   SFRSYM    DATA     WORD      PI_UK
      000000DEH   SFRSYM    DATA     WORD      LPF_X
      00000098H.0 SFRSYM    DATA     BIT       RI
      00000098H.6 SFRSYM    DATA     BIT       UT_MOD0
      000000E6H   SFRSYM    DATA     WORD      LPF_Y
      00000098H.7 SFRSYM    DATA     BIT       UT_MOD1
      000000D0H.7 SFRSYM    DATA     BIT       CY
      00000098H.1 SFRSYM    DATA     BIT       TI
      000000C0H.2 SFRSYM    DATA     BIT       PTIM10
      00000084H   SFRSYM    DATA     BYTE      FLA_KEY
      000000C0H.0 SFRSYM    DATA     BIT       PTIM20
      000000C0H.3 SFRSYM    DATA     BIT       PTIM11
      00000098H   SFRSYM    DATA     BYTE      UT_CR
      000000C8H.2 SFRSYM    DATA     BIT       PTIM30
      000000C0H.1 SFRSYM    DATA     BIT       PTIM21
      00000099H   SFRSYM    DATA     BYTE      UT_DR
      000000C8H.3 SFRSYM    DATA     BIT       PTIM31
LX51 LINKER/LOCATER V4.66.100.0                                                       10/12/2023  14:31:55  PAGE 116


      000000D0H.2 SFRSYM    DATA     BIT       OV
      0000009AH   SFRSYM    DATA     WORD      UT_BAUD
      000000C4H   SFRSYM    DATA     WORD      MDU_DA01
      000000CCH   SFRSYM    DATA     WORD      MDU_DB01
      00000087H   SFRSYM    DATA     BYTE      PCON
      000000C6H   SFRSYM    DATA     WORD      MDU_DA23
      00000088H   SFRSYM    DATA     BYTE      TCON
      00000082H   SFRSYM    DATA     WORD      DPTR
      000000D8H.0 SFRSYM    DATA     BIT       PUART0
      000000D8H.1 SFRSYM    DATA     BIT       PUART1
      000000D8H.2 SFRSYM    DATA     BIT       PI2C0
      00000088H.2 SFRSYM    DATA     BIT       IF0
      000000D8H.3 SFRSYM    DATA     BIT       PI2C1
      000000AEH   SFRSYM    DATA     WORD      TIM2__ARR
      000000A1H   SFRSYM    DATA     BYTE      TIM2_CR0
      000000A6H   SFRSYM    DATA     WORD      TIM3__ARR
      0000009CH   SFRSYM    DATA     BYTE      TIM3_CR0
      000000A9H   SFRSYM    DATA     BYTE      TIM2_CR1
      00000096H   SFRSYM    DATA     WORD      TIM4__ARR
      0000009EH   SFRSYM    DATA     BYTE      TIM4_CR0
      0000009DH   SFRSYM    DATA     BYTE      TIM3_CR1
      000000F8H   SFRSYM    DATA     BYTE      DRV_OUT
      0000009FH   SFRSYM    DATA     BYTE      TIM4_CR1
      000000DBH   SFRSYM    DATA     BYTE      LVSR
      000000A8H.4 SFRSYM    DATA     BIT       ES0
      00000085H   SFRSYM    DATA     BYTE      FLA_CR
      000000C0H.4 SFRSYM    DATA     BIT       PADC0
      000000B8H   SFRSYM    DATA     BYTE      IP0
      000000C0H.5 SFRSYM    DATA     BIT       PADC1
      000000C0H   SFRSYM    DATA     BYTE      IP1
      000000C8H   SFRSYM    DATA     BYTE      IP2
      00000098H.2 SFRSYM    DATA     BIT       RB8
      000000D8H   SFRSYM    DATA     BYTE      IP3
      000000A8H.0 SFRSYM    DATA     BIT       EX0
      00000098H.3 SFRSYM    DATA     BIT       TB8
      000000A8H.2 SFRSYM    DATA     BIT       EX1
      000000D0H.0 SFRSYM    DATA     BIT       P
      000000F9H   SFRSYM    DATA     BYTE      PI_LPF_CR
      00000098H.5 SFRSYM    DATA     BIT       SM2
      000000D8H.6 SFRSYM    DATA     BIT       PDMA0
      000000D8H.7 SFRSYM    DATA     BIT       PDMA1
      000000C2H   SFRSYM    DATA     WORD      MDU_MA
      000000D0H.3 SFRSYM    DATA     BIT       RS0
      000000CAH   SFRSYM    DATA     WORD      MDU_MB
      000000D0H.4 SFRSYM    DATA     BIT       RS1
      000000C1H   SFRSYM    DATA     BYTE      MDU_CR
      000000F8H.7 SFRSYM    DATA     BIT       MOE
      000000C0H.6 SFRSYM    DATA     BIT       PCMP0
      000000C0H.7 SFRSYM    DATA     BIT       PCMP1
      000000F8H.4 SFRSYM    DATA     BIT       OISWXH
      00000098H.4 SFRSYM    DATA     BIT       REN
      000000D7H   SFRSYM    DATA     BYTE      CMP_SR
      000000F8H.5 SFRSYM    DATA     BIT       OISWXL
      000000C8H.6 SFRSYM    DATA     BIT       PTSD0
      000000D8H.4 SFRSYM    DATA     BIT       PSPI0
      000000C8H.7 SFRSYM    DATA     BIT       PTSD1
      000000B8H.6 SFRSYM    DATA     BIT       PDRV0
      000000D8H.5 SFRSYM    DATA     BIT       PSPI1
      000000B8H.7 SFRSYM    DATA     BIT       PDRV1
      000000D1H   SFRSYM    DATA     BYTE      P1_IE
      000000D3H   SFRSYM    DATA     BYTE      P2_IE
      000000D2H   SFRSYM    DATA     BYTE      P1_IF
      000000D4H   SFRSYM    DATA     BYTE      P2_IF
      000000ACH   SFRSYM    DATA     WORD      TIM2__DR
      000000C8H.4 SFRSYM    DATA     BIT       PTIM4S0
LX51 LINKER/LOCATER V4.66.100.0                                                       10/12/2023  14:31:55  PAGE 117


      000000FCH   SFRSYM    DATA     BYTE      P0_OE
      000000A4H   SFRSYM    DATA     WORD      TIM3__DR
      000000C8H.5 SFRSYM    DATA     BIT       PTIM4S1
      000000FDH   SFRSYM    DATA     BYTE      P1_OE
      00000094H   SFRSYM    DATA     WORD      TIM4__DR
      000000D0H.5 SFRSYM    DATA     BIT       F0
      000000FEH   SFRSYM    DATA     BYTE      P2_OE
      000000D0H.1 SFRSYM    DATA     BIT       F1
      000000FFH   SFRSYM    DATA     BYTE      P3_OE
      00000080H.0 SFRSYM    DATA     BIT       GP00
      000000E9H   SFRSYM    DATA     BYTE      P4_OE
      00000090H.0 SFRSYM    DATA     BIT       GP10
      00000080H.1 SFRSYM    DATA     BIT       GP01
      000000A0H.0 SFRSYM    DATA     BIT       GP20
      00000090H.1 SFRSYM    DATA     BIT       GP11
      00000080H.2 SFRSYM    DATA     BIT       GP02
      000000B0H.0 SFRSYM    DATA     BIT       GP30
      000000A0H.1 SFRSYM    DATA     BIT       GP21
      00000090H.2 SFRSYM    DATA     BIT       GP12
      00000080H.3 SFRSYM    DATA     BIT       GP03
      000000B8H.0 SFRSYM    DATA     BIT       PLVW0
      000000A8H.1 SFRSYM    DATA     BIT       TSDIE
      000000D0H   SFRSYM    DATA     BYTE      PSW
      000000E8H.0 SFRSYM    DATA     BIT       GP40
      000000B0H.1 SFRSYM    DATA     BIT       GP31
      000000A0H.2 SFRSYM    DATA     BIT       GP22
      00000090H.3 SFRSYM    DATA     BIT       GP13
      00000080H.4 SFRSYM    DATA     BIT       GP04
      000000B8H.1 SFRSYM    DATA     BIT       PLVW1
      000000A8H.3 SFRSYM    DATA     BIT       SPIIE
      00000088H.5 SFRSYM    DATA     BIT       TSDIF
      000000E8H.1 SFRSYM    DATA     BIT       GP41
      000000B0H.2 SFRSYM    DATA     BIT       GP32
      000000A0H.3 SFRSYM    DATA     BIT       GP23
      00000090H.4 SFRSYM    DATA     BIT       GP14
      00000080H.5 SFRSYM    DATA     BIT       GP05
      000000C4H   SFRSYM    DATA     BYTE      MDU_DA0
      000000E8H.2 SFRSYM    DATA     BIT       GP42
      000000B0H.3 SFRSYM    DATA     BIT       GP33
      000000A0H.4 SFRSYM    DATA     BIT       GP24
      00000090H.5 SFRSYM    DATA     BIT       GP15
      00000080H.6 SFRSYM    DATA     BIT       GP06
      000000CCH   SFRSYM    DATA     BYTE      MDU_DB0
      000000C5H   SFRSYM    DATA     BYTE      MDU_DA1
      00000088H.0 SFRSYM    DATA     BIT       IT00
      00000006H   SYMBOL    DATA     ---       BlockStartAddr
      00000004H   SYMBOL    DATA     WORD      NewData2Flash
      00000006H   SYMBOL    DATA     ---       BlockStartAddr
      00000005H   SYMBOL    DATA     BYTE      NewData2Flash
      00000005H   SYMBOL    DATA     BYTE      tempofFlashData

      0100352BH   BLOCK     CODE     ---       LVL=0
      00000006H   SYMBOL    DATA     ---       BlockStartAddr
      0100352BH   BLOCK     CODE     NEAR LAB  LVL=1
      00000004H   SYMBOL    DATA     ---       FlashStartAddr
      00000007H   SYMBOL    DATA     BYTE      i
      00000006H   SYMBOL    DATA     BYTE      tempofFlashData
      ---         BLOCKEND  ---      ---       LVL=1
      0100352BH   LINE      CODE     ---       #110
      0100352BH   LINE      CODE     ---       #111
      0100352BH   LINE      CODE     ---       #112
      0100352FH   LINE      CODE     ---       #116
      01003537H   LINE      CODE     ---       #117
      01003537H   LINE      CODE     ---       #118
      01003543H   LINE      CODE     ---       #119
LX51 LINKER/LOCATER V4.66.100.0                                                       10/12/2023  14:31:55  PAGE 118


      01003545H   LINE      CODE     ---       #120
      01003545H   LINE      CODE     ---       #121
      01003548H   LINE      CODE     ---       #122
      01003548H   LINE      CODE     ---       #123
      0100355BH   LINE      CODE     ---       #124
      0100355DH   LINE      CODE     ---       #125
      0100355DH   LINE      CODE     ---       #127
      0100355DH   LINE      CODE     ---       #128
      01003560H   LINE      CODE     ---       #129
      01003560H   LINE      CODE     ---       #130
      01003560H   LINE      CODE     ---       #132
      01003560H   LINE      CODE     ---       #133
      01003564H   LINE      CODE     ---       #134
      01003564H   LINE      CODE     ---       #135
      01003567H   LINE      CODE     ---       #136
      01003567H   LINE      CODE     ---       #137
      01003567H   LINE      CODE     ---       #138
      0100356AH   LINE      CODE     ---       #139
      0100356CH   LINE      CODE     ---       #140
      ---         BLOCKEND  ---      ---       LVL=0

      ---         MODULE    ---      ---       AMPINIT
      010038D4H   PUBLIC    CODE     ---       AMP_Init
      000000B0H.4 SFRSYM    DATA     BIT       GP34
      000000A0H.5 SFRSYM    DATA     BIT       GP25
      00000090H.6 SFRSYM    DATA     BIT       GP16
      00000080H.7 SFRSYM    DATA     BIT       GP07
      000000CDH   SFRSYM    DATA     BYTE      MDU_DB1
      000000C6H   SFRSYM    DATA     BYTE      MDU_DA2
      00000088H.1 SFRSYM    DATA     BIT       IT01
      00000088H.3 SFRSYM    DATA     BIT       IT10
      000000B0H.5 SFRSYM    DATA     BIT       GP35
      000000A0H.6 SFRSYM    DATA     BIT       GP26
      00000090H.7 SFRSYM    DATA     BIT       GP17
      00000080H   SFRSYM    DATA     BYTE      P0
      000000F6H   SFRSYM    DATA     WORD      PI_UKMIN
      000000C7H   SFRSYM    DATA     BYTE      MDU_DA3
      00000088H.4 SFRSYM    DATA     BIT       IT11
      000000C9H   SFRSYM    DATA     BYTE      RST_SR
      000000D9H   SFRSYM    DATA     BYTE      EVT_FILT
      000000B0H.6 SFRSYM    DATA     BIT       GP36
      000000A0H.7 SFRSYM    DATA     BIT       GP27
      00000090H   SFRSYM    DATA     BYTE      P1
      000000B0H.7 SFRSYM    DATA     BIT       GP37
      000000A0H   SFRSYM    DATA     BYTE      P2
      000000F4H   SFRSYM    DATA     WORD      PI_UKMAX
      000000B0H   SFRSYM    DATA     BYTE      P3
      000000E8H   SFRSYM    DATA     BYTE      P4
      000000D0H.6 SFRSYM    DATA     BIT       AC
      000000A8H.7 SFRSYM    DATA     BIT       EA
      000000D5H   SFRSYM    DATA     BYTE      CMP_CR0
      000000D6H   SFRSYM    DATA     BYTE      CMP_CR1
      000000DAH   SFRSYM    DATA     BYTE      CMP_CR2
      000000B8H.2 SFRSYM    DATA     BIT       PX00
      000000DCH   SFRSYM    DATA     BYTE      CMP_CR3
      000000F8H.0 SFRSYM    DATA     BIT       OISUH
      000000EAH   SFRSYM    DATA     WORD      PI_EK
      000000B8H.3 SFRSYM    DATA     BIT       PX01
      000000B8H.4 SFRSYM    DATA     BIT       PX10
      000000F8H.2 SFRSYM    DATA     BIT       OISVH
      000000B8H.5 SFRSYM    DATA     BIT       PX11
      000000F8H.1 SFRSYM    DATA     BIT       OISUL
      000000DDH   SFRSYM    DATA     BYTE      LPF_K
      000000F2H   SFRSYM    DATA     WORD      PI_KI
      000000A8H   SFRSYM    DATA     BYTE      IE
LX51 LINKER/LOCATER V4.66.100.0                                                       10/12/2023  14:31:55  PAGE 119


      000000F8H.3 SFRSYM    DATA     BIT       OISVL
      000000EEH   SFRSYM    DATA     WORD      PI_KP
      000000AAH   SFRSYM    DATA     WORD      TIM2__CNTR
      000000A2H   SFRSYM    DATA     WORD      TIM3__CNTR
      00000092H   SFRSYM    DATA     WORD      TIM4__CNTR
      000000ECH   SFRSYM    DATA     WORD      PI_UK
      000000DEH   SFRSYM    DATA     WORD      LPF_X
      00000098H.0 SFRSYM    DATA     BIT       RI
      00000098H.6 SFRSYM    DATA     BIT       UT_MOD0
      000000E6H   SFRSYM    DATA     WORD      LPF_Y
      00000098H.7 SFRSYM    DATA     BIT       UT_MOD1
      000000D0H.7 SFRSYM    DATA     BIT       CY
      00000098H.1 SFRSYM    DATA     BIT       TI
      000000C0H.2 SFRSYM    DATA     BIT       PTIM10
      00000084H   SFRSYM    DATA     BYTE      FLA_KEY
      000000C0H.0 SFRSYM    DATA     BIT       PTIM20
      000000C0H.3 SFRSYM    DATA     BIT       PTIM11
      00000098H   SFRSYM    DATA     BYTE      UT_CR
      000000C8H.2 SFRSYM    DATA     BIT       PTIM30
      000000C0H.1 SFRSYM    DATA     BIT       PTIM21
      00000099H   SFRSYM    DATA     BYTE      UT_DR
      000000C8H.3 SFRSYM    DATA     BIT       PTIM31
      000000D0H.2 SFRSYM    DATA     BIT       OV
      0000009AH   SFRSYM    DATA     WORD      UT_BAUD
      000000C4H   SFRSYM    DATA     WORD      MDU_DA01
      000000CCH   SFRSYM    DATA     WORD      MDU_DB01
      00000087H   SFRSYM    DATA     BYTE      PCON
      000000C6H   SFRSYM    DATA     WORD      MDU_DA23
      00000088H   SFRSYM    DATA     BYTE      TCON
      00000082H   SFRSYM    DATA     WORD      DPTR
      000000D8H.0 SFRSYM    DATA     BIT       PUART0
      000000D8H.1 SFRSYM    DATA     BIT       PUART1
      000000D8H.2 SFRSYM    DATA     BIT       PI2C0
      00000088H.2 SFRSYM    DATA     BIT       IF0
      000000D8H.3 SFRSYM    DATA     BIT       PI2C1
      000000AEH   SFRSYM    DATA     WORD      TIM2__ARR
      000000A1H   SFRSYM    DATA     BYTE      TIM2_CR0
      000000A6H   SFRSYM    DATA     WORD      TIM3__ARR
      0000009CH   SFRSYM    DATA     BYTE      TIM3_CR0
      000000A9H   SFRSYM    DATA     BYTE      TIM2_CR1
      00000096H   SFRSYM    DATA     WORD      TIM4__ARR
      0000009EH   SFRSYM    DATA     BYTE      TIM4_CR0
      0000009DH   SFRSYM    DATA     BYTE      TIM3_CR1
      000000F8H   SFRSYM    DATA     BYTE      DRV_OUT
      0000009FH   SFRSYM    DATA     BYTE      TIM4_CR1
      000000DBH   SFRSYM    DATA     BYTE      LVSR
      000000A8H.4 SFRSYM    DATA     BIT       ES0
      00000085H   SFRSYM    DATA     BYTE      FLA_CR
      000000C0H.4 SFRSYM    DATA     BIT       PADC0
      000000B8H   SFRSYM    DATA     BYTE      IP0
      000000C0H.5 SFRSYM    DATA     BIT       PADC1
      000000C0H   SFRSYM    DATA     BYTE      IP1
      000000C8H   SFRSYM    DATA     BYTE      IP2
      00000098H.2 SFRSYM    DATA     BIT       RB8
      000000D8H   SFRSYM    DATA     BYTE      IP3
      000000A8H.0 SFRSYM    DATA     BIT       EX0
      00000098H.3 SFRSYM    DATA     BIT       TB8
      000000A8H.2 SFRSYM    DATA     BIT       EX1
      000000D0H.0 SFRSYM    DATA     BIT       P
      000000F9H   SFRSYM    DATA     BYTE      PI_LPF_CR
      00000098H.5 SFRSYM    DATA     BIT       SM2
      000000D8H.6 SFRSYM    DATA     BIT       PDMA0
      000000D8H.7 SFRSYM    DATA     BIT       PDMA1
      000000C2H   SFRSYM    DATA     WORD      MDU_MA
      000000D0H.3 SFRSYM    DATA     BIT       RS0
LX51 LINKER/LOCATER V4.66.100.0                                                       10/12/2023  14:31:55  PAGE 120


      000000CAH   SFRSYM    DATA     WORD      MDU_MB
      000000D0H.4 SFRSYM    DATA     BIT       RS1
      000000C1H   SFRSYM    DATA     BYTE      MDU_CR
      000000F8H.7 SFRSYM    DATA     BIT       MOE
      000000C0H.6 SFRSYM    DATA     BIT       PCMP0
      000000C0H.7 SFRSYM    DATA     BIT       PCMP1
      000000F8H.4 SFRSYM    DATA     BIT       OISWXH
      00000098H.4 SFRSYM    DATA     BIT       REN
      000000D7H   SFRSYM    DATA     BYTE      CMP_SR
      000000F8H.5 SFRSYM    DATA     BIT       OISWXL
      000000C8H.6 SFRSYM    DATA     BIT       PTSD0
      000000D8H.4 SFRSYM    DATA     BIT       PSPI0
      000000C8H.7 SFRSYM    DATA     BIT       PTSD1
      000000B8H.6 SFRSYM    DATA     BIT       PDRV0
      000000D8H.5 SFRSYM    DATA     BIT       PSPI1
      000000B8H.7 SFRSYM    DATA     BIT       PDRV1
      000000D1H   SFRSYM    DATA     BYTE      P1_IE
      000000D3H   SFRSYM    DATA     BYTE      P2_IE
      000000D2H   SFRSYM    DATA     BYTE      P1_IF
      000000D4H   SFRSYM    DATA     BYTE      P2_IF
      000000ACH   SFRSYM    DATA     WORD      TIM2__DR
      000000C8H.4 SFRSYM    DATA     BIT       PTIM4S0
      000000FCH   SFRSYM    DATA     BYTE      P0_OE
      000000A4H   SFRSYM    DATA     WORD      TIM3__DR
      000000C8H.5 SFRSYM    DATA     BIT       PTIM4S1
      000000FDH   SFRSYM    DATA     BYTE      P1_OE
      00000094H   SFRSYM    DATA     WORD      TIM4__DR
      000000D0H.5 SFRSYM    DATA     BIT       F0
      000000FEH   SFRSYM    DATA     BYTE      P2_OE
      000000D0H.1 SFRSYM    DATA     BIT       F1
      000000FFH   SFRSYM    DATA     BYTE      P3_OE
      00000080H.0 SFRSYM    DATA     BIT       GP00
      000000E9H   SFRSYM    DATA     BYTE      P4_OE
      00000090H.0 SFRSYM    DATA     BIT       GP10
      00000080H.1 SFRSYM    DATA     BIT       GP01
      000000A0H.0 SFRSYM    DATA     BIT       GP20
      00000090H.1 SFRSYM    DATA     BIT       GP11
      00000080H.2 SFRSYM    DATA     BIT       GP02
      000000B0H.0 SFRSYM    DATA     BIT       GP30
      000000A0H.1 SFRSYM    DATA     BIT       GP21
      00000090H.2 SFRSYM    DATA     BIT       GP12
      00000080H.3 SFRSYM    DATA     BIT       GP03
      000000B8H.0 SFRSYM    DATA     BIT       PLVW0
      000000A8H.1 SFRSYM    DATA     BIT       TSDIE
      000000D0H   SFRSYM    DATA     BYTE      PSW
      000000E8H.0 SFRSYM    DATA     BIT       GP40
      000000B0H.1 SFRSYM    DATA     BIT       GP31
      000000A0H.2 SFRSYM    DATA     BIT       GP22
      00000090H.3 SFRSYM    DATA     BIT       GP13
      00000080H.4 SFRSYM    DATA     BIT       GP04
      000000B8H.1 SFRSYM    DATA     BIT       PLVW1
      000000A8H.3 SFRSYM    DATA     BIT       SPIIE
      00000088H.5 SFRSYM    DATA     BIT       TSDIF
      000000E8H.1 SFRSYM    DATA     BIT       GP41
      000000B0H.2 SFRSYM    DATA     BIT       GP32
      000000A0H.3 SFRSYM    DATA     BIT       GP23
      00000090H.4 SFRSYM    DATA     BIT       GP14
      00000080H.5 SFRSYM    DATA     BIT       GP05
      000000C4H   SFRSYM    DATA     BYTE      MDU_DA0
      000000E8H.2 SFRSYM    DATA     BIT       GP42
      000000B0H.3 SFRSYM    DATA     BIT       GP33
      000000A0H.4 SFRSYM    DATA     BIT       GP24
      00000090H.5 SFRSYM    DATA     BIT       GP15
      00000080H.6 SFRSYM    DATA     BIT       GP06
      000000CCH   SFRSYM    DATA     BYTE      MDU_DB0
LX51 LINKER/LOCATER V4.66.100.0                                                       10/12/2023  14:31:55  PAGE 121


      000000C5H   SFRSYM    DATA     BYTE      MDU_DA1
      00000088H.0 SFRSYM    DATA     BIT       IT00

      010038D4H   BLOCK     CODE     ---       LVL=0
      010038D4H   LINE      CODE     ---       #23
      010038D4H   LINE      CODE     ---       #24
      010038D4H   LINE      CODE     ---       #26
      010038DBH   LINE      CODE     ---       #29
      010038E2H   LINE      CODE     ---       #30
      010038E7H   LINE      CODE     ---       #40
      010038EEH   LINE      CODE     ---       #47
      ---         BLOCKEND  ---      ---       LVL=0

      ---         MODULE    ---      ---       DRIVERINIT
      01003301H   PUBLIC    CODE     ---       Driver_Init
      000000B0H.4 SFRSYM    DATA     BIT       GP34
      000000A0H.5 SFRSYM    DATA     BIT       GP25
      00000090H.6 SFRSYM    DATA     BIT       GP16
      00000080H.7 SFRSYM    DATA     BIT       GP07
      000000CDH   SFRSYM    DATA     BYTE      MDU_DB1
      000000C6H   SFRSYM    DATA     BYTE      MDU_DA2
      00000088H.1 SFRSYM    DATA     BIT       IT01
      00000088H.3 SFRSYM    DATA     BIT       IT10
      000000B0H.5 SFRSYM    DATA     BIT       GP35
      000000A0H.6 SFRSYM    DATA     BIT       GP26
      00000090H.7 SFRSYM    DATA     BIT       GP17
      00000080H   SFRSYM    DATA     BYTE      P0
      000000F6H   SFRSYM    DATA     WORD      PI_UKMIN
      000000C7H   SFRSYM    DATA     BYTE      MDU_DA3
      00000088H.4 SFRSYM    DATA     BIT       IT11
      000000C9H   SFRSYM    DATA     BYTE      RST_SR
      000000D9H   SFRSYM    DATA     BYTE      EVT_FILT
      000000B0H.6 SFRSYM    DATA     BIT       GP36
      000000A0H.7 SFRSYM    DATA     BIT       GP27
      00000090H   SFRSYM    DATA     BYTE      P1
      000000B0H.7 SFRSYM    DATA     BIT       GP37
      000000A0H   SFRSYM    DATA     BYTE      P2
      000000F4H   SFRSYM    DATA     WORD      PI_UKMAX
      000000B0H   SFRSYM    DATA     BYTE      P3
      000000E8H   SFRSYM    DATA     BYTE      P4
      000000D0H.6 SFRSYM    DATA     BIT       AC
      000000A8H.7 SFRSYM    DATA     BIT       EA
      000000D5H   SFRSYM    DATA     BYTE      CMP_CR0
      000000D6H   SFRSYM    DATA     BYTE      CMP_CR1
      000000DAH   SFRSYM    DATA     BYTE      CMP_CR2
      000000B8H.2 SFRSYM    DATA     BIT       PX00
      000000DCH   SFRSYM    DATA     BYTE      CMP_CR3
      000000F8H.0 SFRSYM    DATA     BIT       OISUH
      000000EAH   SFRSYM    DATA     WORD      PI_EK
      000000B8H.3 SFRSYM    DATA     BIT       PX01
      000000B8H.4 SFRSYM    DATA     BIT       PX10
      000000F8H.2 SFRSYM    DATA     BIT       OISVH
      000000B8H.5 SFRSYM    DATA     BIT       PX11
      000000F8H.1 SFRSYM    DATA     BIT       OISUL
      000000DDH   SFRSYM    DATA     BYTE      LPF_K
      000000F2H   SFRSYM    DATA     WORD      PI_KI
      000000A8H   SFRSYM    DATA     BYTE      IE
      000000F8H.3 SFRSYM    DATA     BIT       OISVL
      000000EEH   SFRSYM    DATA     WORD      PI_KP
      000000AAH   SFRSYM    DATA     WORD      TIM2__CNTR
      000000A2H   SFRSYM    DATA     WORD      TIM3__CNTR
      00000092H   SFRSYM    DATA     WORD      TIM4__CNTR
      000000ECH   SFRSYM    DATA     WORD      PI_UK
      000000DEH   SFRSYM    DATA     WORD      LPF_X
      00000098H.0 SFRSYM    DATA     BIT       RI
LX51 LINKER/LOCATER V4.66.100.0                                                       10/12/2023  14:31:55  PAGE 122


      00000098H.6 SFRSYM    DATA     BIT       UT_MOD0
      000000E6H   SFRSYM    DATA     WORD      LPF_Y
      00000098H.7 SFRSYM    DATA     BIT       UT_MOD1
      000000D0H.7 SFRSYM    DATA     BIT       CY
      00000098H.1 SFRSYM    DATA     BIT       TI
      000000C0H.2 SFRSYM    DATA     BIT       PTIM10
      00000084H   SFRSYM    DATA     BYTE      FLA_KEY
      000000C0H.0 SFRSYM    DATA     BIT       PTIM20
      000000C0H.3 SFRSYM    DATA     BIT       PTIM11
      00000098H   SFRSYM    DATA     BYTE      UT_CR
      000000C8H.2 SFRSYM    DATA     BIT       PTIM30
      000000C0H.1 SFRSYM    DATA     BIT       PTIM21
      00000099H   SFRSYM    DATA     BYTE      UT_DR
      000000C8H.3 SFRSYM    DATA     BIT       PTIM31
      000000D0H.2 SFRSYM    DATA     BIT       OV
      0000009AH   SFRSYM    DATA     WORD      UT_BAUD
      000000C4H   SFRSYM    DATA     WORD      MDU_DA01
      000000CCH   SFRSYM    DATA     WORD      MDU_DB01
      00000087H   SFRSYM    DATA     BYTE      PCON
      000000C6H   SFRSYM    DATA     WORD      MDU_DA23
      00000088H   SFRSYM    DATA     BYTE      TCON
      00000082H   SFRSYM    DATA     WORD      DPTR
      000000D8H.0 SFRSYM    DATA     BIT       PUART0
      000000D8H.1 SFRSYM    DATA     BIT       PUART1
      000000D8H.2 SFRSYM    DATA     BIT       PI2C0
      00000088H.2 SFRSYM    DATA     BIT       IF0
      000000D8H.3 SFRSYM    DATA     BIT       PI2C1
      000000AEH   SFRSYM    DATA     WORD      TIM2__ARR
      000000A1H   SFRSYM    DATA     BYTE      TIM2_CR0
      000000A6H   SFRSYM    DATA     WORD      TIM3__ARR
      0000009CH   SFRSYM    DATA     BYTE      TIM3_CR0
      000000A9H   SFRSYM    DATA     BYTE      TIM2_CR1
      00000096H   SFRSYM    DATA     WORD      TIM4__ARR
      0000009EH   SFRSYM    DATA     BYTE      TIM4_CR0
      0000009DH   SFRSYM    DATA     BYTE      TIM3_CR1
      000000F8H   SFRSYM    DATA     BYTE      DRV_OUT
      0000009FH   SFRSYM    DATA     BYTE      TIM4_CR1
      000000DBH   SFRSYM    DATA     BYTE      LVSR
      000000A8H.4 SFRSYM    DATA     BIT       ES0
      00000085H   SFRSYM    DATA     BYTE      FLA_CR
      000000C0H.4 SFRSYM    DATA     BIT       PADC0
      000000B8H   SFRSYM    DATA     BYTE      IP0
      000000C0H.5 SFRSYM    DATA     BIT       PADC1
      000000C0H   SFRSYM    DATA     BYTE      IP1
      000000C8H   SFRSYM    DATA     BYTE      IP2
      00000098H.2 SFRSYM    DATA     BIT       RB8
      000000D8H   SFRSYM    DATA     BYTE      IP3
      000000A8H.0 SFRSYM    DATA     BIT       EX0
      00000098H.3 SFRSYM    DATA     BIT       TB8
      000000A8H.2 SFRSYM    DATA     BIT       EX1
      000000D0H.0 SFRSYM    DATA     BIT       P
      000000F9H   SFRSYM    DATA     BYTE      PI_LPF_CR
      00000098H.5 SFRSYM    DATA     BIT       SM2
      000000D8H.6 SFRSYM    DATA     BIT       PDMA0
      000000D8H.7 SFRSYM    DATA     BIT       PDMA1
      000000C2H   SFRSYM    DATA     WORD      MDU_MA
      000000D0H.3 SFRSYM    DATA     BIT       RS0
      000000CAH   SFRSYM    DATA     WORD      MDU_MB
      000000D0H.4 SFRSYM    DATA     BIT       RS1
      000000C1H   SFRSYM    DATA     BYTE      MDU_CR
      000000F8H.7 SFRSYM    DATA     BIT       MOE
      000000C0H.6 SFRSYM    DATA     BIT       PCMP0
      000000C0H.7 SFRSYM    DATA     BIT       PCMP1
      000000F8H.4 SFRSYM    DATA     BIT       OISWXH
      00000098H.4 SFRSYM    DATA     BIT       REN
LX51 LINKER/LOCATER V4.66.100.0                                                       10/12/2023  14:31:55  PAGE 123


      000000D7H   SFRSYM    DATA     BYTE      CMP_SR
      000000F8H.5 SFRSYM    DATA     BIT       OISWXL
      000000C8H.6 SFRSYM    DATA     BIT       PTSD0
      000000D8H.4 SFRSYM    DATA     BIT       PSPI0
      000000C8H.7 SFRSYM    DATA     BIT       PTSD1
      000000B8H.6 SFRSYM    DATA     BIT       PDRV0
      000000D8H.5 SFRSYM    DATA     BIT       PSPI1
      000000B8H.7 SFRSYM    DATA     BIT       PDRV1
      000000D1H   SFRSYM    DATA     BYTE      P1_IE
      000000D3H   SFRSYM    DATA     BYTE      P2_IE
      000000D2H   SFRSYM    DATA     BYTE      P1_IF
      000000D4H   SFRSYM    DATA     BYTE      P2_IF
      000000ACH   SFRSYM    DATA     WORD      TIM2__DR
      000000C8H.4 SFRSYM    DATA     BIT       PTIM4S0
      000000FCH   SFRSYM    DATA     BYTE      P0_OE
      000000A4H   SFRSYM    DATA     WORD      TIM3__DR
      000000C8H.5 SFRSYM    DATA     BIT       PTIM4S1
      000000FDH   SFRSYM    DATA     BYTE      P1_OE
      00000094H   SFRSYM    DATA     WORD      TIM4__DR
      000000D0H.5 SFRSYM    DATA     BIT       F0
      000000FEH   SFRSYM    DATA     BYTE      P2_OE
      000000D0H.1 SFRSYM    DATA     BIT       F1
      000000FFH   SFRSYM    DATA     BYTE      P3_OE
      00000080H.0 SFRSYM    DATA     BIT       GP00
      000000E9H   SFRSYM    DATA     BYTE      P4_OE
      00000090H.0 SFRSYM    DATA     BIT       GP10
      00000080H.1 SFRSYM    DATA     BIT       GP01
      000000A0H.0 SFRSYM    DATA     BIT       GP20
      00000090H.1 SFRSYM    DATA     BIT       GP11
      00000080H.2 SFRSYM    DATA     BIT       GP02
      000000B0H.0 SFRSYM    DATA     BIT       GP30
      000000A0H.1 SFRSYM    DATA     BIT       GP21
      00000090H.2 SFRSYM    DATA     BIT       GP12
      00000080H.3 SFRSYM    DATA     BIT       GP03
      000000B8H.0 SFRSYM    DATA     BIT       PLVW0
      000000A8H.1 SFRSYM    DATA     BIT       TSDIE
      000000D0H   SFRSYM    DATA     BYTE      PSW
      000000E8H.0 SFRSYM    DATA     BIT       GP40
      000000B0H.1 SFRSYM    DATA     BIT       GP31
      000000A0H.2 SFRSYM    DATA     BIT       GP22
      00000090H.3 SFRSYM    DATA     BIT       GP13
      00000080H.4 SFRSYM    DATA     BIT       GP04
      000000B8H.1 SFRSYM    DATA     BIT       PLVW1
      000000A8H.3 SFRSYM    DATA     BIT       SPIIE
      00000088H.5 SFRSYM    DATA     BIT       TSDIF
      000000E8H.1 SFRSYM    DATA     BIT       GP41
      000000B0H.2 SFRSYM    DATA     BIT       GP32
      000000A0H.3 SFRSYM    DATA     BIT       GP23
      00000090H.4 SFRSYM    DATA     BIT       GP14
      00000080H.5 SFRSYM    DATA     BIT       GP05
      000000C4H   SFRSYM    DATA     BYTE      MDU_DA0
      000000E8H.2 SFRSYM    DATA     BIT       GP42
      000000B0H.3 SFRSYM    DATA     BIT       GP33
      000000A0H.4 SFRSYM    DATA     BIT       GP24
      00000090H.5 SFRSYM    DATA     BIT       GP15
      00000080H.6 SFRSYM    DATA     BIT       GP06
      000000CCH   SFRSYM    DATA     BYTE      MDU_DB0
      000000C5H   SFRSYM    DATA     BYTE      MDU_DA1
      00000088H.0 SFRSYM    DATA     BIT       IT00

      01003301H   BLOCK     CODE     ---       LVL=0
      01003301H   LINE      CODE     ---       #23
      01003301H   LINE      CODE     ---       #24
      01003301H   LINE      CODE     ---       #26
      0100330BH   LINE      CODE     ---       #27
LX51 LINKER/LOCATER V4.66.100.0                                                       10/12/2023  14:31:55  PAGE 124


      0100330FH   LINE      CODE     ---       #31
      01003316H   LINE      CODE     ---       #35
      01003316H   LINE      CODE     ---       #36
      0100332BH   LINE      CODE     ---       #37
      0100332EH   LINE      CODE     ---       #38
      0100332EH   LINE      CODE     ---       #57
      01003335H   LINE      CODE     ---       #66
      0100333BH   LINE      CODE     ---       #69
      01003344H   LINE      CODE     ---       #71
      01003346H   LINE      CODE     ---       #72
      01003348H   LINE      CODE     ---       #74
      0100334FH   LINE      CODE     ---       #77
      01003354H   LINE      CODE     ---       #80
      01003358H   LINE      CODE     ---       #83
      0100335CH   LINE      CODE     ---       #85
      ---         BLOCKEND  ---      ---       LVL=0

      ---         MODULE    ---      ---       EXTIINIT
      020001AAH   PUBLIC    XDATA    ---       User
      010037F9H   PUBLIC    CODE     ---       ZeroCrossing_Init
      000000B0H.4 SFRSYM    DATA     BIT       GP34
      000000A0H.5 SFRSYM    DATA     BIT       GP25
      00000090H.6 SFRSYM    DATA     BIT       GP16
      00000080H.7 SFRSYM    DATA     BIT       GP07
      000000CDH   SFRSYM    DATA     BYTE      MDU_DB1
      000000C6H   SFRSYM    DATA     BYTE      MDU_DA2
      00000088H.1 SFRSYM    DATA     BIT       IT01
      00000088H.3 SFRSYM    DATA     BIT       IT10
      000000B0H.5 SFRSYM    DATA     BIT       GP35
      000000A0H.6 SFRSYM    DATA     BIT       GP26
      00000090H.7 SFRSYM    DATA     BIT       GP17
      00000080H   SFRSYM    DATA     BYTE      P0
      000000F6H   SFRSYM    DATA     WORD      PI_UKMIN
      000000C7H   SFRSYM    DATA     BYTE      MDU_DA3
      00000088H.4 SFRSYM    DATA     BIT       IT11
      000000C9H   SFRSYM    DATA     BYTE      RST_SR
      000000D9H   SFRSYM    DATA     BYTE      EVT_FILT
      000000B0H.6 SFRSYM    DATA     BIT       GP36
      000000A0H.7 SFRSYM    DATA     BIT       GP27
      00000090H   SFRSYM    DATA     BYTE      P1
      000000B0H.7 SFRSYM    DATA     BIT       GP37
      000000A0H   SFRSYM    DATA     BYTE      P2
      000000F4H   SFRSYM    DATA     WORD      PI_UKMAX
      000000B0H   SFRSYM    DATA     BYTE      P3
      000000E8H   SFRSYM    DATA     BYTE      P4
      000000D0H.6 SFRSYM    DATA     BIT       AC
      000000A8H.7 SFRSYM    DATA     BIT       EA
      000000D5H   SFRSYM    DATA     BYTE      CMP_CR0
      000000D6H   SFRSYM    DATA     BYTE      CMP_CR1
      000000DAH   SFRSYM    DATA     BYTE      CMP_CR2
      000000B8H.2 SFRSYM    DATA     BIT       PX00
      000000DCH   SFRSYM    DATA     BYTE      CMP_CR3
      000000F8H.0 SFRSYM    DATA     BIT       OISUH
      000000EAH   SFRSYM    DATA     WORD      PI_EK
      000000B8H.3 SFRSYM    DATA     BIT       PX01
      000000B8H.4 SFRSYM    DATA     BIT       PX10
      000000F8H.2 SFRSYM    DATA     BIT       OISVH
      000000B8H.5 SFRSYM    DATA     BIT       PX11
      000000F8H.1 SFRSYM    DATA     BIT       OISUL
      000000DDH   SFRSYM    DATA     BYTE      LPF_K
      000000F2H   SFRSYM    DATA     WORD      PI_KI
      000000A8H   SFRSYM    DATA     BYTE      IE
      000000F8H.3 SFRSYM    DATA     BIT       OISVL
      000000EEH   SFRSYM    DATA     WORD      PI_KP
      000000AAH   SFRSYM    DATA     WORD      TIM2__CNTR
LX51 LINKER/LOCATER V4.66.100.0                                                       10/12/2023  14:31:55  PAGE 125


      000000A2H   SFRSYM    DATA     WORD      TIM3__CNTR
      00000092H   SFRSYM    DATA     WORD      TIM4__CNTR
      000000ECH   SFRSYM    DATA     WORD      PI_UK
      000000DEH   SFRSYM    DATA     WORD      LPF_X
      00000098H.0 SFRSYM    DATA     BIT       RI
      00000098H.6 SFRSYM    DATA     BIT       UT_MOD0
      000000E6H   SFRSYM    DATA     WORD      LPF_Y
      00000098H.7 SFRSYM    DATA     BIT       UT_MOD1
      000000D0H.7 SFRSYM    DATA     BIT       CY
      00000098H.1 SFRSYM    DATA     BIT       TI
      000000C0H.2 SFRSYM    DATA     BIT       PTIM10
      00000084H   SFRSYM    DATA     BYTE      FLA_KEY
      000000C0H.0 SFRSYM    DATA     BIT       PTIM20
      000000C0H.3 SFRSYM    DATA     BIT       PTIM11
      00000098H   SFRSYM    DATA     BYTE      UT_CR
      000000C8H.2 SFRSYM    DATA     BIT       PTIM30
      000000C0H.1 SFRSYM    DATA     BIT       PTIM21
      00000099H   SFRSYM    DATA     BYTE      UT_DR
      000000C8H.3 SFRSYM    DATA     BIT       PTIM31
      000000D0H.2 SFRSYM    DATA     BIT       OV
      0000009AH   SFRSYM    DATA     WORD      UT_BAUD
      000000C4H   SFRSYM    DATA     WORD      MDU_DA01
      000000CCH   SFRSYM    DATA     WORD      MDU_DB01
      00000087H   SFRSYM    DATA     BYTE      PCON
      000000C6H   SFRSYM    DATA     WORD      MDU_DA23
      00000088H   SFRSYM    DATA     BYTE      TCON
      00000082H   SFRSYM    DATA     WORD      DPTR
      000000D8H.0 SFRSYM    DATA     BIT       PUART0
      000000D8H.1 SFRSYM    DATA     BIT       PUART1
      000000D8H.2 SFRSYM    DATA     BIT       PI2C0
      00000088H.2 SFRSYM    DATA     BIT       IF0
      000000D8H.3 SFRSYM    DATA     BIT       PI2C1
      000000AEH   SFRSYM    DATA     WORD      TIM2__ARR
      000000A1H   SFRSYM    DATA     BYTE      TIM2_CR0
      000000A6H   SFRSYM    DATA     WORD      TIM3__ARR
      0000009CH   SFRSYM    DATA     BYTE      TIM3_CR0
      000000A9H   SFRSYM    DATA     BYTE      TIM2_CR1
      00000096H   SFRSYM    DATA     WORD      TIM4__ARR
      0000009EH   SFRSYM    DATA     BYTE      TIM4_CR0
      0000009DH   SFRSYM    DATA     BYTE      TIM3_CR1
      000000F8H   SFRSYM    DATA     BYTE      DRV_OUT
      0000009FH   SFRSYM    DATA     BYTE      TIM4_CR1
      000000DBH   SFRSYM    DATA     BYTE      LVSR
      000000A8H.4 SFRSYM    DATA     BIT       ES0
      00000085H   SFRSYM    DATA     BYTE      FLA_CR
      000000C0H.4 SFRSYM    DATA     BIT       PADC0
      000000B8H   SFRSYM    DATA     BYTE      IP0
      000000C0H.5 SFRSYM    DATA     BIT       PADC1
      000000C0H   SFRSYM    DATA     BYTE      IP1
      000000C8H   SFRSYM    DATA     BYTE      IP2
      00000098H.2 SFRSYM    DATA     BIT       RB8
      000000D8H   SFRSYM    DATA     BYTE      IP3
      000000A8H.0 SFRSYM    DATA     BIT       EX0
      00000098H.3 SFRSYM    DATA     BIT       TB8
      000000A8H.2 SFRSYM    DATA     BIT       EX1
      000000D0H.0 SFRSYM    DATA     BIT       P
      000000F9H   SFRSYM    DATA     BYTE      PI_LPF_CR
      00000098H.5 SFRSYM    DATA     BIT       SM2
      000000D8H.6 SFRSYM    DATA     BIT       PDMA0
      000000D8H.7 SFRSYM    DATA     BIT       PDMA1
      000000C2H   SFRSYM    DATA     WORD      MDU_MA
      000000D0H.3 SFRSYM    DATA     BIT       RS0
      000000CAH   SFRSYM    DATA     WORD      MDU_MB
      000000D0H.4 SFRSYM    DATA     BIT       RS1
      000000C1H   SFRSYM    DATA     BYTE      MDU_CR
LX51 LINKER/LOCATER V4.66.100.0                                                       10/12/2023  14:31:55  PAGE 126


      000000F8H.7 SFRSYM    DATA     BIT       MOE
      000000C0H.6 SFRSYM    DATA     BIT       PCMP0
      000000C0H.7 SFRSYM    DATA     BIT       PCMP1
      000000F8H.4 SFRSYM    DATA     BIT       OISWXH
      00000098H.4 SFRSYM    DATA     BIT       REN
      000000D7H   SFRSYM    DATA     BYTE      CMP_SR
      000000F8H.5 SFRSYM    DATA     BIT       OISWXL
      000000C8H.6 SFRSYM    DATA     BIT       PTSD0
      000000D8H.4 SFRSYM    DATA     BIT       PSPI0
      000000C8H.7 SFRSYM    DATA     BIT       PTSD1
      000000B8H.6 SFRSYM    DATA     BIT       PDRV0
      000000D8H.5 SFRSYM    DATA     BIT       PSPI1
      000000B8H.7 SFRSYM    DATA     BIT       PDRV1
      000000D1H   SFRSYM    DATA     BYTE      P1_IE
      000000D3H   SFRSYM    DATA     BYTE      P2_IE
      000000D2H   SFRSYM    DATA     BYTE      P1_IF
      000000D4H   SFRSYM    DATA     BYTE      P2_IF
      000000ACH   SFRSYM    DATA     WORD      TIM2__DR
      000000C8H.4 SFRSYM    DATA     BIT       PTIM4S0
      000000FCH   SFRSYM    DATA     BYTE      P0_OE
      000000A4H   SFRSYM    DATA     WORD      TIM3__DR
      000000C8H.5 SFRSYM    DATA     BIT       PTIM4S1
      000000FDH   SFRSYM    DATA     BYTE      P1_OE
      00000094H   SFRSYM    DATA     WORD      TIM4__DR
      000000D0H.5 SFRSYM    DATA     BIT       F0
      000000FEH   SFRSYM    DATA     BYTE      P2_OE
      000000D0H.1 SFRSYM    DATA     BIT       F1
      000000FFH   SFRSYM    DATA     BYTE      P3_OE
      00000080H.0 SFRSYM    DATA     BIT       GP00
      000000E9H   SFRSYM    DATA     BYTE      P4_OE
      00000090H.0 SFRSYM    DATA     BIT       GP10
      00000080H.1 SFRSYM    DATA     BIT       GP01
      000000A0H.0 SFRSYM    DATA     BIT       GP20
      00000090H.1 SFRSYM    DATA     BIT       GP11
      00000080H.2 SFRSYM    DATA     BIT       GP02
      000000B0H.0 SFRSYM    DATA     BIT       GP30
      000000A0H.1 SFRSYM    DATA     BIT       GP21
      00000090H.2 SFRSYM    DATA     BIT       GP12
      00000080H.3 SFRSYM    DATA     BIT       GP03
      000000B8H.0 SFRSYM    DATA     BIT       PLVW0
      000000A8H.1 SFRSYM    DATA     BIT       TSDIE
      000000D0H   SFRSYM    DATA     BYTE      PSW
      000000E8H.0 SFRSYM    DATA     BIT       GP40
      000000B0H.1 SFRSYM    DATA     BIT       GP31
      000000A0H.2 SFRSYM    DATA     BIT       GP22
      00000090H.3 SFRSYM    DATA     BIT       GP13
      00000080H.4 SFRSYM    DATA     BIT       GP04
      000000B8H.1 SFRSYM    DATA     BIT       PLVW1
      000000A8H.3 SFRSYM    DATA     BIT       SPIIE
      00000088H.5 SFRSYM    DATA     BIT       TSDIF
      000000E8H.1 SFRSYM    DATA     BIT       GP41
      000000B0H.2 SFRSYM    DATA     BIT       GP32
      000000A0H.3 SFRSYM    DATA     BIT       GP23
      00000090H.4 SFRSYM    DATA     BIT       GP14
      00000080H.5 SFRSYM    DATA     BIT       GP05
      000000C4H   SFRSYM    DATA     BYTE      MDU_DA0
      000000E8H.2 SFRSYM    DATA     BIT       GP42
      000000B0H.3 SFRSYM    DATA     BIT       GP33
      000000A0H.4 SFRSYM    DATA     BIT       GP24
      00000090H.5 SFRSYM    DATA     BIT       GP15
      00000080H.6 SFRSYM    DATA     BIT       GP06
      000000CCH   SFRSYM    DATA     BYTE      MDU_DB0
      000000C5H   SFRSYM    DATA     BYTE      MDU_DA1
      00000088H.0 SFRSYM    DATA     BIT       IT00

LX51 LINKER/LOCATER V4.66.100.0                                                       10/12/2023  14:31:55  PAGE 127


      010037F9H   BLOCK     CODE     ---       LVL=0
      010037F9H   LINE      CODE     ---       #118
      010037F9H   LINE      CODE     ---       #119
      010037F9H   LINE      CODE     ---       #120
      010037FCH   LINE      CODE     ---       #121
      01003803H   LINE      CODE     ---       #122
      0100380AH   LINE      CODE     ---       #124
      0100380DH   LINE      CODE     ---       #125
      01003810H   LINE      CODE     ---       #128
      01003812H   LINE      CODE     ---       #129
      01003814H   LINE      CODE     ---       #131
      01003816H   LINE      CODE     ---       #132
      01003818H   LINE      CODE     ---       #134
      0100381AH   LINE      CODE     ---       #135
      0100381CH   LINE      CODE     ---       #137
      ---         BLOCKEND  ---      ---       LVL=0
      020001A9H   SYMBOL    XDATA    BYTE      peratureCount
      00000007H   SYMBOL    DATA     BYTE      mm
      00000005H   SYMBOL    DATA     BYTE      nn
      00000006H   SYMBOL    DATA     BYTE      rr

      ---         MODULE    ---      ---       SPIINIT
      000000B0H.4 SFRSYM    DATA     BIT       GP34
      000000A0H.5 SFRSYM    DATA     BIT       GP25
      00000090H.6 SFRSYM    DATA     BIT       GP16
      00000080H.7 SFRSYM    DATA     BIT       GP07
      000000CDH   SFRSYM    DATA     BYTE      MDU_DB1
      000000C6H   SFRSYM    DATA     BYTE      MDU_DA2
      00000088H.1 SFRSYM    DATA     BIT       IT01
      00000088H.3 SFRSYM    DATA     BIT       IT10
      000000B0H.5 SFRSYM    DATA     BIT       GP35
      000000A0H.6 SFRSYM    DATA     BIT       GP26
      00000090H.7 SFRSYM    DATA     BIT       GP17
      00000080H   SFRSYM    DATA     BYTE      P0
      000000F6H   SFRSYM    DATA     WORD      PI_UKMIN
      000000C7H   SFRSYM    DATA     BYTE      MDU_DA3
      00000088H.4 SFRSYM    DATA     BIT       IT11
      000000C9H   SFRSYM    DATA     BYTE      RST_SR
      000000D9H   SFRSYM    DATA     BYTE      EVT_FILT
      000000B0H.6 SFRSYM    DATA     BIT       GP36
      000000A0H.7 SFRSYM    DATA     BIT       GP27
      00000090H   SFRSYM    DATA     BYTE      P1
      000000B0H.7 SFRSYM    DATA     BIT       GP37
      000000A0H   SFRSYM    DATA     BYTE      P2
      000000F4H   SFRSYM    DATA     WORD      PI_UKMAX
      000000B0H   SFRSYM    DATA     BYTE      P3
      000000E8H   SFRSYM    DATA     BYTE      P4
      000000D0H.6 SFRSYM    DATA     BIT       AC
      000000A8H.7 SFRSYM    DATA     BIT       EA
      000000D5H   SFRSYM    DATA     BYTE      CMP_CR0
      000000D6H   SFRSYM    DATA     BYTE      CMP_CR1
      000000DAH   SFRSYM    DATA     BYTE      CMP_CR2
      000000B8H.2 SFRSYM    DATA     BIT       PX00
      000000DCH   SFRSYM    DATA     BYTE      CMP_CR3
      000000F8H.0 SFRSYM    DATA     BIT       OISUH
      000000EAH   SFRSYM    DATA     WORD      PI_EK
      000000B8H.3 SFRSYM    DATA     BIT       PX01
      000000B8H.4 SFRSYM    DATA     BIT       PX10
      000000F8H.2 SFRSYM    DATA     BIT       OISVH
      000000B8H.5 SFRSYM    DATA     BIT       PX11
      000000F8H.1 SFRSYM    DATA     BIT       OISUL
      000000DDH   SFRSYM    DATA     BYTE      LPF_K
      000000F2H   SFRSYM    DATA     WORD      PI_KI
      000000A8H   SFRSYM    DATA     BYTE      IE
      000000F8H.3 SFRSYM    DATA     BIT       OISVL
LX51 LINKER/LOCATER V4.66.100.0                                                       10/12/2023  14:31:55  PAGE 128


      000000EEH   SFRSYM    DATA     WORD      PI_KP
      000000AAH   SFRSYM    DATA     WORD      TIM2__CNTR
      000000A2H   SFRSYM    DATA     WORD      TIM3__CNTR
      00000092H   SFRSYM    DATA     WORD      TIM4__CNTR
      000000ECH   SFRSYM    DATA     WORD      PI_UK
      000000DEH   SFRSYM    DATA     WORD      LPF_X
      00000098H.0 SFRSYM    DATA     BIT       RI
      00000098H.6 SFRSYM    DATA     BIT       UT_MOD0
      000000E6H   SFRSYM    DATA     WORD      LPF_Y
      00000098H.7 SFRSYM    DATA     BIT       UT_MOD1
      000000D0H.7 SFRSYM    DATA     BIT       CY
      00000098H.1 SFRSYM    DATA     BIT       TI
      000000C0H.2 SFRSYM    DATA     BIT       PTIM10
      00000084H   SFRSYM    DATA     BYTE      FLA_KEY
      000000C0H.0 SFRSYM    DATA     BIT       PTIM20
      000000C0H.3 SFRSYM    DATA     BIT       PTIM11
      00000098H   SFRSYM    DATA     BYTE      UT_CR
      000000C8H.2 SFRSYM    DATA     BIT       PTIM30
      000000C0H.1 SFRSYM    DATA     BIT       PTIM21
      00000099H   SFRSYM    DATA     BYTE      UT_DR
      000000C8H.3 SFRSYM    DATA     BIT       PTIM31
      000000D0H.2 SFRSYM    DATA     BIT       OV
      0000009AH   SFRSYM    DATA     WORD      UT_BAUD
      000000C4H   SFRSYM    DATA     WORD      MDU_DA01
      000000CCH   SFRSYM    DATA     WORD      MDU_DB01
      00000087H   SFRSYM    DATA     BYTE      PCON
      000000C6H   SFRSYM    DATA     WORD      MDU_DA23
      00000088H   SFRSYM    DATA     BYTE      TCON
      00000082H   SFRSYM    DATA     WORD      DPTR
      000000D8H.0 SFRSYM    DATA     BIT       PUART0
      000000D8H.1 SFRSYM    DATA     BIT       PUART1
      000000D8H.2 SFRSYM    DATA     BIT       PI2C0
      00000088H.2 SFRSYM    DATA     BIT       IF0
      000000D8H.3 SFRSYM    DATA     BIT       PI2C1
      000000AEH   SFRSYM    DATA     WORD      TIM2__ARR
      000000A1H   SFRSYM    DATA     BYTE      TIM2_CR0
      000000A6H   SFRSYM    DATA     WORD      TIM3__ARR
      0000009CH   SFRSYM    DATA     BYTE      TIM3_CR0
      000000A9H   SFRSYM    DATA     BYTE      TIM2_CR1
      00000096H   SFRSYM    DATA     WORD      TIM4__ARR
      0000009EH   SFRSYM    DATA     BYTE      TIM4_CR0
      0000009DH   SFRSYM    DATA     BYTE      TIM3_CR1
      000000F8H   SFRSYM    DATA     BYTE      DRV_OUT
      0000009FH   SFRSYM    DATA     BYTE      TIM4_CR1
      000000DBH   SFRSYM    DATA     BYTE      LVSR
      000000A8H.4 SFRSYM    DATA     BIT       ES0
      00000085H   SFRSYM    DATA     BYTE      FLA_CR
      000000C0H.4 SFRSYM    DATA     BIT       PADC0
      000000B8H   SFRSYM    DATA     BYTE      IP0
      000000C0H.5 SFRSYM    DATA     BIT       PADC1
      000000C0H   SFRSYM    DATA     BYTE      IP1
      000000C8H   SFRSYM    DATA     BYTE      IP2
      00000098H.2 SFRSYM    DATA     BIT       RB8
      000000D8H   SFRSYM    DATA     BYTE      IP3
      000000A8H.0 SFRSYM    DATA     BIT       EX0
      00000098H.3 SFRSYM    DATA     BIT       TB8
      000000A8H.2 SFRSYM    DATA     BIT       EX1
      000000D0H.0 SFRSYM    DATA     BIT       P
      000000F9H   SFRSYM    DATA     BYTE      PI_LPF_CR
      00000098H.5 SFRSYM    DATA     BIT       SM2
      000000D8H.6 SFRSYM    DATA     BIT       PDMA0
      000000D8H.7 SFRSYM    DATA     BIT       PDMA1
      000000C2H   SFRSYM    DATA     WORD      MDU_MA
      000000D0H.3 SFRSYM    DATA     BIT       RS0
      000000CAH   SFRSYM    DATA     WORD      MDU_MB
LX51 LINKER/LOCATER V4.66.100.0                                                       10/12/2023  14:31:55  PAGE 129


      000000D0H.4 SFRSYM    DATA     BIT       RS1
      000000C1H   SFRSYM    DATA     BYTE      MDU_CR
      000000F8H.7 SFRSYM    DATA     BIT       MOE
      000000C0H.6 SFRSYM    DATA     BIT       PCMP0
      000000C0H.7 SFRSYM    DATA     BIT       PCMP1
      000000F8H.4 SFRSYM    DATA     BIT       OISWXH
      00000098H.4 SFRSYM    DATA     BIT       REN
      000000D7H   SFRSYM    DATA     BYTE      CMP_SR
      000000F8H.5 SFRSYM    DATA     BIT       OISWXL
      000000C8H.6 SFRSYM    DATA     BIT       PTSD0
      000000D8H.4 SFRSYM    DATA     BIT       PSPI0
      000000C8H.7 SFRSYM    DATA     BIT       PTSD1
      000000B8H.6 SFRSYM    DATA     BIT       PDRV0
      000000D8H.5 SFRSYM    DATA     BIT       PSPI1
      000000B8H.7 SFRSYM    DATA     BIT       PDRV1
      000000D1H   SFRSYM    DATA     BYTE      P1_IE
      000000D3H   SFRSYM    DATA     BYTE      P2_IE
      000000D2H   SFRSYM    DATA     BYTE      P1_IF
      000000D4H   SFRSYM    DATA     BYTE      P2_IF
      000000ACH   SFRSYM    DATA     WORD      TIM2__DR
      000000C8H.4 SFRSYM    DATA     BIT       PTIM4S0
      000000FCH   SFRSYM    DATA     BYTE      P0_OE
      000000A4H   SFRSYM    DATA     WORD      TIM3__DR
      000000C8H.5 SFRSYM    DATA     BIT       PTIM4S1
      000000FDH   SFRSYM    DATA     BYTE      P1_OE
      00000094H   SFRSYM    DATA     WORD      TIM4__DR
      000000D0H.5 SFRSYM    DATA     BIT       F0
      000000FEH   SFRSYM    DATA     BYTE      P2_OE
      000000D0H.1 SFRSYM    DATA     BIT       F1
      000000FFH   SFRSYM    DATA     BYTE      P3_OE
      00000080H.0 SFRSYM    DATA     BIT       GP00
      000000E9H   SFRSYM    DATA     BYTE      P4_OE
      00000090H.0 SFRSYM    DATA     BIT       GP10
      00000080H.1 SFRSYM    DATA     BIT       GP01
      000000A0H.0 SFRSYM    DATA     BIT       GP20
      00000090H.1 SFRSYM    DATA     BIT       GP11
      00000080H.2 SFRSYM    DATA     BIT       GP02
      000000B0H.0 SFRSYM    DATA     BIT       GP30
      000000A0H.1 SFRSYM    DATA     BIT       GP21
      00000090H.2 SFRSYM    DATA     BIT       GP12
      00000080H.3 SFRSYM    DATA     BIT       GP03
      000000B8H.0 SFRSYM    DATA     BIT       PLVW0
      000000A8H.1 SFRSYM    DATA     BIT       TSDIE
      000000D0H   SFRSYM    DATA     BYTE      PSW
      000000E8H.0 SFRSYM    DATA     BIT       GP40
      000000B0H.1 SFRSYM    DATA     BIT       GP31
      000000A0H.2 SFRSYM    DATA     BIT       GP22
      00000090H.3 SFRSYM    DATA     BIT       GP13
      00000080H.4 SFRSYM    DATA     BIT       GP04
      000000B8H.1 SFRSYM    DATA     BIT       PLVW1
      000000A8H.3 SFRSYM    DATA     BIT       SPIIE
      00000088H.5 SFRSYM    DATA     BIT       TSDIF
      000000E8H.1 SFRSYM    DATA     BIT       GP41
      000000B0H.2 SFRSYM    DATA     BIT       GP32
      000000A0H.3 SFRSYM    DATA     BIT       GP23
      00000090H.4 SFRSYM    DATA     BIT       GP14
      00000080H.5 SFRSYM    DATA     BIT       GP05
      000000C4H   SFRSYM    DATA     BYTE      MDU_DA0
      000000E8H.2 SFRSYM    DATA     BIT       GP42
      000000B0H.3 SFRSYM    DATA     BIT       GP33
      000000A0H.4 SFRSYM    DATA     BIT       GP24
      00000090H.5 SFRSYM    DATA     BIT       GP15
      00000080H.6 SFRSYM    DATA     BIT       GP06
      000000CCH   SFRSYM    DATA     BYTE      MDU_DB0
      000000C5H   SFRSYM    DATA     BYTE      MDU_DA1
LX51 LINKER/LOCATER V4.66.100.0                                                       10/12/2023  14:31:55  PAGE 130


      00000088H.0 SFRSYM    DATA     BIT       IT00
      00000002H   SYMBOL    DATA     WORD      Data
      00000005H   SYMBOL    DATA     BYTE      Channel

      ---         MODULE    ---      ---       TIMERINIT
      01003919H   PUBLIC    CODE     ---       TIM1ms_Init
      000000B0H.4 SFRSYM    DATA     BIT       GP34
      000000A0H.5 SFRSYM    DATA     BIT       GP25
      00000090H.6 SFRSYM    DATA     BIT       GP16
      00000080H.7 SFRSYM    DATA     BIT       GP07
      000000CDH   SFRSYM    DATA     BYTE      MDU_DB1
      000000C6H   SFRSYM    DATA     BYTE      MDU_DA2
      00000088H.1 SFRSYM    DATA     BIT       IT01
      00000088H.3 SFRSYM    DATA     BIT       IT10
      000000B0H.5 SFRSYM    DATA     BIT       GP35
      000000A0H.6 SFRSYM    DATA     BIT       GP26
      00000090H.7 SFRSYM    DATA     BIT       GP17
      00000080H   SFRSYM    DATA     BYTE      P0
      000000F6H   SFRSYM    DATA     WORD      PI_UKMIN
      000000C7H   SFRSYM    DATA     BYTE      MDU_DA3
      00000088H.4 SFRSYM    DATA     BIT       IT11
      000000C9H   SFRSYM    DATA     BYTE      RST_SR
      000000D9H   SFRSYM    DATA     BYTE      EVT_FILT
      000000B0H.6 SFRSYM    DATA     BIT       GP36
      000000A0H.7 SFRSYM    DATA     BIT       GP27
      00000090H   SFRSYM    DATA     BYTE      P1
      000000B0H.7 SFRSYM    DATA     BIT       GP37
      000000A0H   SFRSYM    DATA     BYTE      P2
      000000F4H   SFRSYM    DATA     WORD      PI_UKMAX
      000000B0H   SFRSYM    DATA     BYTE      P3
      000000E8H   SFRSYM    DATA     BYTE      P4
      000000D0H.6 SFRSYM    DATA     BIT       AC
      000000A8H.7 SFRSYM    DATA     BIT       EA
      000000D5H   SFRSYM    DATA     BYTE      CMP_CR0
      000000D6H   SFRSYM    DATA     BYTE      CMP_CR1
      000000DAH   SFRSYM    DATA     BYTE      CMP_CR2
      000000B8H.2 SFRSYM    DATA     BIT       PX00
      000000DCH   SFRSYM    DATA     BYTE      CMP_CR3
      000000F8H.0 SFRSYM    DATA     BIT       OISUH
      000000EAH   SFRSYM    DATA     WORD      PI_EK
      000000B8H.3 SFRSYM    DATA     BIT       PX01
      000000B8H.4 SFRSYM    DATA     BIT       PX10
      000000F8H.2 SFRSYM    DATA     BIT       OISVH
      000000B8H.5 SFRSYM    DATA     BIT       PX11
      000000F8H.1 SFRSYM    DATA     BIT       OISUL
      000000DDH   SFRSYM    DATA     BYTE      LPF_K
      000000F2H   SFRSYM    DATA     WORD      PI_KI
      000000A8H   SFRSYM    DATA     BYTE      IE
      000000F8H.3 SFRSYM    DATA     BIT       OISVL
      000000EEH   SFRSYM    DATA     WORD      PI_KP
      000000AAH   SFRSYM    DATA     WORD      TIM2__CNTR
      000000A2H   SFRSYM    DATA     WORD      TIM3__CNTR
      00000092H   SFRSYM    DATA     WORD      TIM4__CNTR
      000000ECH   SFRSYM    DATA     WORD      PI_UK
      000000DEH   SFRSYM    DATA     WORD      LPF_X
      00000098H.0 SFRSYM    DATA     BIT       RI
      00000098H.6 SFRSYM    DATA     BIT       UT_MOD0
      000000E6H   SFRSYM    DATA     WORD      LPF_Y
      00000098H.7 SFRSYM    DATA     BIT       UT_MOD1
      000000D0H.7 SFRSYM    DATA     BIT       CY
      00000098H.1 SFRSYM    DATA     BIT       TI
      000000C0H.2 SFRSYM    DATA     BIT       PTIM10
      00000084H   SFRSYM    DATA     BYTE      FLA_KEY
      000000C0H.0 SFRSYM    DATA     BIT       PTIM20
      000000C0H.3 SFRSYM    DATA     BIT       PTIM11
LX51 LINKER/LOCATER V4.66.100.0                                                       10/12/2023  14:31:55  PAGE 131


      00000098H   SFRSYM    DATA     BYTE      UT_CR
      000000C8H.2 SFRSYM    DATA     BIT       PTIM30
      000000C0H.1 SFRSYM    DATA     BIT       PTIM21
      00000099H   SFRSYM    DATA     BYTE      UT_DR
      000000C8H.3 SFRSYM    DATA     BIT       PTIM31
      000000D0H.2 SFRSYM    DATA     BIT       OV
      0000009AH   SFRSYM    DATA     WORD      UT_BAUD
      000000C4H   SFRSYM    DATA     WORD      MDU_DA01
      000000CCH   SFRSYM    DATA     WORD      MDU_DB01
      00000087H   SFRSYM    DATA     BYTE      PCON
      000000C6H   SFRSYM    DATA     WORD      MDU_DA23
      00000088H   SFRSYM    DATA     BYTE      TCON
      00000082H   SFRSYM    DATA     WORD      DPTR
      000000D8H.0 SFRSYM    DATA     BIT       PUART0
      000000D8H.1 SFRSYM    DATA     BIT       PUART1
      000000D8H.2 SFRSYM    DATA     BIT       PI2C0
      00000088H.2 SFRSYM    DATA     BIT       IF0
      000000D8H.3 SFRSYM    DATA     BIT       PI2C1
      000000AEH   SFRSYM    DATA     WORD      TIM2__ARR
      000000A1H   SFRSYM    DATA     BYTE      TIM2_CR0
      000000A6H   SFRSYM    DATA     WORD      TIM3__ARR
      0000009CH   SFRSYM    DATA     BYTE      TIM3_CR0
      000000A9H   SFRSYM    DATA     BYTE      TIM2_CR1
      00000096H   SFRSYM    DATA     WORD      TIM4__ARR
      0000009EH   SFRSYM    DATA     BYTE      TIM4_CR0
      0000009DH   SFRSYM    DATA     BYTE      TIM3_CR1
      000000F8H   SFRSYM    DATA     BYTE      DRV_OUT
      0000009FH   SFRSYM    DATA     BYTE      TIM4_CR1
      000000DBH   SFRSYM    DATA     BYTE      LVSR
      000000A8H.4 SFRSYM    DATA     BIT       ES0
      00000085H   SFRSYM    DATA     BYTE      FLA_CR
      000000C0H.4 SFRSYM    DATA     BIT       PADC0
      000000B8H   SFRSYM    DATA     BYTE      IP0
      000000C0H.5 SFRSYM    DATA     BIT       PADC1
      000000C0H   SFRSYM    DATA     BYTE      IP1
      000000C8H   SFRSYM    DATA     BYTE      IP2
      00000098H.2 SFRSYM    DATA     BIT       RB8
      000000D8H   SFRSYM    DATA     BYTE      IP3
      000000A8H.0 SFRSYM    DATA     BIT       EX0
      00000098H.3 SFRSYM    DATA     BIT       TB8
      000000A8H.2 SFRSYM    DATA     BIT       EX1
      000000D0H.0 SFRSYM    DATA     BIT       P
      000000F9H   SFRSYM    DATA     BYTE      PI_LPF_CR
      00000098H.5 SFRSYM    DATA     BIT       SM2
      000000D8H.6 SFRSYM    DATA     BIT       PDMA0
      000000D8H.7 SFRSYM    DATA     BIT       PDMA1
      000000C2H   SFRSYM    DATA     WORD      MDU_MA
      000000D0H.3 SFRSYM    DATA     BIT       RS0
      000000CAH   SFRSYM    DATA     WORD      MDU_MB
      000000D0H.4 SFRSYM    DATA     BIT       RS1
      000000C1H   SFRSYM    DATA     BYTE      MDU_CR
      000000F8H.7 SFRSYM    DATA     BIT       MOE
      000000C0H.6 SFRSYM    DATA     BIT       PCMP0
      000000C0H.7 SFRSYM    DATA     BIT       PCMP1
      000000F8H.4 SFRSYM    DATA     BIT       OISWXH
      00000098H.4 SFRSYM    DATA     BIT       REN
      000000D7H   SFRSYM    DATA     BYTE      CMP_SR
      000000F8H.5 SFRSYM    DATA     BIT       OISWXL
      000000C8H.6 SFRSYM    DATA     BIT       PTSD0
      000000D8H.4 SFRSYM    DATA     BIT       PSPI0
      000000C8H.7 SFRSYM    DATA     BIT       PTSD1
      000000B8H.6 SFRSYM    DATA     BIT       PDRV0
      000000D8H.5 SFRSYM    DATA     BIT       PSPI1
      000000B8H.7 SFRSYM    DATA     BIT       PDRV1
      000000D1H   SFRSYM    DATA     BYTE      P1_IE
LX51 LINKER/LOCATER V4.66.100.0                                                       10/12/2023  14:31:55  PAGE 132


      000000D3H   SFRSYM    DATA     BYTE      P2_IE
      000000D2H   SFRSYM    DATA     BYTE      P1_IF
      000000D4H   SFRSYM    DATA     BYTE      P2_IF
      000000ACH   SFRSYM    DATA     WORD      TIM2__DR
      000000C8H.4 SFRSYM    DATA     BIT       PTIM4S0
      000000FCH   SFRSYM    DATA     BYTE      P0_OE
      000000A4H   SFRSYM    DATA     WORD      TIM3__DR
      000000C8H.5 SFRSYM    DATA     BIT       PTIM4S1
      000000FDH   SFRSYM    DATA     BYTE      P1_OE
      00000094H   SFRSYM    DATA     WORD      TIM4__DR
      000000D0H.5 SFRSYM    DATA     BIT       F0
      000000FEH   SFRSYM    DATA     BYTE      P2_OE
      000000D0H.1 SFRSYM    DATA     BIT       F1
      000000FFH   SFRSYM    DATA     BYTE      P3_OE
      00000080H.0 SFRSYM    DATA     BIT       GP00
      000000E9H   SFRSYM    DATA     BYTE      P4_OE
      00000090H.0 SFRSYM    DATA     BIT       GP10
      00000080H.1 SFRSYM    DATA     BIT       GP01
      000000A0H.0 SFRSYM    DATA     BIT       GP20
      00000090H.1 SFRSYM    DATA     BIT       GP11
      00000080H.2 SFRSYM    DATA     BIT       GP02
      000000B0H.0 SFRSYM    DATA     BIT       GP30
      000000A0H.1 SFRSYM    DATA     BIT       GP21
      00000090H.2 SFRSYM    DATA     BIT       GP12
      00000080H.3 SFRSYM    DATA     BIT       GP03
      000000B8H.0 SFRSYM    DATA     BIT       PLVW0
      000000A8H.1 SFRSYM    DATA     BIT       TSDIE
      000000D0H   SFRSYM    DATA     BYTE      PSW
      000000E8H.0 SFRSYM    DATA     BIT       GP40
      000000B0H.1 SFRSYM    DATA     BIT       GP31
      000000A0H.2 SFRSYM    DATA     BIT       GP22
      00000090H.3 SFRSYM    DATA     BIT       GP13
      00000080H.4 SFRSYM    DATA     BIT       GP04
      000000B8H.1 SFRSYM    DATA     BIT       PLVW1
      000000A8H.3 SFRSYM    DATA     BIT       SPIIE
      00000088H.5 SFRSYM    DATA     BIT       TSDIF
      000000E8H.1 SFRSYM    DATA     BIT       GP41
      000000B0H.2 SFRSYM    DATA     BIT       GP32
      000000A0H.3 SFRSYM    DATA     BIT       GP23
      00000090H.4 SFRSYM    DATA     BIT       GP14
      00000080H.5 SFRSYM    DATA     BIT       GP05
      000000C4H   SFRSYM    DATA     BYTE      MDU_DA0
      000000E8H.2 SFRSYM    DATA     BIT       GP42
      000000B0H.3 SFRSYM    DATA     BIT       GP33
      000000A0H.4 SFRSYM    DATA     BIT       GP24
      00000090H.5 SFRSYM    DATA     BIT       GP15
      00000080H.6 SFRSYM    DATA     BIT       GP06
      000000CCH   SFRSYM    DATA     BYTE      MDU_DB0
      000000C5H   SFRSYM    DATA     BYTE      MDU_DA1
      00000088H.0 SFRSYM    DATA     BIT       IT00

      01003919H   BLOCK     CODE     ---       LVL=0
      01003919H   LINE      CODE     ---       #231
      01003919H   LINE      CODE     ---       #232
      01003919H   LINE      CODE     ---       #234
      0100391BH   LINE      CODE     ---       #235
      0100391DH   LINE      CODE     ---       #236
      0100391FH   LINE      CODE     ---       #237
      01003926H   LINE      CODE     ---       #239
      ---         BLOCKEND  ---      ---       LVL=0

      ---         MODULE    ---      ---       ADCINIT
      01003098H   PUBLIC    CODE     ---       ADC_Init
      000000B0H.4 SFRSYM    DATA     BIT       GP34
      000000A0H.5 SFRSYM    DATA     BIT       GP25
LX51 LINKER/LOCATER V4.66.100.0                                                       10/12/2023  14:31:55  PAGE 133


      00000090H.6 SFRSYM    DATA     BIT       GP16
      00000080H.7 SFRSYM    DATA     BIT       GP07
      000000CDH   SFRSYM    DATA     BYTE      MDU_DB1
      000000C6H   SFRSYM    DATA     BYTE      MDU_DA2
      00000088H.1 SFRSYM    DATA     BIT       IT01
      00000088H.3 SFRSYM    DATA     BIT       IT10
      000000B0H.5 SFRSYM    DATA     BIT       GP35
      000000A0H.6 SFRSYM    DATA     BIT       GP26
      00000090H.7 SFRSYM    DATA     BIT       GP17
      00000080H   SFRSYM    DATA     BYTE      P0
      000000F6H   SFRSYM    DATA     WORD      PI_UKMIN
      000000C7H   SFRSYM    DATA     BYTE      MDU_DA3
      00000088H.4 SFRSYM    DATA     BIT       IT11
      000000C9H   SFRSYM    DATA     BYTE      RST_SR
      000000D9H   SFRSYM    DATA     BYTE      EVT_FILT
      000000B0H.6 SFRSYM    DATA     BIT       GP36
      000000A0H.7 SFRSYM    DATA     BIT       GP27
      00000090H   SFRSYM    DATA     BYTE      P1
      000000B0H.7 SFRSYM    DATA     BIT       GP37
      000000A0H   SFRSYM    DATA     BYTE      P2
      000000F4H   SFRSYM    DATA     WORD      PI_UKMAX
      000000B0H   SFRSYM    DATA     BYTE      P3
      000000E8H   SFRSYM    DATA     BYTE      P4
      000000D0H.6 SFRSYM    DATA     BIT       AC
      000000A8H.7 SFRSYM    DATA     BIT       EA
      000000D5H   SFRSYM    DATA     BYTE      CMP_CR0
      000000D6H   SFRSYM    DATA     BYTE      CMP_CR1
      000000DAH   SFRSYM    DATA     BYTE      CMP_CR2
      000000B8H.2 SFRSYM    DATA     BIT       PX00
      000000DCH   SFRSYM    DATA     BYTE      CMP_CR3
      000000F8H.0 SFRSYM    DATA     BIT       OISUH
      000000EAH   SFRSYM    DATA     WORD      PI_EK
      000000B8H.3 SFRSYM    DATA     BIT       PX01
      000000B8H.4 SFRSYM    DATA     BIT       PX10
      000000F8H.2 SFRSYM    DATA     BIT       OISVH
      000000B8H.5 SFRSYM    DATA     BIT       PX11
      000000F8H.1 SFRSYM    DATA     BIT       OISUL
      000000DDH   SFRSYM    DATA     BYTE      LPF_K
      000000F2H   SFRSYM    DATA     WORD      PI_KI
      000000A8H   SFRSYM    DATA     BYTE      IE
      000000F8H.3 SFRSYM    DATA     BIT       OISVL
      000000EEH   SFRSYM    DATA     WORD      PI_KP
      000000AAH   SFRSYM    DATA     WORD      TIM2__CNTR
      000000A2H   SFRSYM    DATA     WORD      TIM3__CNTR
      00000092H   SFRSYM    DATA     WORD      TIM4__CNTR
      000000ECH   SFRSYM    DATA     WORD      PI_UK
      000000DEH   SFRSYM    DATA     WORD      LPF_X
      00000098H.0 SFRSYM    DATA     BIT       RI
      00000098H.6 SFRSYM    DATA     BIT       UT_MOD0
      000000E6H   SFRSYM    DATA     WORD      LPF_Y
      00000098H.7 SFRSYM    DATA     BIT       UT_MOD1
      000000D0H.7 SFRSYM    DATA     BIT       CY
      00000098H.1 SFRSYM    DATA     BIT       TI
      000000C0H.2 SFRSYM    DATA     BIT       PTIM10
      00000084H   SFRSYM    DATA     BYTE      FLA_KEY
      000000C0H.0 SFRSYM    DATA     BIT       PTIM20
      000000C0H.3 SFRSYM    DATA     BIT       PTIM11
      00000098H   SFRSYM    DATA     BYTE      UT_CR
      000000C8H.2 SFRSYM    DATA     BIT       PTIM30
      000000C0H.1 SFRSYM    DATA     BIT       PTIM21
      00000099H   SFRSYM    DATA     BYTE      UT_DR
      000000C8H.3 SFRSYM    DATA     BIT       PTIM31
      000000D0H.2 SFRSYM    DATA     BIT       OV
      0000009AH   SFRSYM    DATA     WORD      UT_BAUD
      000000C4H   SFRSYM    DATA     WORD      MDU_DA01
LX51 LINKER/LOCATER V4.66.100.0                                                       10/12/2023  14:31:55  PAGE 134


      000000CCH   SFRSYM    DATA     WORD      MDU_DB01
      00000087H   SFRSYM    DATA     BYTE      PCON
      000000C6H   SFRSYM    DATA     WORD      MDU_DA23
      00000088H   SFRSYM    DATA     BYTE      TCON
      00000082H   SFRSYM    DATA     WORD      DPTR
      000000D8H.0 SFRSYM    DATA     BIT       PUART0
      000000D8H.1 SFRSYM    DATA     BIT       PUART1
      000000D8H.2 SFRSYM    DATA     BIT       PI2C0
      00000088H.2 SFRSYM    DATA     BIT       IF0
      000000D8H.3 SFRSYM    DATA     BIT       PI2C1
      000000AEH   SFRSYM    DATA     WORD      TIM2__ARR
      000000A1H   SFRSYM    DATA     BYTE      TIM2_CR0
      000000A6H   SFRSYM    DATA     WORD      TIM3__ARR
      0000009CH   SFRSYM    DATA     BYTE      TIM3_CR0
      000000A9H   SFRSYM    DATA     BYTE      TIM2_CR1
      00000096H   SFRSYM    DATA     WORD      TIM4__ARR
      0000009EH   SFRSYM    DATA     BYTE      TIM4_CR0
      0000009DH   SFRSYM    DATA     BYTE      TIM3_CR1
      000000F8H   SFRSYM    DATA     BYTE      DRV_OUT
      0000009FH   SFRSYM    DATA     BYTE      TIM4_CR1
      000000DBH   SFRSYM    DATA     BYTE      LVSR
      000000A8H.4 SFRSYM    DATA     BIT       ES0
      00000085H   SFRSYM    DATA     BYTE      FLA_CR
      000000C0H.4 SFRSYM    DATA     BIT       PADC0
      000000B8H   SFRSYM    DATA     BYTE      IP0
      000000C0H.5 SFRSYM    DATA     BIT       PADC1
      000000C0H   SFRSYM    DATA     BYTE      IP1
      000000C8H   SFRSYM    DATA     BYTE      IP2
      00000098H.2 SFRSYM    DATA     BIT       RB8
      000000D8H   SFRSYM    DATA     BYTE      IP3
      000000A8H.0 SFRSYM    DATA     BIT       EX0
      00000098H.3 SFRSYM    DATA     BIT       TB8
      000000A8H.2 SFRSYM    DATA     BIT       EX1
      000000D0H.0 SFRSYM    DATA     BIT       P
      000000F9H   SFRSYM    DATA     BYTE      PI_LPF_CR
      00000098H.5 SFRSYM    DATA     BIT       SM2
      000000D8H.6 SFRSYM    DATA     BIT       PDMA0
      000000D8H.7 SFRSYM    DATA     BIT       PDMA1
      000000C2H   SFRSYM    DATA     WORD      MDU_MA
      000000D0H.3 SFRSYM    DATA     BIT       RS0
      000000CAH   SFRSYM    DATA     WORD      MDU_MB
      000000D0H.4 SFRSYM    DATA     BIT       RS1
      000000C1H   SFRSYM    DATA     BYTE      MDU_CR
      000000F8H.7 SFRSYM    DATA     BIT       MOE
      000000C0H.6 SFRSYM    DATA     BIT       PCMP0
      000000C0H.7 SFRSYM    DATA     BIT       PCMP1
      000000F8H.4 SFRSYM    DATA     BIT       OISWXH
      00000098H.4 SFRSYM    DATA     BIT       REN
      000000D7H   SFRSYM    DATA     BYTE      CMP_SR
      000000F8H.5 SFRSYM    DATA     BIT       OISWXL
      000000C8H.6 SFRSYM    DATA     BIT       PTSD0
      000000D8H.4 SFRSYM    DATA     BIT       PSPI0
      000000C8H.7 SFRSYM    DATA     BIT       PTSD1
      000000B8H.6 SFRSYM    DATA     BIT       PDRV0
      000000D8H.5 SFRSYM    DATA     BIT       PSPI1
      000000B8H.7 SFRSYM    DATA     BIT       PDRV1
      000000D1H   SFRSYM    DATA     BYTE      P1_IE
      000000D3H   SFRSYM    DATA     BYTE      P2_IE
      000000D2H   SFRSYM    DATA     BYTE      P1_IF
      000000D4H   SFRSYM    DATA     BYTE      P2_IF
      000000ACH   SFRSYM    DATA     WORD      TIM2__DR
      000000C8H.4 SFRSYM    DATA     BIT       PTIM4S0
      000000FCH   SFRSYM    DATA     BYTE      P0_OE
      000000A4H   SFRSYM    DATA     WORD      TIM3__DR
      000000C8H.5 SFRSYM    DATA     BIT       PTIM4S1
LX51 LINKER/LOCATER V4.66.100.0                                                       10/12/2023  14:31:55  PAGE 135


      000000FDH   SFRSYM    DATA     BYTE      P1_OE
      00000094H   SFRSYM    DATA     WORD      TIM4__DR
      000000D0H.5 SFRSYM    DATA     BIT       F0
      000000FEH   SFRSYM    DATA     BYTE      P2_OE
      000000D0H.1 SFRSYM    DATA     BIT       F1
      000000FFH   SFRSYM    DATA     BYTE      P3_OE
      00000080H.0 SFRSYM    DATA     BIT       GP00
      000000E9H   SFRSYM    DATA     BYTE      P4_OE
      00000090H.0 SFRSYM    DATA     BIT       GP10
      00000080H.1 SFRSYM    DATA     BIT       GP01
      000000A0H.0 SFRSYM    DATA     BIT       GP20
      00000090H.1 SFRSYM    DATA     BIT       GP11
      00000080H.2 SFRSYM    DATA     BIT       GP02
      000000B0H.0 SFRSYM    DATA     BIT       GP30
      000000A0H.1 SFRSYM    DATA     BIT       GP21
      00000090H.2 SFRSYM    DATA     BIT       GP12
      00000080H.3 SFRSYM    DATA     BIT       GP03
      000000B8H.0 SFRSYM    DATA     BIT       PLVW0
      000000A8H.1 SFRSYM    DATA     BIT       TSDIE
      000000D0H   SFRSYM    DATA     BYTE      PSW
      000000E8H.0 SFRSYM    DATA     BIT       GP40
      000000B0H.1 SFRSYM    DATA     BIT       GP31
      000000A0H.2 SFRSYM    DATA     BIT       GP22
      00000090H.3 SFRSYM    DATA     BIT       GP13
      00000080H.4 SFRSYM    DATA     BIT       GP04
      000000B8H.1 SFRSYM    DATA     BIT       PLVW1
      000000A8H.3 SFRSYM    DATA     BIT       SPIIE
      00000088H.5 SFRSYM    DATA     BIT       TSDIF
      000000E8H.1 SFRSYM    DATA     BIT       GP41
      000000B0H.2 SFRSYM    DATA     BIT       GP32
      000000A0H.3 SFRSYM    DATA     BIT       GP23
      00000090H.4 SFRSYM    DATA     BIT       GP14
      00000080H.5 SFRSYM    DATA     BIT       GP05
      000000C4H   SFRSYM    DATA     BYTE      MDU_DA0
      000000E8H.2 SFRSYM    DATA     BIT       GP42
      000000B0H.3 SFRSYM    DATA     BIT       GP33
      000000A0H.4 SFRSYM    DATA     BIT       GP24
      00000090H.5 SFRSYM    DATA     BIT       GP15
      00000080H.6 SFRSYM    DATA     BIT       GP06
      000000CCH   SFRSYM    DATA     BYTE      MDU_DB0
      000000C5H   SFRSYM    DATA     BYTE      MDU_DA1
      00000088H.0 SFRSYM    DATA     BIT       IT00

      01003098H   BLOCK     CODE     ---       LVL=0
      01003098H   BLOCK     CODE     NEAR LAB  LVL=1
      00000006H   SYMBOL    DATA     WORD      ADCVREF_DelayCnt
      ---         BLOCKEND  ---      ---       LVL=1
      01003098H   LINE      CODE     ---       #23
      01003098H   LINE      CODE     ---       #24
      01003098H   LINE      CODE     ---       #27
      0100309FH   LINE      CODE     ---       #28
      010030A6H   LINE      CODE     ---       #33
      010030ADH   LINE      CODE     ---       #41
      010030B4H   LINE      CODE     ---       #43
      010030C7H   LINE      CODE     ---       #57
      010030CEH   LINE      CODE     ---       #59
      010030D5H   LINE      CODE     ---       #60
      010030EBH   LINE      CODE     ---       #63
      01003101H   LINE      CODE     ---       #64
      01003107H   LINE      CODE     ---       #66
      0100310CH   LINE      CODE     ---       #67
      ---         BLOCKEND  ---      ---       LVL=0

      ---         MODULE    ---      ---       CMPINIT
      01003907H   PUBLIC    CODE     ---       CMP3_Inter_Init
LX51 LINKER/LOCATER V4.66.100.0                                                       10/12/2023  14:31:55  PAGE 136


      0100356DH   PUBLIC    CODE     ---       CMP3_Init
      000000B0H.4 SFRSYM    DATA     BIT       GP34
      000000A0H.5 SFRSYM    DATA     BIT       GP25
      00000090H.6 SFRSYM    DATA     BIT       GP16
      00000080H.7 SFRSYM    DATA     BIT       GP07
      000000CDH   SFRSYM    DATA     BYTE      MDU_DB1
      000000C6H   SFRSYM    DATA     BYTE      MDU_DA2
      00000088H.1 SFRSYM    DATA     BIT       IT01
      00000088H.3 SFRSYM    DATA     BIT       IT10
      000000B0H.5 SFRSYM    DATA     BIT       GP35
      000000A0H.6 SFRSYM    DATA     BIT       GP26
      00000090H.7 SFRSYM    DATA     BIT       GP17
      00000080H   SFRSYM    DATA     BYTE      P0
      000000F6H   SFRSYM    DATA     WORD      PI_UKMIN
      000000C7H   SFRSYM    DATA     BYTE      MDU_DA3
      00000088H.4 SFRSYM    DATA     BIT       IT11
      000000C9H   SFRSYM    DATA     BYTE      RST_SR
      000000D9H   SFRSYM    DATA     BYTE      EVT_FILT
      000000B0H.6 SFRSYM    DATA     BIT       GP36
      000000A0H.7 SFRSYM    DATA     BIT       GP27
      00000090H   SFRSYM    DATA     BYTE      P1
      000000B0H.7 SFRSYM    DATA     BIT       GP37
      000000A0H   SFRSYM    DATA     BYTE      P2
      000000F4H   SFRSYM    DATA     WORD      PI_UKMAX
      000000B0H   SFRSYM    DATA     BYTE      P3
      000000E8H   SFRSYM    DATA     BYTE      P4
      000000D0H.6 SFRSYM    DATA     BIT       AC
      000000A8H.7 SFRSYM    DATA     BIT       EA
      000000D5H   SFRSYM    DATA     BYTE      CMP_CR0
      000000D6H   SFRSYM    DATA     BYTE      CMP_CR1
      000000DAH   SFRSYM    DATA     BYTE      CMP_CR2
      000000B8H.2 SFRSYM    DATA     BIT       PX00
      000000DCH   SFRSYM    DATA     BYTE      CMP_CR3
      000000F8H.0 SFRSYM    DATA     BIT       OISUH
      000000EAH   SFRSYM    DATA     WORD      PI_EK
      000000B8H.3 SFRSYM    DATA     BIT       PX01
      000000B8H.4 SFRSYM    DATA     BIT       PX10
      000000F8H.2 SFRSYM    DATA     BIT       OISVH
      000000B8H.5 SFRSYM    DATA     BIT       PX11
      000000F8H.1 SFRSYM    DATA     BIT       OISUL
      000000DDH   SFRSYM    DATA     BYTE      LPF_K
      000000F2H   SFRSYM    DATA     WORD      PI_KI
      000000A8H   SFRSYM    DATA     BYTE      IE
      000000F8H.3 SFRSYM    DATA     BIT       OISVL
      000000EEH   SFRSYM    DATA     WORD      PI_KP
      000000AAH   SFRSYM    DATA     WORD      TIM2__CNTR
      000000A2H   SFRSYM    DATA     WORD      TIM3__CNTR
      00000092H   SFRSYM    DATA     WORD      TIM4__CNTR
      000000ECH   SFRSYM    DATA     WORD      PI_UK
      000000DEH   SFRSYM    DATA     WORD      LPF_X
      00000098H.0 SFRSYM    DATA     BIT       RI
      00000098H.6 SFRSYM    DATA     BIT       UT_MOD0
      000000E6H   SFRSYM    DATA     WORD      LPF_Y
      00000098H.7 SFRSYM    DATA     BIT       UT_MOD1
      000000D0H.7 SFRSYM    DATA     BIT       CY
      00000098H.1 SFRSYM    DATA     BIT       TI
      000000C0H.2 SFRSYM    DATA     BIT       PTIM10
      00000084H   SFRSYM    DATA     BYTE      FLA_KEY
      000000C0H.0 SFRSYM    DATA     BIT       PTIM20
      000000C0H.3 SFRSYM    DATA     BIT       PTIM11
      00000098H   SFRSYM    DATA     BYTE      UT_CR
      000000C8H.2 SFRSYM    DATA     BIT       PTIM30
      000000C0H.1 SFRSYM    DATA     BIT       PTIM21
      00000099H   SFRSYM    DATA     BYTE      UT_DR
      000000C8H.3 SFRSYM    DATA     BIT       PTIM31
LX51 LINKER/LOCATER V4.66.100.0                                                       10/12/2023  14:31:55  PAGE 137


      000000D0H.2 SFRSYM    DATA     BIT       OV
      0000009AH   SFRSYM    DATA     WORD      UT_BAUD
      000000C4H   SFRSYM    DATA     WORD      MDU_DA01
      000000CCH   SFRSYM    DATA     WORD      MDU_DB01
      00000087H   SFRSYM    DATA     BYTE      PCON
      000000C6H   SFRSYM    DATA     WORD      MDU_DA23
      00000088H   SFRSYM    DATA     BYTE      TCON
      00000082H   SFRSYM    DATA     WORD      DPTR
      000000D8H.0 SFRSYM    DATA     BIT       PUART0
      000000D8H.1 SFRSYM    DATA     BIT       PUART1
      000000D8H.2 SFRSYM    DATA     BIT       PI2C0
      00000088H.2 SFRSYM    DATA     BIT       IF0
      000000D8H.3 SFRSYM    DATA     BIT       PI2C1
      000000AEH   SFRSYM    DATA     WORD      TIM2__ARR
      000000A1H   SFRSYM    DATA     BYTE      TIM2_CR0
      000000A6H   SFRSYM    DATA     WORD      TIM3__ARR
      0000009CH   SFRSYM    DATA     BYTE      TIM3_CR0
      000000A9H   SFRSYM    DATA     BYTE      TIM2_CR1
      00000096H   SFRSYM    DATA     WORD      TIM4__ARR
      0000009EH   SFRSYM    DATA     BYTE      TIM4_CR0
      0000009DH   SFRSYM    DATA     BYTE      TIM3_CR1
      000000F8H   SFRSYM    DATA     BYTE      DRV_OUT
      0000009FH   SFRSYM    DATA     BYTE      TIM4_CR1
      000000DBH   SFRSYM    DATA     BYTE      LVSR
      000000A8H.4 SFRSYM    DATA     BIT       ES0
      00000085H   SFRSYM    DATA     BYTE      FLA_CR
      000000C0H.4 SFRSYM    DATA     BIT       PADC0
      000000B8H   SFRSYM    DATA     BYTE      IP0
      000000C0H.5 SFRSYM    DATA     BIT       PADC1
      000000C0H   SFRSYM    DATA     BYTE      IP1
      000000C8H   SFRSYM    DATA     BYTE      IP2
      00000098H.2 SFRSYM    DATA     BIT       RB8
      000000D8H   SFRSYM    DATA     BYTE      IP3
      000000A8H.0 SFRSYM    DATA     BIT       EX0
      00000098H.3 SFRSYM    DATA     BIT       TB8
      000000A8H.2 SFRSYM    DATA     BIT       EX1
      000000D0H.0 SFRSYM    DATA     BIT       P
      000000F9H   SFRSYM    DATA     BYTE      PI_LPF_CR
      00000098H.5 SFRSYM    DATA     BIT       SM2
      000000D8H.6 SFRSYM    DATA     BIT       PDMA0
      000000D8H.7 SFRSYM    DATA     BIT       PDMA1
      000000C2H   SFRSYM    DATA     WORD      MDU_MA
      000000D0H.3 SFRSYM    DATA     BIT       RS0
      000000CAH   SFRSYM    DATA     WORD      MDU_MB
      000000D0H.4 SFRSYM    DATA     BIT       RS1
      000000C1H   SFRSYM    DATA     BYTE      MDU_CR
      000000F8H.7 SFRSYM    DATA     BIT       MOE
      000000C0H.6 SFRSYM    DATA     BIT       PCMP0
      000000C0H.7 SFRSYM    DATA     BIT       PCMP1
      000000F8H.4 SFRSYM    DATA     BIT       OISWXH
      00000098H.4 SFRSYM    DATA     BIT       REN
      000000D7H   SFRSYM    DATA     BYTE      CMP_SR
      000000F8H.5 SFRSYM    DATA     BIT       OISWXL
      000000C8H.6 SFRSYM    DATA     BIT       PTSD0
      000000D8H.4 SFRSYM    DATA     BIT       PSPI0
      000000C8H.7 SFRSYM    DATA     BIT       PTSD1
      000000B8H.6 SFRSYM    DATA     BIT       PDRV0
      000000D8H.5 SFRSYM    DATA     BIT       PSPI1
      000000B8H.7 SFRSYM    DATA     BIT       PDRV1
      000000D1H   SFRSYM    DATA     BYTE      P1_IE
      000000D3H   SFRSYM    DATA     BYTE      P2_IE
      000000D2H   SFRSYM    DATA     BYTE      P1_IF
      000000D4H   SFRSYM    DATA     BYTE      P2_IF
      000000ACH   SFRSYM    DATA     WORD      TIM2__DR
      000000C8H.4 SFRSYM    DATA     BIT       PTIM4S0
LX51 LINKER/LOCATER V4.66.100.0                                                       10/12/2023  14:31:55  PAGE 138


      000000FCH   SFRSYM    DATA     BYTE      P0_OE
      000000A4H   SFRSYM    DATA     WORD      TIM3__DR
      000000C8H.5 SFRSYM    DATA     BIT       PTIM4S1
      000000FDH   SFRSYM    DATA     BYTE      P1_OE
      00000094H   SFRSYM    DATA     WORD      TIM4__DR
      000000D0H.5 SFRSYM    DATA     BIT       F0
      000000FEH   SFRSYM    DATA     BYTE      P2_OE
      000000D0H.1 SFRSYM    DATA     BIT       F1
      000000FFH   SFRSYM    DATA     BYTE      P3_OE
      00000080H.0 SFRSYM    DATA     BIT       GP00
      000000E9H   SFRSYM    DATA     BYTE      P4_OE
      00000090H.0 SFRSYM    DATA     BIT       GP10
      00000080H.1 SFRSYM    DATA     BIT       GP01
      000000A0H.0 SFRSYM    DATA     BIT       GP20
      00000090H.1 SFRSYM    DATA     BIT       GP11
      00000080H.2 SFRSYM    DATA     BIT       GP02
      000000B0H.0 SFRSYM    DATA     BIT       GP30
      000000A0H.1 SFRSYM    DATA     BIT       GP21
      00000090H.2 SFRSYM    DATA     BIT       GP12
      00000080H.3 SFRSYM    DATA     BIT       GP03
      000000B8H.0 SFRSYM    DATA     BIT       PLVW0
      000000A8H.1 SFRSYM    DATA     BIT       TSDIE
      000000D0H   SFRSYM    DATA     BYTE      PSW
      000000E8H.0 SFRSYM    DATA     BIT       GP40
      000000B0H.1 SFRSYM    DATA     BIT       GP31
      000000A0H.2 SFRSYM    DATA     BIT       GP22
      00000090H.3 SFRSYM    DATA     BIT       GP13
      00000080H.4 SFRSYM    DATA     BIT       GP04
      000000B8H.1 SFRSYM    DATA     BIT       PLVW1
      000000A8H.3 SFRSYM    DATA     BIT       SPIIE
      00000088H.5 SFRSYM    DATA     BIT       TSDIF
      000000E8H.1 SFRSYM    DATA     BIT       GP41
      000000B0H.2 SFRSYM    DATA     BIT       GP32
      000000A0H.3 SFRSYM    DATA     BIT       GP23
      00000090H.4 SFRSYM    DATA     BIT       GP14
      00000080H.5 SFRSYM    DATA     BIT       GP05
      000000C4H   SFRSYM    DATA     BYTE      MDU_DA0
      000000E8H.2 SFRSYM    DATA     BIT       GP42
      000000B0H.3 SFRSYM    DATA     BIT       GP33
      000000A0H.4 SFRSYM    DATA     BIT       GP24
      00000090H.5 SFRSYM    DATA     BIT       GP15
      00000080H.6 SFRSYM    DATA     BIT       GP06
      000000CCH   SFRSYM    DATA     BYTE      MDU_DB0
      000000C5H   SFRSYM    DATA     BYTE      MDU_DA1
      00000088H.0 SFRSYM    DATA     BIT       IT00

      0100356DH   BLOCK     CODE     ---       LVL=0
      0100356DH   LINE      CODE     ---       #22
      0100356DH   LINE      CODE     ---       #23
      0100356DH   LINE      CODE     ---       #25
      0100356DH   LINE      CODE     ---       #26
      01003574H   LINE      CODE     ---       #28
      01003577H   LINE      CODE     ---       #29
      01003577H   LINE      CODE     ---       #50
      01003577H   LINE      CODE     ---       #51
      0100357BH   LINE      CODE     ---       #52
      0100357EH   LINE      CODE     ---       #58
      01003585H   LINE      CODE     ---       #60
      0100358BH   LINE      CODE     ---       #63
      01003592H   LINE      CODE     ---       #64
      01003592H   LINE      CODE     ---       #67
      01003595H   LINE      CODE     ---       #73
      01003598H   LINE      CODE     ---       #79
      010035A0H   LINE      CODE     ---       #85
      010035A8H   LINE      CODE     ---       #88
LX51 LINKER/LOCATER V4.66.100.0                                                       10/12/2023  14:31:55  PAGE 139


      010035ABH   LINE      CODE     ---       #90
      ---         BLOCKEND  ---      ---       LVL=0

      01003907H   BLOCK     CODE     ---       LVL=0
      01003907H   LINE      CODE     ---       #92
      01003907H   LINE      CODE     ---       #93
      01003907H   LINE      CODE     ---       #98
      0100390AH   LINE      CODE     ---       #99
      01003912H   LINE      CODE     ---       #101
      01003914H   LINE      CODE     ---       #102
      01003916H   LINE      CODE     ---       #104
      01003918H   LINE      CODE     ---       #105
      ---         BLOCKEND  ---      ---       LVL=0

      ---         MODULE    ---      ---       GPIOINIT
      010033B5H   PUBLIC    CODE     ---       GPIO_Init
      000000B0H.4 SFRSYM    DATA     BIT       GP34
      000000A0H.5 SFRSYM    DATA     BIT       GP25
      00000090H.6 SFRSYM    DATA     BIT       GP16
      00000080H.7 SFRSYM    DATA     BIT       GP07
      000000CDH   SFRSYM    DATA     BYTE      MDU_DB1
      000000C6H   SFRSYM    DATA     BYTE      MDU_DA2
      00000088H.1 SFRSYM    DATA     BIT       IT01
      00000088H.3 SFRSYM    DATA     BIT       IT10
      000000B0H.5 SFRSYM    DATA     BIT       GP35
      000000A0H.6 SFRSYM    DATA     BIT       GP26
      00000090H.7 SFRSYM    DATA     BIT       GP17
      00000080H   SFRSYM    DATA     BYTE      P0
      000000F6H   SFRSYM    DATA     WORD      PI_UKMIN
      000000C7H   SFRSYM    DATA     BYTE      MDU_DA3
      00000088H.4 SFRSYM    DATA     BIT       IT11
      000000C9H   SFRSYM    DATA     BYTE      RST_SR
      000000D9H   SFRSYM    DATA     BYTE      EVT_FILT
      000000B0H.6 SFRSYM    DATA     BIT       GP36
      000000A0H.7 SFRSYM    DATA     BIT       GP27
      00000090H   SFRSYM    DATA     BYTE      P1
      000000B0H.7 SFRSYM    DATA     BIT       GP37
      000000A0H   SFRSYM    DATA     BYTE      P2
      000000F4H   SFRSYM    DATA     WORD      PI_UKMAX
      000000B0H   SFRSYM    DATA     BYTE      P3
      000000E8H   SFRSYM    DATA     BYTE      P4
      000000D0H.6 SFRSYM    DATA     BIT       AC
      000000A8H.7 SFRSYM    DATA     BIT       EA
      000000D5H   SFRSYM    DATA     BYTE      CMP_CR0
      000000D6H   SFRSYM    DATA     BYTE      CMP_CR1
      000000DAH   SFRSYM    DATA     BYTE      CMP_CR2
      000000B8H.2 SFRSYM    DATA     BIT       PX00
      000000DCH   SFRSYM    DATA     BYTE      CMP_CR3
      000000F8H.0 SFRSYM    DATA     BIT       OISUH
      000000EAH   SFRSYM    DATA     WORD      PI_EK
      000000B8H.3 SFRSYM    DATA     BIT       PX01
      000000B8H.4 SFRSYM    DATA     BIT       PX10
      000000F8H.2 SFRSYM    DATA     BIT       OISVH
      000000B8H.5 SFRSYM    DATA     BIT       PX11
      000000F8H.1 SFRSYM    DATA     BIT       OISUL
      000000DDH   SFRSYM    DATA     BYTE      LPF_K
      000000F2H   SFRSYM    DATA     WORD      PI_KI
      000000A8H   SFRSYM    DATA     BYTE      IE
      000000F8H.3 SFRSYM    DATA     BIT       OISVL
      000000EEH   SFRSYM    DATA     WORD      PI_KP
      000000AAH   SFRSYM    DATA     WORD      TIM2__CNTR
      000000A2H   SFRSYM    DATA     WORD      TIM3__CNTR
      00000092H   SFRSYM    DATA     WORD      TIM4__CNTR
      000000ECH   SFRSYM    DATA     WORD      PI_UK
      000000DEH   SFRSYM    DATA     WORD      LPF_X
LX51 LINKER/LOCATER V4.66.100.0                                                       10/12/2023  14:31:55  PAGE 140


      00000098H.0 SFRSYM    DATA     BIT       RI
      00000098H.6 SFRSYM    DATA     BIT       UT_MOD0
      000000E6H   SFRSYM    DATA     WORD      LPF_Y
      00000098H.7 SFRSYM    DATA     BIT       UT_MOD1
      000000D0H.7 SFRSYM    DATA     BIT       CY
      00000098H.1 SFRSYM    DATA     BIT       TI
      000000C0H.2 SFRSYM    DATA     BIT       PTIM10
      00000084H   SFRSYM    DATA     BYTE      FLA_KEY
      000000C0H.0 SFRSYM    DATA     BIT       PTIM20
      000000C0H.3 SFRSYM    DATA     BIT       PTIM11
      00000098H   SFRSYM    DATA     BYTE      UT_CR
      000000C8H.2 SFRSYM    DATA     BIT       PTIM30
      000000C0H.1 SFRSYM    DATA     BIT       PTIM21
      00000099H   SFRSYM    DATA     BYTE      UT_DR
      000000C8H.3 SFRSYM    DATA     BIT       PTIM31
      000000D0H.2 SFRSYM    DATA     BIT       OV
      0000009AH   SFRSYM    DATA     WORD      UT_BAUD
      000000C4H   SFRSYM    DATA     WORD      MDU_DA01
      000000CCH   SFRSYM    DATA     WORD      MDU_DB01
      00000087H   SFRSYM    DATA     BYTE      PCON
      000000C6H   SFRSYM    DATA     WORD      MDU_DA23
      00000088H   SFRSYM    DATA     BYTE      TCON
      00000082H   SFRSYM    DATA     WORD      DPTR
      000000D8H.0 SFRSYM    DATA     BIT       PUART0
      000000D8H.1 SFRSYM    DATA     BIT       PUART1
      000000D8H.2 SFRSYM    DATA     BIT       PI2C0
      00000088H.2 SFRSYM    DATA     BIT       IF0
      000000D8H.3 SFRSYM    DATA     BIT       PI2C1
      000000AEH   SFRSYM    DATA     WORD      TIM2__ARR
      000000A1H   SFRSYM    DATA     BYTE      TIM2_CR0
      000000A6H   SFRSYM    DATA     WORD      TIM3__ARR
      0000009CH   SFRSYM    DATA     BYTE      TIM3_CR0
      000000A9H   SFRSYM    DATA     BYTE      TIM2_CR1
      00000096H   SFRSYM    DATA     WORD      TIM4__ARR
      0000009EH   SFRSYM    DATA     BYTE      TIM4_CR0
      0000009DH   SFRSYM    DATA     BYTE      TIM3_CR1
      000000F8H   SFRSYM    DATA     BYTE      DRV_OUT
      0000009FH   SFRSYM    DATA     BYTE      TIM4_CR1
      000000DBH   SFRSYM    DATA     BYTE      LVSR
      000000A8H.4 SFRSYM    DATA     BIT       ES0
      00000085H   SFRSYM    DATA     BYTE      FLA_CR
      000000C0H.4 SFRSYM    DATA     BIT       PADC0
      000000B8H   SFRSYM    DATA     BYTE      IP0
      000000C0H.5 SFRSYM    DATA     BIT       PADC1
      000000C0H   SFRSYM    DATA     BYTE      IP1
      000000C8H   SFRSYM    DATA     BYTE      IP2
      00000098H.2 SFRSYM    DATA     BIT       RB8
      000000D8H   SFRSYM    DATA     BYTE      IP3
      000000A8H.0 SFRSYM    DATA     BIT       EX0
      00000098H.3 SFRSYM    DATA     BIT       TB8
      000000A8H.2 SFRSYM    DATA     BIT       EX1
      000000D0H.0 SFRSYM    DATA     BIT       P
      000000F9H   SFRSYM    DATA     BYTE      PI_LPF_CR
      00000098H.5 SFRSYM    DATA     BIT       SM2
      000000D8H.6 SFRSYM    DATA     BIT       PDMA0
      000000D8H.7 SFRSYM    DATA     BIT       PDMA1
      000000C2H   SFRSYM    DATA     WORD      MDU_MA
      000000D0H.3 SFRSYM    DATA     BIT       RS0
      000000CAH   SFRSYM    DATA     WORD      MDU_MB
      000000D0H.4 SFRSYM    DATA     BIT       RS1
      000000C1H   SFRSYM    DATA     BYTE      MDU_CR
      000000F8H.7 SFRSYM    DATA     BIT       MOE
      000000C0H.6 SFRSYM    DATA     BIT       PCMP0
      000000C0H.7 SFRSYM    DATA     BIT       PCMP1
      000000F8H.4 SFRSYM    DATA     BIT       OISWXH
LX51 LINKER/LOCATER V4.66.100.0                                                       10/12/2023  14:31:55  PAGE 141


      00000098H.4 SFRSYM    DATA     BIT       REN
      000000D7H   SFRSYM    DATA     BYTE      CMP_SR
      000000F8H.5 SFRSYM    DATA     BIT       OISWXL
      000000C8H.6 SFRSYM    DATA     BIT       PTSD0
      000000D8H.4 SFRSYM    DATA     BIT       PSPI0
      000000C8H.7 SFRSYM    DATA     BIT       PTSD1
      000000B8H.6 SFRSYM    DATA     BIT       PDRV0
      000000D8H.5 SFRSYM    DATA     BIT       PSPI1
      000000B8H.7 SFRSYM    DATA     BIT       PDRV1
      000000D1H   SFRSYM    DATA     BYTE      P1_IE
      000000D3H   SFRSYM    DATA     BYTE      P2_IE
      000000D2H   SFRSYM    DATA     BYTE      P1_IF
      000000D4H   SFRSYM    DATA     BYTE      P2_IF
      000000ACH   SFRSYM    DATA     WORD      TIM2__DR
      000000C8H.4 SFRSYM    DATA     BIT       PTIM4S0
      000000FCH   SFRSYM    DATA     BYTE      P0_OE
      000000A4H   SFRSYM    DATA     WORD      TIM3__DR
      000000C8H.5 SFRSYM    DATA     BIT       PTIM4S1
      000000FDH   SFRSYM    DATA     BYTE      P1_OE
      00000094H   SFRSYM    DATA     WORD      TIM4__DR
      000000D0H.5 SFRSYM    DATA     BIT       F0
      000000FEH   SFRSYM    DATA     BYTE      P2_OE
      000000D0H.1 SFRSYM    DATA     BIT       F1
      000000FFH   SFRSYM    DATA     BYTE      P3_OE
      00000080H.0 SFRSYM    DATA     BIT       GP00
      000000E9H   SFRSYM    DATA     BYTE      P4_OE
      00000090H.0 SFRSYM    DATA     BIT       GP10
      00000080H.1 SFRSYM    DATA     BIT       GP01
      000000A0H.0 SFRSYM    DATA     BIT       GP20
      00000090H.1 SFRSYM    DATA     BIT       GP11
      00000080H.2 SFRSYM    DATA     BIT       GP02
      000000B0H.0 SFRSYM    DATA     BIT       GP30
      000000A0H.1 SFRSYM    DATA     BIT       GP21
      00000090H.2 SFRSYM    DATA     BIT       GP12
      00000080H.3 SFRSYM    DATA     BIT       GP03
      000000B8H.0 SFRSYM    DATA     BIT       PLVW0
      000000A8H.1 SFRSYM    DATA     BIT       TSDIE
      000000D0H   SFRSYM    DATA     BYTE      PSW
      000000E8H.0 SFRSYM    DATA     BIT       GP40
      000000B0H.1 SFRSYM    DATA     BIT       GP31
      000000A0H.2 SFRSYM    DATA     BIT       GP22
      00000090H.3 SFRSYM    DATA     BIT       GP13
      00000080H.4 SFRSYM    DATA     BIT       GP04
      000000B8H.1 SFRSYM    DATA     BIT       PLVW1
      000000A8H.3 SFRSYM    DATA     BIT       SPIIE
      00000088H.5 SFRSYM    DATA     BIT       TSDIF
      000000E8H.1 SFRSYM    DATA     BIT       GP41
      000000B0H.2 SFRSYM    DATA     BIT       GP32
      000000A0H.3 SFRSYM    DATA     BIT       GP23
      00000090H.4 SFRSYM    DATA     BIT       GP14
      00000080H.5 SFRSYM    DATA     BIT       GP05
      000000C4H   SFRSYM    DATA     BYTE      MDU_DA0
      000000E8H.2 SFRSYM    DATA     BIT       GP42
      000000B0H.3 SFRSYM    DATA     BIT       GP33
      000000A0H.4 SFRSYM    DATA     BIT       GP24
      00000090H.5 SFRSYM    DATA     BIT       GP15
      00000080H.6 SFRSYM    DATA     BIT       GP06
      000000CCH   SFRSYM    DATA     BYTE      MDU_DB0
      000000C5H   SFRSYM    DATA     BYTE      MDU_DA1
      00000088H.0 SFRSYM    DATA     BIT       IT00

      010033B5H   BLOCK     CODE     ---       LVL=0
      010033B5H   LINE      CODE     ---       #46
      010033B5H   LINE      CODE     ---       #47
      010033B5H   LINE      CODE     ---       #48
LX51 LINKER/LOCATER V4.66.100.0                                                       10/12/2023  14:31:55  PAGE 142


      010033BCH   LINE      CODE     ---       #49
      010033C0H   LINE      CODE     ---       #51
      010033C3H   LINE      CODE     ---       #52
      010033C5H   LINE      CODE     ---       #53
      010033C8H   LINE      CODE     ---       #54
      010033CAH   LINE      CODE     ---       #55
      010033CDH   LINE      CODE     ---       #56
      010033CFH   LINE      CODE     ---       #57
      010033D2H   LINE      CODE     ---       #58
      010033D4H   LINE      CODE     ---       #59
      010033D7H   LINE      CODE     ---       #60
      010033D9H   LINE      CODE     ---       #61
      010033DCH   LINE      CODE     ---       #62
      010033DEH   LINE      CODE     ---       #64
      010033E1H   LINE      CODE     ---       #65
      010033E6H   LINE      CODE     ---       #66
      010033E8H   LINE      CODE     ---       #67
      010033EBH   LINE      CODE     ---       #68
      010033EFH   LINE      CODE     ---       #69
      010033F1H   LINE      CODE     ---       #71
      010033F4H   LINE      CODE     ---       #72
      010033F8H   LINE      CODE     ---       #73
      010033FBH   LINE      CODE     ---       #74
      010033FFH   LINE      CODE     ---       #75
      01003402H   LINE      CODE     ---       #76
      01003406H   LINE      CODE     ---       #121
      ---         BLOCKEND  ---      ---       LVL=0

      ---         MODULE    ---      ---       MDUINIT
      010032A3H   PUBLIC    CODE     ---       _MDU_DIV_IDATA_U32
      0100310DH   PUBLIC    CODE     ---       _MDU_DIV_XDATA_U32
      000000B0H.4 SFRSYM    DATA     BIT       GP34
      000000A0H.5 SFRSYM    DATA     BIT       GP25
      00000090H.6 SFRSYM    DATA     BIT       GP16
      00000080H.7 SFRSYM    DATA     BIT       GP07
      000000CDH   SFRSYM    DATA     BYTE      MDU_DB1
      000000C6H   SFRSYM    DATA     BYTE      MDU_DA2
      00000088H.1 SFRSYM    DATA     BIT       IT01
      00000088H.3 SFRSYM    DATA     BIT       IT10
      000000B0H.5 SFRSYM    DATA     BIT       GP35
      000000A0H.6 SFRSYM    DATA     BIT       GP26
      00000090H.7 SFRSYM    DATA     BIT       GP17
      00000080H   SFRSYM    DATA     BYTE      P0
      000000F6H   SFRSYM    DATA     WORD      PI_UKMIN
      000000C7H   SFRSYM    DATA     BYTE      MDU_DA3
      00000088H.4 SFRSYM    DATA     BIT       IT11
      000000C9H   SFRSYM    DATA     BYTE      RST_SR
      000000D9H   SFRSYM    DATA     BYTE      EVT_FILT
      000000B0H.6 SFRSYM    DATA     BIT       GP36
      000000A0H.7 SFRSYM    DATA     BIT       GP27
      00000090H   SFRSYM    DATA     BYTE      P1
      000000B0H.7 SFRSYM    DATA     BIT       GP37
      000000A0H   SFRSYM    DATA     BYTE      P2
      000000F4H   SFRSYM    DATA     WORD      PI_UKMAX
      000000B0H   SFRSYM    DATA     BYTE      P3
      000000E8H   SFRSYM    DATA     BYTE      P4
      000000D0H.6 SFRSYM    DATA     BIT       AC
      000000A8H.7 SFRSYM    DATA     BIT       EA
      000000D5H   SFRSYM    DATA     BYTE      CMP_CR0
      000000D6H   SFRSYM    DATA     BYTE      CMP_CR1
      000000DAH   SFRSYM    DATA     BYTE      CMP_CR2
      000000B8H.2 SFRSYM    DATA     BIT       PX00
      000000DCH   SFRSYM    DATA     BYTE      CMP_CR3
      000000F8H.0 SFRSYM    DATA     BIT       OISUH
      000000EAH   SFRSYM    DATA     WORD      PI_EK
LX51 LINKER/LOCATER V4.66.100.0                                                       10/12/2023  14:31:55  PAGE 143


      000000B8H.3 SFRSYM    DATA     BIT       PX01
      000000B8H.4 SFRSYM    DATA     BIT       PX10
      000000F8H.2 SFRSYM    DATA     BIT       OISVH
      000000B8H.5 SFRSYM    DATA     BIT       PX11
      000000F8H.1 SFRSYM    DATA     BIT       OISUL
      000000DDH   SFRSYM    DATA     BYTE      LPF_K
      000000F2H   SFRSYM    DATA     WORD      PI_KI
      000000A8H   SFRSYM    DATA     BYTE      IE
      000000F8H.3 SFRSYM    DATA     BIT       OISVL
      000000EEH   SFRSYM    DATA     WORD      PI_KP
      000000AAH   SFRSYM    DATA     WORD      TIM2__CNTR
      000000A2H   SFRSYM    DATA     WORD      TIM3__CNTR
      00000092H   SFRSYM    DATA     WORD      TIM4__CNTR
      000000ECH   SFRSYM    DATA     WORD      PI_UK
      000000DEH   SFRSYM    DATA     WORD      LPF_X
      00000098H.0 SFRSYM    DATA     BIT       RI
      00000098H.6 SFRSYM    DATA     BIT       UT_MOD0
      000000E6H   SFRSYM    DATA     WORD      LPF_Y
      00000098H.7 SFRSYM    DATA     BIT       UT_MOD1
      000000D0H.7 SFRSYM    DATA     BIT       CY
      00000098H.1 SFRSYM    DATA     BIT       TI
      000000C0H.2 SFRSYM    DATA     BIT       PTIM10
      00000084H   SFRSYM    DATA     BYTE      FLA_KEY
      000000C0H.0 SFRSYM    DATA     BIT       PTIM20
      000000C0H.3 SFRSYM    DATA     BIT       PTIM11
      00000098H   SFRSYM    DATA     BYTE      UT_CR
      000000C8H.2 SFRSYM    DATA     BIT       PTIM30
      000000C0H.1 SFRSYM    DATA     BIT       PTIM21
      00000099H   SFRSYM    DATA     BYTE      UT_DR
      000000C8H.3 SFRSYM    DATA     BIT       PTIM31
      000000D0H.2 SFRSYM    DATA     BIT       OV
      0000009AH   SFRSYM    DATA     WORD      UT_BAUD
      000000C4H   SFRSYM    DATA     WORD      MDU_DA01
      000000CCH   SFRSYM    DATA     WORD      MDU_DB01
      00000087H   SFRSYM    DATA     BYTE      PCON
      000000C6H   SFRSYM    DATA     WORD      MDU_DA23
      00000088H   SFRSYM    DATA     BYTE      TCON
      00000082H   SFRSYM    DATA     WORD      DPTR
      000000D8H.0 SFRSYM    DATA     BIT       PUART0
      000000D8H.1 SFRSYM    DATA     BIT       PUART1
      000000D8H.2 SFRSYM    DATA     BIT       PI2C0
      00000088H.2 SFRSYM    DATA     BIT       IF0
      000000D8H.3 SFRSYM    DATA     BIT       PI2C1
      000000AEH   SFRSYM    DATA     WORD      TIM2__ARR
      000000A1H   SFRSYM    DATA     BYTE      TIM2_CR0
      000000A6H   SFRSYM    DATA     WORD      TIM3__ARR
      0000009CH   SFRSYM    DATA     BYTE      TIM3_CR0
      000000A9H   SFRSYM    DATA     BYTE      TIM2_CR1
      00000096H   SFRSYM    DATA     WORD      TIM4__ARR
      0000009EH   SFRSYM    DATA     BYTE      TIM4_CR0
      0000009DH   SFRSYM    DATA     BYTE      TIM3_CR1
      000000F8H   SFRSYM    DATA     BYTE      DRV_OUT
      0000009FH   SFRSYM    DATA     BYTE      TIM4_CR1
      000000DBH   SFRSYM    DATA     BYTE      LVSR
      000000A8H.4 SFRSYM    DATA     BIT       ES0
      00000085H   SFRSYM    DATA     BYTE      FLA_CR
      000000C0H.4 SFRSYM    DATA     BIT       PADC0
      000000B8H   SFRSYM    DATA     BYTE      IP0
      000000C0H.5 SFRSYM    DATA     BIT       PADC1
      000000C0H   SFRSYM    DATA     BYTE      IP1
      000000C8H   SFRSYM    DATA     BYTE      IP2
      00000098H.2 SFRSYM    DATA     BIT       RB8
      000000D8H   SFRSYM    DATA     BYTE      IP3
      000000A8H.0 SFRSYM    DATA     BIT       EX0
      00000098H.3 SFRSYM    DATA     BIT       TB8
LX51 LINKER/LOCATER V4.66.100.0                                                       10/12/2023  14:31:55  PAGE 144


      000000A8H.2 SFRSYM    DATA     BIT       EX1
      000000D0H.0 SFRSYM    DATA     BIT       P
      000000F9H   SFRSYM    DATA     BYTE      PI_LPF_CR
      00000098H.5 SFRSYM    DATA     BIT       SM2
      000000D8H.6 SFRSYM    DATA     BIT       PDMA0
      000000D8H.7 SFRSYM    DATA     BIT       PDMA1
      000000C2H   SFRSYM    DATA     WORD      MDU_MA
      000000D0H.3 SFRSYM    DATA     BIT       RS0
      000000CAH   SFRSYM    DATA     WORD      MDU_MB
      000000D0H.4 SFRSYM    DATA     BIT       RS1
      000000C1H   SFRSYM    DATA     BYTE      MDU_CR
      000000F8H.7 SFRSYM    DATA     BIT       MOE
      000000C0H.6 SFRSYM    DATA     BIT       PCMP0
      000000C0H.7 SFRSYM    DATA     BIT       PCMP1
      000000F8H.4 SFRSYM    DATA     BIT       OISWXH
      00000098H.4 SFRSYM    DATA     BIT       REN
      000000D7H   SFRSYM    DATA     BYTE      CMP_SR
      000000F8H.5 SFRSYM    DATA     BIT       OISWXL
      000000C8H.6 SFRSYM    DATA     BIT       PTSD0
      000000D8H.4 SFRSYM    DATA     BIT       PSPI0
      000000C8H.7 SFRSYM    DATA     BIT       PTSD1
      000000B8H.6 SFRSYM    DATA     BIT       PDRV0
      000000D8H.5 SFRSYM    DATA     BIT       PSPI1
      000000B8H.7 SFRSYM    DATA     BIT       PDRV1
      000000D1H   SFRSYM    DATA     BYTE      P1_IE
      000000D3H   SFRSYM    DATA     BYTE      P2_IE
      000000D2H   SFRSYM    DATA     BYTE      P1_IF
      000000D4H   SFRSYM    DATA     BYTE      P2_IF
      000000ACH   SFRSYM    DATA     WORD      TIM2__DR
      000000C8H.4 SFRSYM    DATA     BIT       PTIM4S0
      000000FCH   SFRSYM    DATA     BYTE      P0_OE
      000000A4H   SFRSYM    DATA     WORD      TIM3__DR
      000000C8H.5 SFRSYM    DATA     BIT       PTIM4S1
      000000FDH   SFRSYM    DATA     BYTE      P1_OE
      00000094H   SFRSYM    DATA     WORD      TIM4__DR
      000000D0H.5 SFRSYM    DATA     BIT       F0
      000000FEH   SFRSYM    DATA     BYTE      P2_OE
      000000D0H.1 SFRSYM    DATA     BIT       F1
      000000FFH   SFRSYM    DATA     BYTE      P3_OE
      00000080H.0 SFRSYM    DATA     BIT       GP00
      000000E9H   SFRSYM    DATA     BYTE      P4_OE
      00000090H.0 SFRSYM    DATA     BIT       GP10
      00000080H.1 SFRSYM    DATA     BIT       GP01
      000000A0H.0 SFRSYM    DATA     BIT       GP20
      00000090H.1 SFRSYM    DATA     BIT       GP11
      00000080H.2 SFRSYM    DATA     BIT       GP02
      000000B0H.0 SFRSYM    DATA     BIT       GP30
      000000A0H.1 SFRSYM    DATA     BIT       GP21
      00000090H.2 SFRSYM    DATA     BIT       GP12
      00000080H.3 SFRSYM    DATA     BIT       GP03
      000000B8H.0 SFRSYM    DATA     BIT       PLVW0
      000000A8H.1 SFRSYM    DATA     BIT       TSDIE
      000000D0H   SFRSYM    DATA     BYTE      PSW
      000000E8H.0 SFRSYM    DATA     BIT       GP40
      000000B0H.1 SFRSYM    DATA     BIT       GP31
      000000A0H.2 SFRSYM    DATA     BIT       GP22
      00000090H.3 SFRSYM    DATA     BIT       GP13
      00000080H.4 SFRSYM    DATA     BIT       GP04
      000000B8H.1 SFRSYM    DATA     BIT       PLVW1
      000000A8H.3 SFRSYM    DATA     BIT       SPIIE
      00000088H.5 SFRSYM    DATA     BIT       TSDIF
      000000E8H.1 SFRSYM    DATA     BIT       GP41
      000000B0H.2 SFRSYM    DATA     BIT       GP32
      000000A0H.3 SFRSYM    DATA     BIT       GP23
      00000090H.4 SFRSYM    DATA     BIT       GP14
LX51 LINKER/LOCATER V4.66.100.0                                                       10/12/2023  14:31:55  PAGE 145


      00000080H.5 SFRSYM    DATA     BIT       GP05
      000000C4H   SFRSYM    DATA     BYTE      MDU_DA0
      000000E8H.2 SFRSYM    DATA     BIT       GP42
      000000B0H.3 SFRSYM    DATA     BIT       GP33
      000000A0H.4 SFRSYM    DATA     BIT       GP24
      00000090H.5 SFRSYM    DATA     BIT       GP15
      00000080H.6 SFRSYM    DATA     BIT       GP06
      000000CCH   SFRSYM    DATA     BYTE      MDU_DB0
      000000C5H   SFRSYM    DATA     BYTE      MDU_DA1
      00000088H.0 SFRSYM    DATA     BIT       IT00

      0100310DH   BLOCK     CODE     ---       LVL=0
      00000006H   SYMBOL    DATA     ---       TData0
      00000004H   SYMBOL    DATA     ---       TData1
      0100310DH   BLOCK     CODE     NEAR LAB  LVL=1
      02000280H   SYMBOL    XDATA    DWORD     RData32
      00000001H   SYMBOL    DATA     ---       PData16
      ---         BLOCKEND  ---      ---       LVL=1
      0100310DH   LINE      CODE     ---       #23
      0100310DH   LINE      CODE     ---       #24
      0100310DH   LINE      CODE     ---       #29
      01003114H   LINE      CODE     ---       #30
      0100311CH   LINE      CODE     ---       #31
      01003125H   LINE      CODE     ---       #32
      0100312FH   LINE      CODE     ---       #34
      01003136H   LINE      CODE     ---       #35
      01003142H   LINE      CODE     ---       #37
      01003145H   LINE      CODE     ---       #38
      01003150H   LINE      CODE     ---       #40
      01003156H   LINE      CODE     ---       #41
      0100315EH   LINE      CODE     ---       #42
      01003165H   LINE      CODE     ---       #43
      0100316DH   LINE      CODE     ---       #45
      0100317BH   LINE      CODE     ---       #47
      ---         BLOCKEND  ---      ---       LVL=0
      00000006H   SYMBOL    DATA     ---       TData0
      00000004H   SYMBOL    DATA     ---       TData1
      00000001H   SYMBOL    DATA     ---       PData16

      010032A3H   BLOCK     CODE     ---       LVL=0
      00000007H   SYMBOL    DATA     ---       TData0
      00000005H   SYMBOL    DATA     ---       TData1
      010032A3H   BLOCK     CODE     NEAR LAB  LVL=1
      02000280H   SYMBOL    XDATA    DWORD     RData32
      00000001H   SYMBOL    DATA     ---       PData16
      ---         BLOCKEND  ---      ---       LVL=1
      010032A3H   LINE      CODE     ---       #84
      010032A3H   LINE      CODE     ---       #85
      010032A3H   LINE      CODE     ---       #89
      010032A8H   LINE      CODE     ---       #90
      010032AEH   LINE      CODE     ---       #91
      010032B5H   LINE      CODE     ---       #92
      010032BCH   LINE      CODE     ---       #94
      010032C1H   LINE      CODE     ---       #95
      010032C7H   LINE      CODE     ---       #97
      010032CAH   LINE      CODE     ---       #98
      010032D5H   LINE      CODE     ---       #101
      010032DBH   LINE      CODE     ---       #102
      010032E3H   LINE      CODE     ---       #103
      010032EAH   LINE      CODE     ---       #104
      010032F2H   LINE      CODE     ---       #106
      01003300H   LINE      CODE     ---       #108
      ---         BLOCKEND  ---      ---       LVL=0
      00000007H   SYMBOL    DATA     ---       TData0
      00000005H   SYMBOL    DATA     ---       TData1
LX51 LINKER/LOCATER V4.66.100.0                                                       10/12/2023  14:31:55  PAGE 146


      00000001H   SYMBOL    DATA     ---       PData16
      00000007H   SYMBOL    DATA     BYTE      ALIGN
      00000005H   SYMBOL    DATA     BYTE      SIGN
      00000006H   SYMBOL    DATA     WORD      TData0
      00000004H   SYMBOL    DATA     WORD      TData1
      00000002H   SYMBOL    DATA     ---       Result32_t
      00000004H   SYMBOL    DATA     WORD      TData1
      00000003H   SYMBOL    DATA     BYTE      ALIGN
      00000006H   SYMBOL    DATA     WORD      TData0
      00000004H   SYMBOL    DATA     WORD      TData1
      00000002H   SYMBOL    DATA     ---       Result16_t
      00000006H   SYMBOL    DATA     WORD      TData0
      00000004H   SYMBOL    DATA     WORD      TData1
      00000003H   SYMBOL    DATA     ---       Result32_t

      ---         MODULE    ---      ---       PIINIT
      0100377DH   PUBLIC    CODE     ---       PI_Init
      000000B0H.4 SFRSYM    DATA     BIT       GP34
      000000A0H.5 SFRSYM    DATA     BIT       GP25
      00000090H.6 SFRSYM    DATA     BIT       GP16
      00000080H.7 SFRSYM    DATA     BIT       GP07
      000000CDH   SFRSYM    DATA     BYTE      MDU_DB1
      000000C6H   SFRSYM    DATA     BYTE      MDU_DA2
      00000088H.1 SFRSYM    DATA     BIT       IT01
      00000088H.3 SFRSYM    DATA     BIT       IT10
      000000B0H.5 SFRSYM    DATA     BIT       GP35
      000000A0H.6 SFRSYM    DATA     BIT       GP26
      00000090H.7 SFRSYM    DATA     BIT       GP17
      00000080H   SFRSYM    DATA     BYTE      P0
      000000F6H   SFRSYM    DATA     WORD      PI_UKMIN
      000000C7H   SFRSYM    DATA     BYTE      MDU_DA3
      00000088H.4 SFRSYM    DATA     BIT       IT11
      000000C9H   SFRSYM    DATA     BYTE      RST_SR
      000000D9H   SFRSYM    DATA     BYTE      EVT_FILT
      000000B0H.6 SFRSYM    DATA     BIT       GP36
      000000A0H.7 SFRSYM    DATA     BIT       GP27
      00000090H   SFRSYM    DATA     BYTE      P1
      000000B0H.7 SFRSYM    DATA     BIT       GP37
      000000A0H   SFRSYM    DATA     BYTE      P2
      000000F4H   SFRSYM    DATA     WORD      PI_UKMAX
      000000B0H   SFRSYM    DATA     BYTE      P3
      000000E8H   SFRSYM    DATA     BYTE      P4
      000000D0H.6 SFRSYM    DATA     BIT       AC
      000000A8H.7 SFRSYM    DATA     BIT       EA
      000000D5H   SFRSYM    DATA     BYTE      CMP_CR0
      000000D6H   SFRSYM    DATA     BYTE      CMP_CR1
      000000DAH   SFRSYM    DATA     BYTE      CMP_CR2
      000000B8H.2 SFRSYM    DATA     BIT       PX00
      000000DCH   SFRSYM    DATA     BYTE      CMP_CR3
      000000F8H.0 SFRSYM    DATA     BIT       OISUH
      000000EAH   SFRSYM    DATA     WORD      PI_EK
      000000B8H.3 SFRSYM    DATA     BIT       PX01
      000000B8H.4 SFRSYM    DATA     BIT       PX10
      000000F8H.2 SFRSYM    DATA     BIT       OISVH
      000000B8H.5 SFRSYM    DATA     BIT       PX11
      000000F8H.1 SFRSYM    DATA     BIT       OISUL
      000000DDH   SFRSYM    DATA     BYTE      LPF_K
      000000F2H   SFRSYM    DATA     WORD      PI_KI
      000000A8H   SFRSYM    DATA     BYTE      IE
      000000F8H.3 SFRSYM    DATA     BIT       OISVL
      000000EEH   SFRSYM    DATA     WORD      PI_KP
      000000AAH   SFRSYM    DATA     WORD      TIM2__CNTR
      000000A2H   SFRSYM    DATA     WORD      TIM3__CNTR
      00000092H   SFRSYM    DATA     WORD      TIM4__CNTR
      000000ECH   SFRSYM    DATA     WORD      PI_UK
LX51 LINKER/LOCATER V4.66.100.0                                                       10/12/2023  14:31:55  PAGE 147


      000000DEH   SFRSYM    DATA     WORD      LPF_X
      00000098H.0 SFRSYM    DATA     BIT       RI
      00000098H.6 SFRSYM    DATA     BIT       UT_MOD0
      000000E6H   SFRSYM    DATA     WORD      LPF_Y
      00000098H.7 SFRSYM    DATA     BIT       UT_MOD1
      000000D0H.7 SFRSYM    DATA     BIT       CY
      00000098H.1 SFRSYM    DATA     BIT       TI
      000000C0H.2 SFRSYM    DATA     BIT       PTIM10
      00000084H   SFRSYM    DATA     BYTE      FLA_KEY
      000000C0H.0 SFRSYM    DATA     BIT       PTIM20
      000000C0H.3 SFRSYM    DATA     BIT       PTIM11
      00000098H   SFRSYM    DATA     BYTE      UT_CR
      000000C8H.2 SFRSYM    DATA     BIT       PTIM30
      000000C0H.1 SFRSYM    DATA     BIT       PTIM21
      00000099H   SFRSYM    DATA     BYTE      UT_DR
      000000C8H.3 SFRSYM    DATA     BIT       PTIM31
      000000D0H.2 SFRSYM    DATA     BIT       OV
      0000009AH   SFRSYM    DATA     WORD      UT_BAUD
      000000C4H   SFRSYM    DATA     WORD      MDU_DA01
      000000CCH   SFRSYM    DATA     WORD      MDU_DB01
      00000087H   SFRSYM    DATA     BYTE      PCON
      000000C6H   SFRSYM    DATA     WORD      MDU_DA23
      00000088H   SFRSYM    DATA     BYTE      TCON
      00000082H   SFRSYM    DATA     WORD      DPTR
      000000D8H.0 SFRSYM    DATA     BIT       PUART0
      000000D8H.1 SFRSYM    DATA     BIT       PUART1
      000000D8H.2 SFRSYM    DATA     BIT       PI2C0
      00000088H.2 SFRSYM    DATA     BIT       IF0
      000000D8H.3 SFRSYM    DATA     BIT       PI2C1
      000000AEH   SFRSYM    DATA     WORD      TIM2__ARR
      000000A1H   SFRSYM    DATA     BYTE      TIM2_CR0
      000000A6H   SFRSYM    DATA     WORD      TIM3__ARR
      0000009CH   SFRSYM    DATA     BYTE      TIM3_CR0
      000000A9H   SFRSYM    DATA     BYTE      TIM2_CR1
      00000096H   SFRSYM    DATA     WORD      TIM4__ARR
      0000009EH   SFRSYM    DATA     BYTE      TIM4_CR0
      0000009DH   SFRSYM    DATA     BYTE      TIM3_CR1
      000000F8H   SFRSYM    DATA     BYTE      DRV_OUT
      0000009FH   SFRSYM    DATA     BYTE      TIM4_CR1
      000000DBH   SFRSYM    DATA     BYTE      LVSR
      000000A8H.4 SFRSYM    DATA     BIT       ES0
      00000085H   SFRSYM    DATA     BYTE      FLA_CR
      000000C0H.4 SFRSYM    DATA     BIT       PADC0
      000000B8H   SFRSYM    DATA     BYTE      IP0
      000000C0H.5 SFRSYM    DATA     BIT       PADC1
      000000C0H   SFRSYM    DATA     BYTE      IP1
      000000C8H   SFRSYM    DATA     BYTE      IP2
      00000098H.2 SFRSYM    DATA     BIT       RB8
      000000D8H   SFRSYM    DATA     BYTE      IP3
      000000A8H.0 SFRSYM    DATA     BIT       EX0
      00000098H.3 SFRSYM    DATA     BIT       TB8
      000000A8H.2 SFRSYM    DATA     BIT       EX1
      000000D0H.0 SFRSYM    DATA     BIT       P
      000000F9H   SFRSYM    DATA     BYTE      PI_LPF_CR
      00000098H.5 SFRSYM    DATA     BIT       SM2
      000000D8H.6 SFRSYM    DATA     BIT       PDMA0
      000000D8H.7 SFRSYM    DATA     BIT       PDMA1
      000000C2H   SFRSYM    DATA     WORD      MDU_MA
      000000D0H.3 SFRSYM    DATA     BIT       RS0
      000000CAH   SFRSYM    DATA     WORD      MDU_MB
      000000D0H.4 SFRSYM    DATA     BIT       RS1
      000000C1H   SFRSYM    DATA     BYTE      MDU_CR
      000000F8H.7 SFRSYM    DATA     BIT       MOE
      000000C0H.6 SFRSYM    DATA     BIT       PCMP0
      000000C0H.7 SFRSYM    DATA     BIT       PCMP1
LX51 LINKER/LOCATER V4.66.100.0                                                       10/12/2023  14:31:55  PAGE 148


      000000F8H.4 SFRSYM    DATA     BIT       OISWXH
      00000098H.4 SFRSYM    DATA     BIT       REN
      000000D7H   SFRSYM    DATA     BYTE      CMP_SR
      000000F8H.5 SFRSYM    DATA     BIT       OISWXL
      000000C8H.6 SFRSYM    DATA     BIT       PTSD0
      000000D8H.4 SFRSYM    DATA     BIT       PSPI0
      000000C8H.7 SFRSYM    DATA     BIT       PTSD1
      000000B8H.6 SFRSYM    DATA     BIT       PDRV0
      000000D8H.5 SFRSYM    DATA     BIT       PSPI1
      000000B8H.7 SFRSYM    DATA     BIT       PDRV1
      000000D1H   SFRSYM    DATA     BYTE      P1_IE
      000000D3H   SFRSYM    DATA     BYTE      P2_IE
      000000D2H   SFRSYM    DATA     BYTE      P1_IF
      000000D4H   SFRSYM    DATA     BYTE      P2_IF
      000000ACH   SFRSYM    DATA     WORD      TIM2__DR
      000000C8H.4 SFRSYM    DATA     BIT       PTIM4S0
      000000FCH   SFRSYM    DATA     BYTE      P0_OE
      000000A4H   SFRSYM    DATA     WORD      TIM3__DR
      000000C8H.5 SFRSYM    DATA     BIT       PTIM4S1
      000000FDH   SFRSYM    DATA     BYTE      P1_OE
      00000094H   SFRSYM    DATA     WORD      TIM4__DR
      000000D0H.5 SFRSYM    DATA     BIT       F0
      000000FEH   SFRSYM    DATA     BYTE      P2_OE
      000000D0H.1 SFRSYM    DATA     BIT       F1
      000000FFH   SFRSYM    DATA     BYTE      P3_OE
      00000080H.0 SFRSYM    DATA     BIT       GP00
      000000E9H   SFRSYM    DATA     BYTE      P4_OE
      00000090H.0 SFRSYM    DATA     BIT       GP10
      00000080H.1 SFRSYM    DATA     BIT       GP01
      000000A0H.0 SFRSYM    DATA     BIT       GP20
      00000090H.1 SFRSYM    DATA     BIT       GP11
      00000080H.2 SFRSYM    DATA     BIT       GP02
      000000B0H.0 SFRSYM    DATA     BIT       GP30
      000000A0H.1 SFRSYM    DATA     BIT       GP21
      00000090H.2 SFRSYM    DATA     BIT       GP12
      00000080H.3 SFRSYM    DATA     BIT       GP03
      000000B8H.0 SFRSYM    DATA     BIT       PLVW0
      000000A8H.1 SFRSYM    DATA     BIT       TSDIE
      000000D0H   SFRSYM    DATA     BYTE      PSW
      000000E8H.0 SFRSYM    DATA     BIT       GP40
      000000B0H.1 SFRSYM    DATA     BIT       GP31
      000000A0H.2 SFRSYM    DATA     BIT       GP22
      00000090H.3 SFRSYM    DATA     BIT       GP13
      00000080H.4 SFRSYM    DATA     BIT       GP04
      000000B8H.1 SFRSYM    DATA     BIT       PLVW1
      000000A8H.3 SFRSYM    DATA     BIT       SPIIE
      00000088H.5 SFRSYM    DATA     BIT       TSDIF
      000000E8H.1 SFRSYM    DATA     BIT       GP41
      000000B0H.2 SFRSYM    DATA     BIT       GP32
      000000A0H.3 SFRSYM    DATA     BIT       GP23
      00000090H.4 SFRSYM    DATA     BIT       GP14
      00000080H.5 SFRSYM    DATA     BIT       GP05
      000000C4H   SFRSYM    DATA     BYTE      MDU_DA0
      000000E8H.2 SFRSYM    DATA     BIT       GP42
      000000B0H.3 SFRSYM    DATA     BIT       GP33
      000000A0H.4 SFRSYM    DATA     BIT       GP24
      00000090H.5 SFRSYM    DATA     BIT       GP15
      00000080H.6 SFRSYM    DATA     BIT       GP06
      000000CCH   SFRSYM    DATA     BYTE      MDU_DB0
      000000C5H   SFRSYM    DATA     BYTE      MDU_DA1
      00000088H.0 SFRSYM    DATA     BIT       IT00

      0100377DH   BLOCK     CODE     ---       LVL=0
      0100377DH   LINE      CODE     ---       #17
      0100377DH   LINE      CODE     ---       #18
LX51 LINKER/LOCATER V4.66.100.0                                                       10/12/2023  14:31:55  PAGE 149


      0100377DH   LINE      CODE     ---       #19
      01003783H   LINE      CODE     ---       #20
      01003789H   LINE      CODE     ---       #21
      0100378EH   LINE      CODE     ---       #22
      01003791H   LINE      CODE     ---       #23
      01003794H   LINE      CODE     ---       #24
      0100379AH   LINE      CODE     ---       #25
      0100379EH   LINE      CODE     ---       #26
      010037A2H   LINE      CODE     ---       #27
      010037A6H   LINE      CODE     ---       #28
      010037A9H   LINE      CODE     ---       #29
      ---         BLOCKEND  ---      ---       LVL=0

      ---         MODULE    ---      ---       UARTINIT
      02000144H   PUBLIC    XDATA    ---       Uart
      000000B0H.4 SFRSYM    DATA     BIT       GP34
      000000A0H.5 SFRSYM    DATA     BIT       GP25
      00000090H.6 SFRSYM    DATA     BIT       GP16
      00000080H.7 SFRSYM    DATA     BIT       GP07
      000000CDH   SFRSYM    DATA     BYTE      MDU_DB1
      000000C6H   SFRSYM    DATA     BYTE      MDU_DA2
      00000088H.1 SFRSYM    DATA     BIT       IT01
      00000088H.3 SFRSYM    DATA     BIT       IT10
      000000B0H.5 SFRSYM    DATA     BIT       GP35
      000000A0H.6 SFRSYM    DATA     BIT       GP26
      00000090H.7 SFRSYM    DATA     BIT       GP17
      00000080H   SFRSYM    DATA     BYTE      P0
      000000F6H   SFRSYM    DATA     WORD      PI_UKMIN
      000000C7H   SFRSYM    DATA     BYTE      MDU_DA3
      00000088H.4 SFRSYM    DATA     BIT       IT11
      000000C9H   SFRSYM    DATA     BYTE      RST_SR
      000000D9H   SFRSYM    DATA     BYTE      EVT_FILT
      000000B0H.6 SFRSYM    DATA     BIT       GP36
      000000A0H.7 SFRSYM    DATA     BIT       GP27
      00000090H   SFRSYM    DATA     BYTE      P1
      000000B0H.7 SFRSYM    DATA     BIT       GP37
      000000A0H   SFRSYM    DATA     BYTE      P2
      000000F4H   SFRSYM    DATA     WORD      PI_UKMAX
      000000B0H   SFRSYM    DATA     BYTE      P3
      000000E8H   SFRSYM    DATA     BYTE      P4
      000000D0H.6 SFRSYM    DATA     BIT       AC
      000000A8H.7 SFRSYM    DATA     BIT       EA
      000000D5H   SFRSYM    DATA     BYTE      CMP_CR0
      000000D6H   SFRSYM    DATA     BYTE      CMP_CR1
      000000DAH   SFRSYM    DATA     BYTE      CMP_CR2
      000000B8H.2 SFRSYM    DATA     BIT       PX00
      000000DCH   SFRSYM    DATA     BYTE      CMP_CR3
      000000F8H.0 SFRSYM    DATA     BIT       OISUH
      000000EAH   SFRSYM    DATA     WORD      PI_EK
      000000B8H.3 SFRSYM    DATA     BIT       PX01
      000000B8H.4 SFRSYM    DATA     BIT       PX10
      000000F8H.2 SFRSYM    DATA     BIT       OISVH
      000000B8H.5 SFRSYM    DATA     BIT       PX11
      000000F8H.1 SFRSYM    DATA     BIT       OISUL
      000000DDH   SFRSYM    DATA     BYTE      LPF_K
      000000F2H   SFRSYM    DATA     WORD      PI_KI
      000000A8H   SFRSYM    DATA     BYTE      IE
      000000F8H.3 SFRSYM    DATA     BIT       OISVL
      000000EEH   SFRSYM    DATA     WORD      PI_KP
      000000AAH   SFRSYM    DATA     WORD      TIM2__CNTR
      000000A2H   SFRSYM    DATA     WORD      TIM3__CNTR
      00000092H   SFRSYM    DATA     WORD      TIM4__CNTR
      000000ECH   SFRSYM    DATA     WORD      PI_UK
      000000DEH   SFRSYM    DATA     WORD      LPF_X
      00000098H.0 SFRSYM    DATA     BIT       RI
LX51 LINKER/LOCATER V4.66.100.0                                                       10/12/2023  14:31:55  PAGE 150


      00000098H.6 SFRSYM    DATA     BIT       UT_MOD0
      000000E6H   SFRSYM    DATA     WORD      LPF_Y
      00000098H.7 SFRSYM    DATA     BIT       UT_MOD1
      000000D0H.7 SFRSYM    DATA     BIT       CY
      00000098H.1 SFRSYM    DATA     BIT       TI
      000000C0H.2 SFRSYM    DATA     BIT       PTIM10
      00000084H   SFRSYM    DATA     BYTE      FLA_KEY
      000000C0H.0 SFRSYM    DATA     BIT       PTIM20
      000000C0H.3 SFRSYM    DATA     BIT       PTIM11
      00000098H   SFRSYM    DATA     BYTE      UT_CR
      000000C8H.2 SFRSYM    DATA     BIT       PTIM30
      000000C0H.1 SFRSYM    DATA     BIT       PTIM21
      00000099H   SFRSYM    DATA     BYTE      UT_DR
      000000C8H.3 SFRSYM    DATA     BIT       PTIM31
      000000D0H.2 SFRSYM    DATA     BIT       OV
      0000009AH   SFRSYM    DATA     WORD      UT_BAUD
      000000C4H   SFRSYM    DATA     WORD      MDU_DA01
      000000CCH   SFRSYM    DATA     WORD      MDU_DB01
      00000087H   SFRSYM    DATA     BYTE      PCON
      000000C6H   SFRSYM    DATA     WORD      MDU_DA23
      00000088H   SFRSYM    DATA     BYTE      TCON
      00000082H   SFRSYM    DATA     WORD      DPTR
      000000D8H.0 SFRSYM    DATA     BIT       PUART0
      000000D8H.1 SFRSYM    DATA     BIT       PUART1
      000000D8H.2 SFRSYM    DATA     BIT       PI2C0
      00000088H.2 SFRSYM    DATA     BIT       IF0
      000000D8H.3 SFRSYM    DATA     BIT       PI2C1
      000000AEH   SFRSYM    DATA     WORD      TIM2__ARR
      000000A1H   SFRSYM    DATA     BYTE      TIM2_CR0
      000000A6H   SFRSYM    DATA     WORD      TIM3__ARR
      0000009CH   SFRSYM    DATA     BYTE      TIM3_CR0
      000000A9H   SFRSYM    DATA     BYTE      TIM2_CR1
      00000096H   SFRSYM    DATA     WORD      TIM4__ARR
      0000009EH   SFRSYM    DATA     BYTE      TIM4_CR0
      0000009DH   SFRSYM    DATA     BYTE      TIM3_CR1
      000000F8H   SFRSYM    DATA     BYTE      DRV_OUT
      0000009FH   SFRSYM    DATA     BYTE      TIM4_CR1
      000000DBH   SFRSYM    DATA     BYTE      LVSR
      000000A8H.4 SFRSYM    DATA     BIT       ES0
      00000085H   SFRSYM    DATA     BYTE      FLA_CR
      000000C0H.4 SFRSYM    DATA     BIT       PADC0
      000000B8H   SFRSYM    DATA     BYTE      IP0
      000000C0H.5 SFRSYM    DATA     BIT       PADC1
      000000C0H   SFRSYM    DATA     BYTE      IP1
      000000C8H   SFRSYM    DATA     BYTE      IP2
      00000098H.2 SFRSYM    DATA     BIT       RB8
      000000D8H   SFRSYM    DATA     BYTE      IP3
      000000A8H.0 SFRSYM    DATA     BIT       EX0
      00000098H.3 SFRSYM    DATA     BIT       TB8
      000000A8H.2 SFRSYM    DATA     BIT       EX1
      000000D0H.0 SFRSYM    DATA     BIT       P
      000000F9H   SFRSYM    DATA     BYTE      PI_LPF_CR
      00000098H.5 SFRSYM    DATA     BIT       SM2
      000000D8H.6 SFRSYM    DATA     BIT       PDMA0
      000000D8H.7 SFRSYM    DATA     BIT       PDMA1
      000000C2H   SFRSYM    DATA     WORD      MDU_MA
      000000D0H.3 SFRSYM    DATA     BIT       RS0
      000000CAH   SFRSYM    DATA     WORD      MDU_MB
      000000D0H.4 SFRSYM    DATA     BIT       RS1
      000000C1H   SFRSYM    DATA     BYTE      MDU_CR
      000000F8H.7 SFRSYM    DATA     BIT       MOE
      000000C0H.6 SFRSYM    DATA     BIT       PCMP0
      000000C0H.7 SFRSYM    DATA     BIT       PCMP1
      000000F8H.4 SFRSYM    DATA     BIT       OISWXH
      00000098H.4 SFRSYM    DATA     BIT       REN
LX51 LINKER/LOCATER V4.66.100.0                                                       10/12/2023  14:31:55  PAGE 151


      000000D7H   SFRSYM    DATA     BYTE      CMP_SR
      000000F8H.5 SFRSYM    DATA     BIT       OISWXL
      000000C8H.6 SFRSYM    DATA     BIT       PTSD0
      000000D8H.4 SFRSYM    DATA     BIT       PSPI0
      000000C8H.7 SFRSYM    DATA     BIT       PTSD1
      000000B8H.6 SFRSYM    DATA     BIT       PDRV0
      000000D8H.5 SFRSYM    DATA     BIT       PSPI1
      000000B8H.7 SFRSYM    DATA     BIT       PDRV1
      000000D1H   SFRSYM    DATA     BYTE      P1_IE
      000000D3H   SFRSYM    DATA     BYTE      P2_IE
      000000D2H   SFRSYM    DATA     BYTE      P1_IF
      000000D4H   SFRSYM    DATA     BYTE      P2_IF
      000000ACH   SFRSYM    DATA     WORD      TIM2__DR
      000000C8H.4 SFRSYM    DATA     BIT       PTIM4S0
      000000FCH   SFRSYM    DATA     BYTE      P0_OE
      000000A4H   SFRSYM    DATA     WORD      TIM3__DR
      000000C8H.5 SFRSYM    DATA     BIT       PTIM4S1
      000000FDH   SFRSYM    DATA     BYTE      P1_OE
      00000094H   SFRSYM    DATA     WORD      TIM4__DR
      000000D0H.5 SFRSYM    DATA     BIT       F0
      000000FEH   SFRSYM    DATA     BYTE      P2_OE
      000000D0H.1 SFRSYM    DATA     BIT       F1
      000000FFH   SFRSYM    DATA     BYTE      P3_OE
      00000080H.0 SFRSYM    DATA     BIT       GP00
      000000E9H   SFRSYM    DATA     BYTE      P4_OE
      00000090H.0 SFRSYM    DATA     BIT       GP10
      00000080H.1 SFRSYM    DATA     BIT       GP01
      000000A0H.0 SFRSYM    DATA     BIT       GP20
      00000090H.1 SFRSYM    DATA     BIT       GP11
      00000080H.2 SFRSYM    DATA     BIT       GP02
      000000B0H.0 SFRSYM    DATA     BIT       GP30
      000000A0H.1 SFRSYM    DATA     BIT       GP21
      00000090H.2 SFRSYM    DATA     BIT       GP12
      00000080H.3 SFRSYM    DATA     BIT       GP03
      000000B8H.0 SFRSYM    DATA     BIT       PLVW0
      000000A8H.1 SFRSYM    DATA     BIT       TSDIE
      000000D0H   SFRSYM    DATA     BYTE      PSW
      000000E8H.0 SFRSYM    DATA     BIT       GP40
      000000B0H.1 SFRSYM    DATA     BIT       GP31
      000000A0H.2 SFRSYM    DATA     BIT       GP22
      00000090H.3 SFRSYM    DATA     BIT       GP13
      00000080H.4 SFRSYM    DATA     BIT       GP04
      000000B8H.1 SFRSYM    DATA     BIT       PLVW1
      000000A8H.3 SFRSYM    DATA     BIT       SPIIE
      00000088H.5 SFRSYM    DATA     BIT       TSDIF
      000000E8H.1 SFRSYM    DATA     BIT       GP41
      000000B0H.2 SFRSYM    DATA     BIT       GP32
      000000A0H.3 SFRSYM    DATA     BIT       GP23
      00000090H.4 SFRSYM    DATA     BIT       GP14
      00000080H.5 SFRSYM    DATA     BIT       GP05
      000000C4H   SFRSYM    DATA     BYTE      MDU_DA0
      000000E8H.2 SFRSYM    DATA     BIT       GP42
      000000B0H.3 SFRSYM    DATA     BIT       GP33
      000000A0H.4 SFRSYM    DATA     BIT       GP24
      00000090H.5 SFRSYM    DATA     BIT       GP15
      00000080H.6 SFRSYM    DATA     BIT       GP06
      000000CCH   SFRSYM    DATA     BYTE      MDU_DB0
      000000C5H   SFRSYM    DATA     BYTE      MDU_DA1
      00000088H.0 SFRSYM    DATA     BIT       IT00
      00000007H   SYMBOL    DATA     BYTE      T_Data

      ---         MODULE    ---      ---       FU68XX_2_SYSTEM
      010036F0H   PUBLIC    CODE     ---       _Flash_Sector_Write
      010036BEH   PUBLIC    CODE     ---       _Flash_Sector_Erase
      00000021H.7 PUBLIC    BIT      BIT       ?_VREFConfig?BIT
LX51 LINKER/LOCATER V4.66.100.0                                                       10/12/2023  14:31:55  PAGE 152


      0100349EH   PUBLIC    CODE     ---       _VREFConfig
      000000B0H.4 SFRSYM    DATA     BIT       GP34
      000000A0H.5 SFRSYM    DATA     BIT       GP25
      00000090H.6 SFRSYM    DATA     BIT       GP16
      00000080H.7 SFRSYM    DATA     BIT       GP07
      000000CDH   SFRSYM    DATA     BYTE      MDU_DB1
      000000C6H   SFRSYM    DATA     BYTE      MDU_DA2
      00000088H.1 SFRSYM    DATA     BIT       IT01
      00000088H.3 SFRSYM    DATA     BIT       IT10
      000000B0H.5 SFRSYM    DATA     BIT       GP35
      000000A0H.6 SFRSYM    DATA     BIT       GP26
      00000090H.7 SFRSYM    DATA     BIT       GP17
      00000080H   SFRSYM    DATA     BYTE      P0
      000000F6H   SFRSYM    DATA     WORD      PI_UKMIN
      000000C7H   SFRSYM    DATA     BYTE      MDU_DA3
      00000088H.4 SFRSYM    DATA     BIT       IT11
      000000C9H   SFRSYM    DATA     BYTE      RST_SR
      000000D9H   SFRSYM    DATA     BYTE      EVT_FILT
      000000B0H.6 SFRSYM    DATA     BIT       GP36
      000000A0H.7 SFRSYM    DATA     BIT       GP27
      00000090H   SFRSYM    DATA     BYTE      P1
      000000B0H.7 SFRSYM    DATA     BIT       GP37
      000000A0H   SFRSYM    DATA     BYTE      P2
      000000F4H   SFRSYM    DATA     WORD      PI_UKMAX
      000000B0H   SFRSYM    DATA     BYTE      P3
      000000E8H   SFRSYM    DATA     BYTE      P4
      000000D0H.6 SFRSYM    DATA     BIT       AC
      000000A8H.7 SFRSYM    DATA     BIT       EA
      000000D5H   SFRSYM    DATA     BYTE      CMP_CR0
      000000D6H   SFRSYM    DATA     BYTE      CMP_CR1
      000000DAH   SFRSYM    DATA     BYTE      CMP_CR2
      000000B8H.2 SFRSYM    DATA     BIT       PX00
      000000DCH   SFRSYM    DATA     BYTE      CMP_CR3
      000000F8H.0 SFRSYM    DATA     BIT       OISUH
      000000EAH   SFRSYM    DATA     WORD      PI_EK
      000000B8H.3 SFRSYM    DATA     BIT       PX01
      000000B8H.4 SFRSYM    DATA     BIT       PX10
      000000F8H.2 SFRSYM    DATA     BIT       OISVH
      000000B8H.5 SFRSYM    DATA     BIT       PX11
      000000F8H.1 SFRSYM    DATA     BIT       OISUL
      000000DDH   SFRSYM    DATA     BYTE      LPF_K
      000000F2H   SFRSYM    DATA     WORD      PI_KI
      000000A8H   SFRSYM    DATA     BYTE      IE
      000000F8H.3 SFRSYM    DATA     BIT       OISVL
      000000EEH   SFRSYM    DATA     WORD      PI_KP
      000000AAH   SFRSYM    DATA     WORD      TIM2__CNTR
      000000A2H   SFRSYM    DATA     WORD      TIM3__CNTR
      00000092H   SFRSYM    DATA     WORD      TIM4__CNTR
      000000ECH   SFRSYM    DATA     WORD      PI_UK
      000000DEH   SFRSYM    DATA     WORD      LPF_X
      00000098H.0 SFRSYM    DATA     BIT       RI
      00000098H.6 SFRSYM    DATA     BIT       UT_MOD0
      000000E6H   SFRSYM    DATA     WORD      LPF_Y
      00000098H.7 SFRSYM    DATA     BIT       UT_MOD1
      000000D0H.7 SFRSYM    DATA     BIT       CY
      00000098H.1 SFRSYM    DATA     BIT       TI
      000000C0H.2 SFRSYM    DATA     BIT       PTIM10
      00000084H   SFRSYM    DATA     BYTE      FLA_KEY
      000000C0H.0 SFRSYM    DATA     BIT       PTIM20
      000000C0H.3 SFRSYM    DATA     BIT       PTIM11
      00000098H   SFRSYM    DATA     BYTE      UT_CR
      000000C8H.2 SFRSYM    DATA     BIT       PTIM30
      000000C0H.1 SFRSYM    DATA     BIT       PTIM21
      00000099H   SFRSYM    DATA     BYTE      UT_DR
      000000C8H.3 SFRSYM    DATA     BIT       PTIM31
LX51 LINKER/LOCATER V4.66.100.0                                                       10/12/2023  14:31:55  PAGE 153


      000000D0H.2 SFRSYM    DATA     BIT       OV
      0000009AH   SFRSYM    DATA     WORD      UT_BAUD
      000000C4H   SFRSYM    DATA     WORD      MDU_DA01
      000000CCH   SFRSYM    DATA     WORD      MDU_DB01
      00000087H   SFRSYM    DATA     BYTE      PCON
      000000C6H   SFRSYM    DATA     WORD      MDU_DA23
      00000088H   SFRSYM    DATA     BYTE      TCON
      00000082H   SFRSYM    DATA     WORD      DPTR
      000000D8H.0 SFRSYM    DATA     BIT       PUART0
      000000D8H.1 SFRSYM    DATA     BIT       PUART1
      000000D8H.2 SFRSYM    DATA     BIT       PI2C0
      00000088H.2 SFRSYM    DATA     BIT       IF0
      000000D8H.3 SFRSYM    DATA     BIT       PI2C1
      000000AEH   SFRSYM    DATA     WORD      TIM2__ARR
      000000A1H   SFRSYM    DATA     BYTE      TIM2_CR0
      000000A6H   SFRSYM    DATA     WORD      TIM3__ARR
      0000009CH   SFRSYM    DATA     BYTE      TIM3_CR0
      000000A9H   SFRSYM    DATA     BYTE      TIM2_CR1
      00000096H   SFRSYM    DATA     WORD      TIM4__ARR
      0000009EH   SFRSYM    DATA     BYTE      TIM4_CR0
      0000009DH   SFRSYM    DATA     BYTE      TIM3_CR1
      000000F8H   SFRSYM    DATA     BYTE      DRV_OUT
      0000009FH   SFRSYM    DATA     BYTE      TIM4_CR1
      000000DBH   SFRSYM    DATA     BYTE      LVSR
      000000A8H.4 SFRSYM    DATA     BIT       ES0
      00000085H   SFRSYM    DATA     BYTE      FLA_CR
      000000C0H.4 SFRSYM    DATA     BIT       PADC0
      000000B8H   SFRSYM    DATA     BYTE      IP0
      000000C0H.5 SFRSYM    DATA     BIT       PADC1
      000000C0H   SFRSYM    DATA     BYTE      IP1
      000000C8H   SFRSYM    DATA     BYTE      IP2
      00000098H.2 SFRSYM    DATA     BIT       RB8
      000000D8H   SFRSYM    DATA     BYTE      IP3
      000000A8H.0 SFRSYM    DATA     BIT       EX0
      00000098H.3 SFRSYM    DATA     BIT       TB8
      000000A8H.2 SFRSYM    DATA     BIT       EX1
      000000D0H.0 SFRSYM    DATA     BIT       P
      000000F9H   SFRSYM    DATA     BYTE      PI_LPF_CR
      00000098H.5 SFRSYM    DATA     BIT       SM2
      000000D8H.6 SFRSYM    DATA     BIT       PDMA0
      000000D8H.7 SFRSYM    DATA     BIT       PDMA1
      000000C2H   SFRSYM    DATA     WORD      MDU_MA
      000000D0H.3 SFRSYM    DATA     BIT       RS0
      000000CAH   SFRSYM    DATA     WORD      MDU_MB
      000000D0H.4 SFRSYM    DATA     BIT       RS1
      000000C1H   SFRSYM    DATA     BYTE      MDU_CR
      000000F8H.7 SFRSYM    DATA     BIT       MOE
      000000C0H.6 SFRSYM    DATA     BIT       PCMP0
      000000C0H.7 SFRSYM    DATA     BIT       PCMP1
      000000F8H.4 SFRSYM    DATA     BIT       OISWXH
      00000098H.4 SFRSYM    DATA     BIT       REN
      000000D7H   SFRSYM    DATA     BYTE      CMP_SR
      000000F8H.5 SFRSYM    DATA     BIT       OISWXL
      000000C8H.6 SFRSYM    DATA     BIT       PTSD0
      000000D8H.4 SFRSYM    DATA     BIT       PSPI0
      000000C8H.7 SFRSYM    DATA     BIT       PTSD1
      000000B8H.6 SFRSYM    DATA     BIT       PDRV0
      000000D8H.5 SFRSYM    DATA     BIT       PSPI1
      000000B8H.7 SFRSYM    DATA     BIT       PDRV1
      000000D1H   SFRSYM    DATA     BYTE      P1_IE
      000000D3H   SFRSYM    DATA     BYTE      P2_IE
      000000D2H   SFRSYM    DATA     BYTE      P1_IF
      000000D4H   SFRSYM    DATA     BYTE      P2_IF
      000000ACH   SFRSYM    DATA     WORD      TIM2__DR
      000000C8H.4 SFRSYM    DATA     BIT       PTIM4S0
LX51 LINKER/LOCATER V4.66.100.0                                                       10/12/2023  14:31:55  PAGE 154


      000000FCH   SFRSYM    DATA     BYTE      P0_OE
      000000A4H   SFRSYM    DATA     WORD      TIM3__DR
      000000C8H.5 SFRSYM    DATA     BIT       PTIM4S1
      000000FDH   SFRSYM    DATA     BYTE      P1_OE
      00000094H   SFRSYM    DATA     WORD      TIM4__DR
      000000D0H.5 SFRSYM    DATA     BIT       F0
      000000FEH   SFRSYM    DATA     BYTE      P2_OE
      000000D0H.1 SFRSYM    DATA     BIT       F1
      000000FFH   SFRSYM    DATA     BYTE      P3_OE
      00000080H.0 SFRSYM    DATA     BIT       GP00
      000000E9H   SFRSYM    DATA     BYTE      P4_OE
      00000090H.0 SFRSYM    DATA     BIT       GP10
      00000080H.1 SFRSYM    DATA     BIT       GP01
      000000A0H.0 SFRSYM    DATA     BIT       GP20
      00000090H.1 SFRSYM    DATA     BIT       GP11
      00000080H.2 SFRSYM    DATA     BIT       GP02
      000000B0H.0 SFRSYM    DATA     BIT       GP30
      000000A0H.1 SFRSYM    DATA     BIT       GP21
      00000090H.2 SFRSYM    DATA     BIT       GP12
      00000080H.3 SFRSYM    DATA     BIT       GP03
      000000B8H.0 SFRSYM    DATA     BIT       PLVW0
      000000A8H.1 SFRSYM    DATA     BIT       TSDIE
      000000D0H   SFRSYM    DATA     BYTE      PSW
      000000E8H.0 SFRSYM    DATA     BIT       GP40
      000000B0H.1 SFRSYM    DATA     BIT       GP31
      000000A0H.2 SFRSYM    DATA     BIT       GP22
      00000090H.3 SFRSYM    DATA     BIT       GP13
      00000080H.4 SFRSYM    DATA     BIT       GP04
      000000B8H.1 SFRSYM    DATA     BIT       PLVW1
      000000A8H.3 SFRSYM    DATA     BIT       SPIIE
      00000088H.5 SFRSYM    DATA     BIT       TSDIF
      000000E8H.1 SFRSYM    DATA     BIT       GP41
      000000B0H.2 SFRSYM    DATA     BIT       GP32
      000000A0H.3 SFRSYM    DATA     BIT       GP23
      00000090H.4 SFRSYM    DATA     BIT       GP14
      00000080H.5 SFRSYM    DATA     BIT       GP05
      000000C4H   SFRSYM    DATA     BYTE      MDU_DA0
      000000E8H.2 SFRSYM    DATA     BIT       GP42
      000000B0H.3 SFRSYM    DATA     BIT       GP33
      000000A0H.4 SFRSYM    DATA     BIT       GP24
      00000090H.5 SFRSYM    DATA     BIT       GP15
      00000080H.6 SFRSYM    DATA     BIT       GP06
      000000CCH   SFRSYM    DATA     BYTE      MDU_DB0
      000000C5H   SFRSYM    DATA     BYTE      MDU_DA1
      00000088H.0 SFRSYM    DATA     BIT       IT00

      0100349EH   BLOCK     CODE     ---       LVL=0
      00000007H   SYMBOL    DATA     BYTE      Value
      00000021H.7 SYMBOL    BIT      BIT       Status
      0100349EH   LINE      CODE     ---       #26
      0100349EH   LINE      CODE     ---       #27
      0100349EH   LINE      CODE     ---       #28
      010034ACH   LINE      CODE     ---       #29
      010034ACH   LINE      CODE     ---       #30
      010034B5H   LINE      CODE     ---       #31
      010034C0H   LINE      CODE     ---       #32
      010034CBH   LINE      CODE     ---       #33
      010034D2H   LINE      CODE     ---       #34
      010034D2H   LINE      CODE     ---       #36
      010034E8H   LINE      CODE     ---       #37
      ---         BLOCKEND  ---      ---       LVL=0
      00000006H   SYMBOL    DATA     WORD      Value

      010036BEH   BLOCK     CODE     ---       LVL=0
      00000006H   SYMBOL    DATA     ---       FlashAddress
LX51 LINKER/LOCATER V4.66.100.0                                                       10/12/2023  14:31:55  PAGE 155


      010036BEH   BLOCK     CODE     NEAR LAB  LVL=1
      00000021H.7 SYMBOL    BIT      BIT       TempEA
      ---         BLOCKEND  ---      ---       LVL=1
      010036BEH   LINE      CODE     ---       #92
      010036BEH   LINE      CODE     ---       #93
      010036BEH   LINE      CODE     ---       #96
      010036C2H   LINE      CODE     ---       #97
      010036C4H   LINE      CODE     ---       #99
      010036CDH   LINE      CODE     ---       #100
      010036CDH   LINE      CODE     ---       #101
      010036D0H   LINE      CODE     ---       #102
      010036D3H   LINE      CODE     ---       #103
      010036D6H   LINE      CODE     ---       #104
      010036D7H   LINE      CODE     ---       #105
      010036DEH   LINE      CODE     ---       #106
      010036E1H   LINE      CODE     ---       #107
      010036E1H   LINE      CODE     ---       #109
      010036E5H   LINE      CODE     ---       #111
      010036EAH   LINE      CODE     ---       #112
      010036EAH   LINE      CODE     ---       #113
      010036EDH   LINE      CODE     ---       #114
      010036EDH   LINE      CODE     ---       #116
      010036EDH   LINE      CODE     ---       #117
      010036EFH   LINE      CODE     ---       #118
      010036EFH   LINE      CODE     ---       #119
      ---         BLOCKEND  ---      ---       LVL=0

      010036F0H   BLOCK     CODE     ---       LVL=0
      00000006H   SYMBOL    DATA     ---       FlashAddress
      00000005H   SYMBOL    DATA     BYTE      FlashData
      010036F0H   BLOCK     CODE     NEAR LAB  LVL=1
      00000021H.7 SYMBOL    BIT      BIT       TempEA
      ---         BLOCKEND  ---      ---       LVL=1
      010036F0H   LINE      CODE     ---       #129
      010036F0H   LINE      CODE     ---       #130
      010036F0H   LINE      CODE     ---       #133
      010036F4H   LINE      CODE     ---       #134
      010036F6H   LINE      CODE     ---       #136
      010036FFH   LINE      CODE     ---       #137
      010036FFH   LINE      CODE     ---       #138
      01003702H   LINE      CODE     ---       #139
      01003705H   LINE      CODE     ---       #140
      01003708H   LINE      CODE     ---       #141
      01003709H   LINE      CODE     ---       #142
      0100370FH   LINE      CODE     ---       #143
      01003712H   LINE      CODE     ---       #144
      01003712H   LINE      CODE     ---       #146
      01003716H   LINE      CODE     ---       #148
      0100371BH   LINE      CODE     ---       #149
      0100371BH   LINE      CODE     ---       #150
      0100371EH   LINE      CODE     ---       #151
      0100371EH   LINE      CODE     ---       #153
      0100371EH   LINE      CODE     ---       #154
      01003720H   LINE      CODE     ---       #155
      01003720H   LINE      CODE     ---       #156
      ---         BLOCKEND  ---      ---       LVL=0

      ---         MODULE    ---      ---       FU68XX_2_DMA
      000000B0H.4 SFRSYM    DATA     BIT       GP34
      000000A0H.5 SFRSYM    DATA     BIT       GP25
      00000090H.6 SFRSYM    DATA     BIT       GP16
      00000080H.7 SFRSYM    DATA     BIT       GP07
      000000CDH   SFRSYM    DATA     BYTE      MDU_DB1
      000000C6H   SFRSYM    DATA     BYTE      MDU_DA2
      00000088H.1 SFRSYM    DATA     BIT       IT01
LX51 LINKER/LOCATER V4.66.100.0                                                       10/12/2023  14:31:55  PAGE 156


      00000088H.3 SFRSYM    DATA     BIT       IT10
      000000B0H.5 SFRSYM    DATA     BIT       GP35
      000000A0H.6 SFRSYM    DATA     BIT       GP26
      00000090H.7 SFRSYM    DATA     BIT       GP17
      00000080H   SFRSYM    DATA     BYTE      P0
      000000F6H   SFRSYM    DATA     WORD      PI_UKMIN
      000000C7H   SFRSYM    DATA     BYTE      MDU_DA3
      00000088H.4 SFRSYM    DATA     BIT       IT11
      000000C9H   SFRSYM    DATA     BYTE      RST_SR
      000000D9H   SFRSYM    DATA     BYTE      EVT_FILT
      000000B0H.6 SFRSYM    DATA     BIT       GP36
      000000A0H.7 SFRSYM    DATA     BIT       GP27
      00000090H   SFRSYM    DATA     BYTE      P1
      000000B0H.7 SFRSYM    DATA     BIT       GP37
      000000A0H   SFRSYM    DATA     BYTE      P2
      000000F4H   SFRSYM    DATA     WORD      PI_UKMAX
      000000B0H   SFRSYM    DATA     BYTE      P3
      000000E8H   SFRSYM    DATA     BYTE      P4
      000000D0H.6 SFRSYM    DATA     BIT       AC
      000000A8H.7 SFRSYM    DATA     BIT       EA
      000000D5H   SFRSYM    DATA     BYTE      CMP_CR0
      000000D6H   SFRSYM    DATA     BYTE      CMP_CR1
      000000DAH   SFRSYM    DATA     BYTE      CMP_CR2
      000000B8H.2 SFRSYM    DATA     BIT       PX00
      000000DCH   SFRSYM    DATA     BYTE      CMP_CR3
      000000F8H.0 SFRSYM    DATA     BIT       OISUH
      000000EAH   SFRSYM    DATA     WORD      PI_EK
      000000B8H.3 SFRSYM    DATA     BIT       PX01
      000000B8H.4 SFRSYM    DATA     BIT       PX10
      000000F8H.2 SFRSYM    DATA     BIT       OISVH
      000000B8H.5 SFRSYM    DATA     BIT       PX11
      000000F8H.1 SFRSYM    DATA     BIT       OISUL
      000000DDH   SFRSYM    DATA     BYTE      LPF_K
      000000F2H   SFRSYM    DATA     WORD      PI_KI
      000000A8H   SFRSYM    DATA     BYTE      IE
      000000F8H.3 SFRSYM    DATA     BIT       OISVL
      000000EEH   SFRSYM    DATA     WORD      PI_KP
      000000AAH   SFRSYM    DATA     WORD      TIM2__CNTR
      000000A2H   SFRSYM    DATA     WORD      TIM3__CNTR
      00000092H   SFRSYM    DATA     WORD      TIM4__CNTR
      000000ECH   SFRSYM    DATA     WORD      PI_UK
      000000DEH   SFRSYM    DATA     WORD      LPF_X
      00000098H.0 SFRSYM    DATA     BIT       RI
      00000098H.6 SFRSYM    DATA     BIT       UT_MOD0
      000000E6H   SFRSYM    DATA     WORD      LPF_Y
      00000098H.7 SFRSYM    DATA     BIT       UT_MOD1
      000000D0H.7 SFRSYM    DATA     BIT       CY
      00000098H.1 SFRSYM    DATA     BIT       TI
      000000C0H.2 SFRSYM    DATA     BIT       PTIM10
      00000084H   SFRSYM    DATA     BYTE      FLA_KEY
      000000C0H.0 SFRSYM    DATA     BIT       PTIM20
      000000C0H.3 SFRSYM    DATA     BIT       PTIM11
      00000098H   SFRSYM    DATA     BYTE      UT_CR
      000000C8H.2 SFRSYM    DATA     BIT       PTIM30
      000000C0H.1 SFRSYM    DATA     BIT       PTIM21
      00000099H   SFRSYM    DATA     BYTE      UT_DR
      000000C8H.3 SFRSYM    DATA     BIT       PTIM31
      000000D0H.2 SFRSYM    DATA     BIT       OV
      0000009AH   SFRSYM    DATA     WORD      UT_BAUD
      000000C4H   SFRSYM    DATA     WORD      MDU_DA01
      000000CCH   SFRSYM    DATA     WORD      MDU_DB01
      00000087H   SFRSYM    DATA     BYTE      PCON
      000000C6H   SFRSYM    DATA     WORD      MDU_DA23
      00000088H   SFRSYM    DATA     BYTE      TCON
      00000082H   SFRSYM    DATA     WORD      DPTR
LX51 LINKER/LOCATER V4.66.100.0                                                       10/12/2023  14:31:55  PAGE 157


      000000D8H.0 SFRSYM    DATA     BIT       PUART0
      000000D8H.1 SFRSYM    DATA     BIT       PUART1
      000000D8H.2 SFRSYM    DATA     BIT       PI2C0
      00000088H.2 SFRSYM    DATA     BIT       IF0
      000000D8H.3 SFRSYM    DATA     BIT       PI2C1
      000000AEH   SFRSYM    DATA     WORD      TIM2__ARR
      000000A1H   SFRSYM    DATA     BYTE      TIM2_CR0
      000000A6H   SFRSYM    DATA     WORD      TIM3__ARR
      0000009CH   SFRSYM    DATA     BYTE      TIM3_CR0
      000000A9H   SFRSYM    DATA     BYTE      TIM2_CR1
      00000096H   SFRSYM    DATA     WORD      TIM4__ARR
      0000009EH   SFRSYM    DATA     BYTE      TIM4_CR0
      0000009DH   SFRSYM    DATA     BYTE      TIM3_CR1
      000000F8H   SFRSYM    DATA     BYTE      DRV_OUT
      0000009FH   SFRSYM    DATA     BYTE      TIM4_CR1
      000000DBH   SFRSYM    DATA     BYTE      LVSR
      000000A8H.4 SFRSYM    DATA     BIT       ES0
      00000085H   SFRSYM    DATA     BYTE      FLA_CR
      000000C0H.4 SFRSYM    DATA     BIT       PADC0
      000000B8H   SFRSYM    DATA     BYTE      IP0
      000000C0H.5 SFRSYM    DATA     BIT       PADC1
      000000C0H   SFRSYM    DATA     BYTE      IP1
      000000C8H   SFRSYM    DATA     BYTE      IP2
      00000098H.2 SFRSYM    DATA     BIT       RB8
      000000D8H   SFRSYM    DATA     BYTE      IP3
      000000A8H.0 SFRSYM    DATA     BIT       EX0
      00000098H.3 SFRSYM    DATA     BIT       TB8
      000000A8H.2 SFRSYM    DATA     BIT       EX1
      000000D0H.0 SFRSYM    DATA     BIT       P
      000000F9H   SFRSYM    DATA     BYTE      PI_LPF_CR
      00000098H.5 SFRSYM    DATA     BIT       SM2
      000000D8H.6 SFRSYM    DATA     BIT       PDMA0
      000000D8H.7 SFRSYM    DATA     BIT       PDMA1
      000000C2H   SFRSYM    DATA     WORD      MDU_MA
      000000D0H.3 SFRSYM    DATA     BIT       RS0
      000000CAH   SFRSYM    DATA     WORD      MDU_MB
      000000D0H.4 SFRSYM    DATA     BIT       RS1
      000000C1H   SFRSYM    DATA     BYTE      MDU_CR
      000000F8H.7 SFRSYM    DATA     BIT       MOE
      000000C0H.6 SFRSYM    DATA     BIT       PCMP0
      000000C0H.7 SFRSYM    DATA     BIT       PCMP1
      000000F8H.4 SFRSYM    DATA     BIT       OISWXH
      00000098H.4 SFRSYM    DATA     BIT       REN
      000000D7H   SFRSYM    DATA     BYTE      CMP_SR
      000000F8H.5 SFRSYM    DATA     BIT       OISWXL
      000000C8H.6 SFRSYM    DATA     BIT       PTSD0
      000000D8H.4 SFRSYM    DATA     BIT       PSPI0
      000000C8H.7 SFRSYM    DATA     BIT       PTSD1
      000000B8H.6 SFRSYM    DATA     BIT       PDRV0
      000000D8H.5 SFRSYM    DATA     BIT       PSPI1
      000000B8H.7 SFRSYM    DATA     BIT       PDRV1
      000000D1H   SFRSYM    DATA     BYTE      P1_IE
      000000D3H   SFRSYM    DATA     BYTE      P2_IE
      000000D2H   SFRSYM    DATA     BYTE      P1_IF
      000000D4H   SFRSYM    DATA     BYTE      P2_IF
      000000ACH   SFRSYM    DATA     WORD      TIM2__DR
      000000C8H.4 SFRSYM    DATA     BIT       PTIM4S0
      000000FCH   SFRSYM    DATA     BYTE      P0_OE
      000000A4H   SFRSYM    DATA     WORD      TIM3__DR
      000000C8H.5 SFRSYM    DATA     BIT       PTIM4S1
      000000FDH   SFRSYM    DATA     BYTE      P1_OE
      00000094H   SFRSYM    DATA     WORD      TIM4__DR
      000000D0H.5 SFRSYM    DATA     BIT       F0
      000000FEH   SFRSYM    DATA     BYTE      P2_OE
      000000D0H.1 SFRSYM    DATA     BIT       F1
LX51 LINKER/LOCATER V4.66.100.0                                                       10/12/2023  14:31:55  PAGE 158


      000000FFH   SFRSYM    DATA     BYTE      P3_OE
      00000080H.0 SFRSYM    DATA     BIT       GP00
      000000E9H   SFRSYM    DATA     BYTE      P4_OE
      00000090H.0 SFRSYM    DATA     BIT       GP10
      00000080H.1 SFRSYM    DATA     BIT       GP01
      000000A0H.0 SFRSYM    DATA     BIT       GP20
      00000090H.1 SFRSYM    DATA     BIT       GP11
      00000080H.2 SFRSYM    DATA     BIT       GP02
      000000B0H.0 SFRSYM    DATA     BIT       GP30
      000000A0H.1 SFRSYM    DATA     BIT       GP21
      00000090H.2 SFRSYM    DATA     BIT       GP12
      00000080H.3 SFRSYM    DATA     BIT       GP03
      000000B8H.0 SFRSYM    DATA     BIT       PLVW0
      000000A8H.1 SFRSYM    DATA     BIT       TSDIE
      000000D0H   SFRSYM    DATA     BYTE      PSW
      000000E8H.0 SFRSYM    DATA     BIT       GP40
      000000B0H.1 SFRSYM    DATA     BIT       GP31
      000000A0H.2 SFRSYM    DATA     BIT       GP22
      00000090H.3 SFRSYM    DATA     BIT       GP13
      00000080H.4 SFRSYM    DATA     BIT       GP04
      000000B8H.1 SFRSYM    DATA     BIT       PLVW1
      000000A8H.3 SFRSYM    DATA     BIT       SPIIE
      00000088H.5 SFRSYM    DATA     BIT       TSDIF
      000000E8H.1 SFRSYM    DATA     BIT       GP41
      000000B0H.2 SFRSYM    DATA     BIT       GP32
      000000A0H.3 SFRSYM    DATA     BIT       GP23
      00000090H.4 SFRSYM    DATA     BIT       GP14
      00000080H.5 SFRSYM    DATA     BIT       GP05
      000000C4H   SFRSYM    DATA     BYTE      MDU_DA0
      000000E8H.2 SFRSYM    DATA     BIT       GP42
      000000B0H.3 SFRSYM    DATA     BIT       GP33
      000000A0H.4 SFRSYM    DATA     BIT       GP24
      00000090H.5 SFRSYM    DATA     BIT       GP15
      00000080H.6 SFRSYM    DATA     BIT       GP06
      000000CCH   SFRSYM    DATA     BYTE      MDU_DB0
      000000C5H   SFRSYM    DATA     BYTE      MDU_DA1
      00000088H.0 SFRSYM    DATA     BIT       IT00
      00000007H   SYMBOL    DATA     BYTE      IEMod
      00000005H   SYMBOL    DATA     BYTE      FirstMod
      00000005H   SYMBOL    DATA     BYTE      Pipe
      00000001H   SYMBOL    DATA     ---       Addr
      00000001H   SYMBOL    DATA     ---       Addr

      ---         MODULE    ---      ---       FU68XX_2_OTHER
      000000B0H.4 SFRSYM    DATA     BIT       GP34
      000000A0H.5 SFRSYM    DATA     BIT       GP25
      00000090H.6 SFRSYM    DATA     BIT       GP16
      00000080H.7 SFRSYM    DATA     BIT       GP07
      000000CDH   SFRSYM    DATA     BYTE      MDU_DB1
      000000C6H   SFRSYM    DATA     BYTE      MDU_DA2
      00000088H.1 SFRSYM    DATA     BIT       IT01
      00000088H.3 SFRSYM    DATA     BIT       IT10
      000000B0H.5 SFRSYM    DATA     BIT       GP35
      000000A0H.6 SFRSYM    DATA     BIT       GP26
      00000090H.7 SFRSYM    DATA     BIT       GP17
      00000080H   SFRSYM    DATA     BYTE      P0
      000000F6H   SFRSYM    DATA     WORD      PI_UKMIN
      000000C7H   SFRSYM    DATA     BYTE      MDU_DA3
      00000088H.4 SFRSYM    DATA     BIT       IT11
      000000C9H   SFRSYM    DATA     BYTE      RST_SR
      000000D9H   SFRSYM    DATA     BYTE      EVT_FILT
      000000B0H.6 SFRSYM    DATA     BIT       GP36
      000000A0H.7 SFRSYM    DATA     BIT       GP27
      00000090H   SFRSYM    DATA     BYTE      P1
      000000B0H.7 SFRSYM    DATA     BIT       GP37
LX51 LINKER/LOCATER V4.66.100.0                                                       10/12/2023  14:31:55  PAGE 159


      000000A0H   SFRSYM    DATA     BYTE      P2
      000000F4H   SFRSYM    DATA     WORD      PI_UKMAX
      000000B0H   SFRSYM    DATA     BYTE      P3
      000000E8H   SFRSYM    DATA     BYTE      P4
      000000D0H.6 SFRSYM    DATA     BIT       AC
      000000A8H.7 SFRSYM    DATA     BIT       EA
      000000D5H   SFRSYM    DATA     BYTE      CMP_CR0
      000000D6H   SFRSYM    DATA     BYTE      CMP_CR1
      000000DAH   SFRSYM    DATA     BYTE      CMP_CR2
      000000B8H.2 SFRSYM    DATA     BIT       PX00
      000000DCH   SFRSYM    DATA     BYTE      CMP_CR3
      000000F8H.0 SFRSYM    DATA     BIT       OISUH
      000000EAH   SFRSYM    DATA     WORD      PI_EK
      000000B8H.3 SFRSYM    DATA     BIT       PX01
      000000B8H.4 SFRSYM    DATA     BIT       PX10
      000000F8H.2 SFRSYM    DATA     BIT       OISVH
      000000B8H.5 SFRSYM    DATA     BIT       PX11
      000000F8H.1 SFRSYM    DATA     BIT       OISUL
      000000DDH   SFRSYM    DATA     BYTE      LPF_K
      000000F2H   SFRSYM    DATA     WORD      PI_KI
      000000A8H   SFRSYM    DATA     BYTE      IE
      000000F8H.3 SFRSYM    DATA     BIT       OISVL
      000000EEH   SFRSYM    DATA     WORD      PI_KP
      000000AAH   SFRSYM    DATA     WORD      TIM2__CNTR
      000000A2H   SFRSYM    DATA     WORD      TIM3__CNTR
      00000092H   SFRSYM    DATA     WORD      TIM4__CNTR
      000000ECH   SFRSYM    DATA     WORD      PI_UK
      000000DEH   SFRSYM    DATA     WORD      LPF_X
      00000098H.0 SFRSYM    DATA     BIT       RI
      00000098H.6 SFRSYM    DATA     BIT       UT_MOD0
      000000E6H   SFRSYM    DATA     WORD      LPF_Y
      00000098H.7 SFRSYM    DATA     BIT       UT_MOD1
      000000D0H.7 SFRSYM    DATA     BIT       CY
      00000098H.1 SFRSYM    DATA     BIT       TI
      000000C0H.2 SFRSYM    DATA     BIT       PTIM10
      00000084H   SFRSYM    DATA     BYTE      FLA_KEY
      000000C0H.0 SFRSYM    DATA     BIT       PTIM20
      000000C0H.3 SFRSYM    DATA     BIT       PTIM11
      00000098H   SFRSYM    DATA     BYTE      UT_CR
      000000C8H.2 SFRSYM    DATA     BIT       PTIM30
      000000C0H.1 SFRSYM    DATA     BIT       PTIM21
      00000099H   SFRSYM    DATA     BYTE      UT_DR
      000000C8H.3 SFRSYM    DATA     BIT       PTIM31
      000000D0H.2 SFRSYM    DATA     BIT       OV
      0000009AH   SFRSYM    DATA     WORD      UT_BAUD
      000000C4H   SFRSYM    DATA     WORD      MDU_DA01
      000000CCH   SFRSYM    DATA     WORD      MDU_DB01
      00000087H   SFRSYM    DATA     BYTE      PCON
      000000C6H   SFRSYM    DATA     WORD      MDU_DA23
      00000088H   SFRSYM    DATA     BYTE      TCON
      00000082H   SFRSYM    DATA     WORD      DPTR
      000000D8H.0 SFRSYM    DATA     BIT       PUART0
      000000D8H.1 SFRSYM    DATA     BIT       PUART1
      000000D8H.2 SFRSYM    DATA     BIT       PI2C0
      00000088H.2 SFRSYM    DATA     BIT       IF0
      000000D8H.3 SFRSYM    DATA     BIT       PI2C1
      000000AEH   SFRSYM    DATA     WORD      TIM2__ARR
      000000A1H   SFRSYM    DATA     BYTE      TIM2_CR0
      000000A6H   SFRSYM    DATA     WORD      TIM3__ARR
      0000009CH   SFRSYM    DATA     BYTE      TIM3_CR0
      000000A9H   SFRSYM    DATA     BYTE      TIM2_CR1
      00000096H   SFRSYM    DATA     WORD      TIM4__ARR
      0000009EH   SFRSYM    DATA     BYTE      TIM4_CR0
      0000009DH   SFRSYM    DATA     BYTE      TIM3_CR1
      000000F8H   SFRSYM    DATA     BYTE      DRV_OUT
LX51 LINKER/LOCATER V4.66.100.0                                                       10/12/2023  14:31:55  PAGE 160


      0000009FH   SFRSYM    DATA     BYTE      TIM4_CR1
      000000DBH   SFRSYM    DATA     BYTE      LVSR
      000000A8H.4 SFRSYM    DATA     BIT       ES0
      00000085H   SFRSYM    DATA     BYTE      FLA_CR
      000000C0H.4 SFRSYM    DATA     BIT       PADC0
      000000B8H   SFRSYM    DATA     BYTE      IP0
      000000C0H.5 SFRSYM    DATA     BIT       PADC1
      000000C0H   SFRSYM    DATA     BYTE      IP1
      000000C8H   SFRSYM    DATA     BYTE      IP2
      00000098H.2 SFRSYM    DATA     BIT       RB8
      000000D8H   SFRSYM    DATA     BYTE      IP3
      000000A8H.0 SFRSYM    DATA     BIT       EX0
      00000098H.3 SFRSYM    DATA     BIT       TB8
      000000A8H.2 SFRSYM    DATA     BIT       EX1
      000000D0H.0 SFRSYM    DATA     BIT       P
      000000F9H   SFRSYM    DATA     BYTE      PI_LPF_CR
      00000098H.5 SFRSYM    DATA     BIT       SM2
      000000D8H.6 SFRSYM    DATA     BIT       PDMA0
      000000D8H.7 SFRSYM    DATA     BIT       PDMA1
      000000C2H   SFRSYM    DATA     WORD      MDU_MA
      000000D0H.3 SFRSYM    DATA     BIT       RS0
      000000CAH   SFRSYM    DATA     WORD      MDU_MB
      000000D0H.4 SFRSYM    DATA     BIT       RS1
      000000C1H   SFRSYM    DATA     BYTE      MDU_CR
      000000F8H.7 SFRSYM    DATA     BIT       MOE
      000000C0H.6 SFRSYM    DATA     BIT       PCMP0
      000000C0H.7 SFRSYM    DATA     BIT       PCMP1
      000000F8H.4 SFRSYM    DATA     BIT       OISWXH
      00000098H.4 SFRSYM    DATA     BIT       REN
      000000D7H   SFRSYM    DATA     BYTE      CMP_SR
      000000F8H.5 SFRSYM    DATA     BIT       OISWXL
      000000C8H.6 SFRSYM    DATA     BIT       PTSD0
      000000D8H.4 SFRSYM    DATA     BIT       PSPI0
      000000C8H.7 SFRSYM    DATA     BIT       PTSD1
      000000B8H.6 SFRSYM    DATA     BIT       PDRV0
      000000D8H.5 SFRSYM    DATA     BIT       PSPI1
      000000B8H.7 SFRSYM    DATA     BIT       PDRV1
      000000D1H   SFRSYM    DATA     BYTE      P1_IE
      000000D3H   SFRSYM    DATA     BYTE      P2_IE
      000000D2H   SFRSYM    DATA     BYTE      P1_IF
      000000D4H   SFRSYM    DATA     BYTE      P2_IF
      000000ACH   SFRSYM    DATA     WORD      TIM2__DR
      000000C8H.4 SFRSYM    DATA     BIT       PTIM4S0
      000000FCH   SFRSYM    DATA     BYTE      P0_OE
      000000A4H   SFRSYM    DATA     WORD      TIM3__DR
      000000C8H.5 SFRSYM    DATA     BIT       PTIM4S1
      000000FDH   SFRSYM    DATA     BYTE      P1_OE
      00000094H   SFRSYM    DATA     WORD      TIM4__DR
      000000D0H.5 SFRSYM    DATA     BIT       F0
      000000FEH   SFRSYM    DATA     BYTE      P2_OE
      000000D0H.1 SFRSYM    DATA     BIT       F1
      000000FFH   SFRSYM    DATA     BYTE      P3_OE
      00000080H.0 SFRSYM    DATA     BIT       GP00
      000000E9H   SFRSYM    DATA     BYTE      P4_OE
      00000090H.0 SFRSYM    DATA     BIT       GP10
      00000080H.1 SFRSYM    DATA     BIT       GP01
      000000A0H.0 SFRSYM    DATA     BIT       GP20
      00000090H.1 SFRSYM    DATA     BIT       GP11
      00000080H.2 SFRSYM    DATA     BIT       GP02
      000000B0H.0 SFRSYM    DATA     BIT       GP30
      000000A0H.1 SFRSYM    DATA     BIT       GP21
      00000090H.2 SFRSYM    DATA     BIT       GP12
      00000080H.3 SFRSYM    DATA     BIT       GP03
      000000B8H.0 SFRSYM    DATA     BIT       PLVW0
      000000A8H.1 SFRSYM    DATA     BIT       TSDIE
LX51 LINKER/LOCATER V4.66.100.0                                                       10/12/2023  14:31:55  PAGE 161


      000000D0H   SFRSYM    DATA     BYTE      PSW
      000000E8H.0 SFRSYM    DATA     BIT       GP40
      000000B0H.1 SFRSYM    DATA     BIT       GP31
      000000A0H.2 SFRSYM    DATA     BIT       GP22
      00000090H.3 SFRSYM    DATA     BIT       GP13
      00000080H.4 SFRSYM    DATA     BIT       GP04
      000000B8H.1 SFRSYM    DATA     BIT       PLVW1
      000000A8H.3 SFRSYM    DATA     BIT       SPIIE
      00000088H.5 SFRSYM    DATA     BIT       TSDIF
      000000E8H.1 SFRSYM    DATA     BIT       GP41
      000000B0H.2 SFRSYM    DATA     BIT       GP32
      000000A0H.3 SFRSYM    DATA     BIT       GP23
      00000090H.4 SFRSYM    DATA     BIT       GP14
      00000080H.5 SFRSYM    DATA     BIT       GP05
      000000C4H   SFRSYM    DATA     BYTE      MDU_DA0
      000000E8H.2 SFRSYM    DATA     BIT       GP42
      000000B0H.3 SFRSYM    DATA     BIT       GP33
      000000A0H.4 SFRSYM    DATA     BIT       GP24
      00000090H.5 SFRSYM    DATA     BIT       GP15
      00000080H.6 SFRSYM    DATA     BIT       GP06
      000000CCH   SFRSYM    DATA     BYTE      MDU_DB0
      000000C5H   SFRSYM    DATA     BYTE      MDU_DA1
      00000088H.0 SFRSYM    DATA     BIT       IT00
      00000006H   SYMBOL    DATA     BYTE      i
      00000006H   SYMBOL    DATA     BYTE      j

      ---         MODULE    ---      ---       ?C?FPADD
      01000085H   PUBLIC    CODE     ---       ?C?FPADD
      01000081H   PUBLIC    CODE     ---       ?C?FPSUB

      ---         MODULE    ---      ---       ?C?FPMUL
      01000176H   PUBLIC    CODE     ---       ?C?FPMUL

      ---         MODULE    ---      ---       ?C?FPDIV
      0100027FH   PUBLIC    CODE     ---       ?C?FPDIV

      ---         MODULE    ---      ---       ?C?FPCMP
      0100031EH   PUBLIC    CODE     ---       ?C?FPCMP
      0100031CH   PUBLIC    CODE     ---       ?C?FPCMP3

      ---         MODULE    ---      ---       ?C?FCAST
      0100039FH   PUBLIC    CODE     ---       ?C?FCASTC
      0100039AH   PUBLIC    CODE     ---       ?C?FCASTI
      01000395H   PUBLIC    CODE     ---       ?C?FCASTL

      ---         MODULE    ---      ---       ?C?CASTF
      010003D3H   PUBLIC    CODE     ---       ?C?CASTF

      ---         MODULE    ---      ---       ?C?FPGETOPN
      0100040AH   PUBLIC    CODE     ---       ?C?FPGETOPN2
      0100043FH   PUBLIC    CODE     ---       ?C?FPNANRESULT
      01000449H   PUBLIC    CODE     ---       ?C?FPOVERFLOW
      01000421H   PUBLIC    CODE     ---       ?C?FPRESULT
      01000435H   PUBLIC    CODE     ---       ?C?FPRESULT2
      01000446H   PUBLIC    CODE     ---       ?C?FPUNDERFLOW

      ---         MODULE    ---      ---       ?C_STARTUP
      01000000H   PUBLIC    CODE     ---       ?C_STARTUP

      ---         MODULE    ---      ---       ?C?CLDPTR
      01000454H   PUBLIC    CODE     ---       ?C?CLDPTR

      ---         MODULE    ---      ---       ?C?CLDOPTR
      0100046DH   PUBLIC    CODE     ---       ?C?CLDOPTR

LX51 LINKER/LOCATER V4.66.100.0                                                       10/12/2023  14:31:55  PAGE 162


      ---         MODULE    ---      ---       ?C?CILDPTR
      0100049AH   PUBLIC    CODE     ---       ?C?CILDPTR

      ---         MODULE    ---      ---       ?C?CILDOPTR
      010004BCH   PUBLIC    CODE     ---       ?C?CILDOPTR

      ---         MODULE    ---      ---       ?C?CSTPTR
      010004EFH   PUBLIC    CODE     ---       ?C?CSTPTR

      ---         MODULE    ---      ---       ?C?CSTOPTR
      01000501H   PUBLIC    CODE     ---       ?C?CSTOPTR

      ---         MODULE    ---      ---       ?C?IMUL
      01000523H   PUBLIC    CODE     ---       ?C?IMUL

      ---         MODULE    ---      ---       ?C?UIDIV
      01000535H   PUBLIC    CODE     ---       ?C?UIDIV

      ---         MODULE    ---      ---       ?C?IILDX
      0100058AH   PUBLIC    CODE     ---       ?C?IILDX

      ---         MODULE    ---      ---       ?C?ILDIX
      010005A0H   PUBLIC    CODE     ---       ?C?ILDIX

      ---         MODULE    ---      ---       ?C?ILDPTR
      010005B6H   PUBLIC    CODE     ---       ?C?ILDPTR

      ---         MODULE    ---      ---       ?C?ILDOPTR
      010005E1H   PUBLIC    CODE     ---       ?C?ILDOPTR

      ---         MODULE    ---      ---       ?C?IILDPTR
      01000619H   PUBLIC    CODE     ---       ?C?IILDPTR

      ---         MODULE    ---      ---       ?C?IILDOPTR
      01000651H   PUBLIC    CODE     ---       ?C?IILDOPTR

      ---         MODULE    ---      ---       ?C?ISTPTR
      0100069EH   PUBLIC    CODE     ---       ?C?ISTPTR

      ---         MODULE    ---      ---       ?C?ISTOPTR
      010006BDH   PUBLIC    CODE     ---       ?C?ISTOPTR

      ---         MODULE    ---      ---       ?C?LMUL
      010006EAH   PUBLIC    CODE     ---       ?C?LMUL

      ---         MODULE    ---      ---       ?C?ULDIV
      01000775H   PUBLIC    CODE     ---       ?C?ULDIV

      ---         MODULE    ---      ---       ?C?LNEG
      01000807H   PUBLIC    CODE     ---       ?C?LNEG

      ---         MODULE    ---      ---       ?C?SLCMP
      01000815H   PUBLIC    CODE     ---       ?C?SLCMP

      ---         MODULE    ---      ---       ?C?ULCMP
      0100082BH   PUBLIC    CODE     ---       ?C?ULCMP

      ---         MODULE    ---      ---       ?C?ULSHR
      0100083CH   PUBLIC    CODE     ---       ?C?ULSHR

      ---         MODULE    ---      ---       ?C?SLSHR
      0100084FH   PUBLIC    CODE     ---       ?C?SLSHR

      ---         MODULE    ---      ---       ?C?LLDOPTR
      01000863H   PUBLIC    CODE     ---       ?C?LLDOPTR
LX51 LINKER/LOCATER V4.66.100.0                                                       10/12/2023  14:31:55  PAGE 163



      ---         MODULE    ---      ---       ?C?LSTOPTR
      01000893H   PUBLIC    CODE     ---       ?C?LSTOPTR

      ---         MODULE    ---      ---       ?C?LLDIDATA
      010008B7H   PUBLIC    CODE     ---       ?C?LLDIDATA

      ---         MODULE    ---      ---       ?C?LLDIDATA0
      010008C3H   PUBLIC    CODE     ---       ?C?LLDIDATA0

      ---         MODULE    ---      ---       ?C?LSTIDATA
      010008D0H   PUBLIC    CODE     ---       ?C?LSTIDATA

      ---         MODULE    ---      ---       ?C?LSTXDATA
      010008DCH   PUBLIC    CODE     ---       ?C?LSTXDATA

      ---         MODULE    ---      ---       ?C?LSTKIDATA
      010008E8H   PUBLIC    CODE     ---       ?C?LSTKIDATA

      ---         MODULE    ---      ---       ?C?LSTKXDATA
      01000901H   PUBLIC    CODE     ---       ?C?LSTKXDATA

      ---         MODULE    ---      ---       ?C?LIMUL
      01000932H   PUBLIC    CODE     ---       ?C?LIMUL

      ---         MODULE    ---      ---       ?C?MEMSET
      0100095FH   PUBLIC    CODE     ---       ?C?MEMSET

      ---         MODULE    ---      ---       ?C_INIT
      01002E5EH   PUBLIC    CODE     ---       ?C_START

      ---         MODULE    ---      ---       ?C?LLDXDATA
      0100098BH   PUBLIC    CODE     ---       ?C?LLDXDATA

      ---         MODULE    ---      ---       ?C?LLDPDATA
      01000997H   PUBLIC    CODE     ---       ?C?LLDPDATA

      ---         MODULE    ---      ---       ?C?LLDCODE
      010009A3H   PUBLIC    CODE     ---       ?C?LLDCODE

      ---         MODULE    ---      ---       ?C?LSTPDATA
      010009B3H   PUBLIC    CODE     ---       ?C?LSTPDATA



*** WARNING L25: DATA TYPES DIFFERENT
    SYMBOL:  CalSpeedStepToCmd
    MODULE:  .\Output\UserMain.obj (USERMAIN)
   DEFINED:  .\Output\UserDryer.obj (USERDRYER)

*** WARNING L25: DATA TYPES DIFFERENT
    SYMBOL:  LoopProPer1ms
    MODULE:  .\Output\UserMain.obj (USERMAIN)
   DEFINED:  .\Output\UserFrame.obj (USERFRAME)

*** WARNING L25: DATA TYPES DIFFERENT
    SYMBOL:  CalHeatStepToCmd
    MODULE:  .\Output\UserMain.obj (USERMAIN)
   DEFINED:  .\Output\UserDryer.obj (USERDRYER)

*** WARNING L25: DATA TYPES DIFFERENT
    SYMBOL:  DryerFlashInit
    MODULE:  .\Output\UserMain.obj (USERMAIN)
   DEFINED:  .\Output\UserFlash.obj (USERFLASH)

LX51 LINKER/LOCATER V4.66.100.0                                                       10/12/2023  14:31:55  PAGE 164


*** WARNING L25: DATA TYPES DIFFERENT
    SYMBOL:  UserParas
    MODULE:  .\Output\UserMain.obj (USERMAIN)
   DEFINED:  .\Output\UserFrame.obj (USERFRAME)

*** WARNING L25: DATA TYPES DIFFERENT
    SYMBOL:  Regulation
    MODULE:  .\Output\UserMain.obj (USERMAIN)
   DEFINED:  .\Output\UserAddFunc.obj (USERADDFUNC)

*** WARNING L25: DATA TYPES DIFFERENT
    SYMBOL:  CommandPer10ms
    MODULE:  .\Output\UserMain.obj (USERMAIN)
   DEFINED:  .\Output\UserFrame.obj (USERFRAME)

*** WARNING L25: DATA TYPES DIFFERENT
    SYMBOL:  CalCoolLvToCmd
    MODULE:  .\Output\UserMain.obj (USERMAIN)
   DEFINED:  .\Output\UserDryer.obj (USERDRYER)

*** WARNING L25: DATA TYPES DIFFERENT
    SYMBOL:  FlashLoopPro
    MODULE:  .\Output\UserMain.obj (USERMAIN)
   DEFINED:  .\Output\UserFlash.obj (USERFLASH)

*** WARNING L25: DATA TYPES DIFFERENT
    SYMBOL:  DryerPer1ms
    MODULE:  .\Output\UserMain.obj (USERMAIN)
   DEFINED:  .\Output\UserDryer.obj (USERDRYER)

*** WARNING L25: DATA TYPES DIFFERENT
    SYMBOL:  ShutPerform
    MODULE:  .\Output\UserInterrupt.obj (USERINTERRUPT)
   DEFINED:  .\Output\UserAddFunc.obj (USERADDFUNC)

*** WARNING L25: DATA TYPES DIFFERENT
    SYMBOL:  SetFaultResatrt
    MODULE:  .\Output\UserInterrupt.obj (USERINTERRUPT)
   DEFINED:  .\Output\UserAddFunc.obj (USERADDFUNC)

*** WARNING L25: DATA TYPES DIFFERENT
    SYMBOL:  CheckCurrent
    MODULE:  .\Output\UserInterrupt.obj (USERINTERRUPT)
   DEFINED:  .\Output\UserCalculate.obj (USERCALCULATE)

*** WARNING L25: DATA TYPES DIFFERENT
    SYMBOL:  ShutPerform
    MODULE:  .\Output\UserFrame.obj (USERFRAME)
   DEFINED:  .\Output\UserAddFunc.obj (USERADDFUNC)

*** WARNING L25: DATA TYPES DIFFERENT
    SYMBOL:  SetFaultResatrt
    MODULE:  .\Output\UserFrame.obj (USERFRAME)
   DEFINED:  .\Output\UserAddFunc.obj (USERADDFUNC)

*** WARNING L25: DATA TYPES DIFFERENT
    SYMBOL:  CancleResatrt
    MODULE:  .\Output\UserFrame.obj (USERFRAME)
   DEFINED:  .\Output\UserAddFunc.obj (USERADDFUNC)

*** WARNING L25: DATA TYPES DIFFERENT
    SYMBOL:  CheckHeatTemper
    MODULE:  .\Output\UserFrame.obj (USERFRAME)
   DEFINED:  .\Output\UserCalculate.obj (USERCALCULATE)

LX51 LINKER/LOCATER V4.66.100.0                                                       10/12/2023  14:31:55  PAGE 165


*** WARNING L25: DATA TYPES DIFFERENT
    SYMBOL:  CheckStallFault
    MODULE:  .\Output\UserFrame.obj (USERFRAME)
   DEFINED:  .\Output\UserAddFunc.obj (USERADDFUNC)

*** WARNING L25: DATA TYPES DIFFERENT
    SYMBOL:  CheckStartFault
    MODULE:  .\Output\UserFrame.obj (USERFRAME)
   DEFINED:  .\Output\UserAddFunc.obj (USERADDFUNC)

*** WARNING L25: DATA TYPES DIFFERENT
    SYMBOL:  ShutPerform
    MODULE:  .\Output\UserCalculate.obj (USERCALCULATE)
   DEFINED:  .\Output\UserAddFunc.obj (USERADDFUNC)

*** WARNING L25: DATA TYPES DIFFERENT
    SYMBOL:  SetFaultResatrt
    MODULE:  .\Output\UserCalculate.obj (USERCALCULATE)
   DEFINED:  .\Output\UserAddFunc.obj (USERADDFUNC)

*** WARNING L25: DATA TYPES DIFFERENT
    SYMBOL:  DryerKeysDefault
    MODULE:  .\Output\UserFlash.obj (USERFLASH)
   DEFINED:  .\Output\UserDryer.obj (USERDRYER)

Program Size: data=200.0 xdata=714 const=0 code=14607
LX51 RUN COMPLETE.  22 WARNING(S),  0 ERROR(S)
